SF:/home/runner/work/qrs/qrs/libs/core/qautodiff/src/error.rs
FN:4,_RNvXININtCsklZzBiyazXI_9qautodiff5errors0_0pEINtB5_5ErrorpENtNtCs2fyPGiZs4Bj_4core3fmt7Display3fmtB7_
FNDA:0,_RNvXININtCsklZzBiyazXI_9qautodiff5errors0_0pEINtB5_5ErrorpENtNtCs2fyPGiZs4Bj_4core3fmt7Display3fmtB7_
FNF:1
FNH:0
DA:4,0
BRF:0
BRH:0
LF:1
LH:0
end_of_record
SF:/home/runner/work/qrs/qrs/libs/core/qautodiff/src/expr.rs
FN:521,_RNvNtNtCsklZzBiyazXI_9qautodiff4expr5testss_12test_is_real
FN:526,_RNvNtNtCsklZzBiyazXI_9qautodiff4expr5tests8test_fmt
FN:538,_RNvNtNtCsklZzBiyazXI_9qautodiff4expr5tests8test_neg
FN:556,_RNvNtNtCsklZzBiyazXI_9qautodiff4expr5tests9test_addl
FN:586,_RNvNtNtCsklZzBiyazXI_9qautodiff4expr5tests9test_addr
FN:616,_RNvNtNtCsklZzBiyazXI_9qautodiff4expr5tests9test_subl
FN:646,_RNvNtNtCsklZzBiyazXI_9qautodiff4expr5tests9test_subr
FN:676,_RNvNtNtCsklZzBiyazXI_9qautodiff4expr5tests9test_mull
FN:706,_RNvNtNtCsklZzBiyazXI_9qautodiff4expr5tests9test_mulr
FN:736,_RNvNtNtCsklZzBiyazXI_9qautodiff4expr5tests9test_divl
FN:762,_RNvNtNtCsklZzBiyazXI_9qautodiff4expr5tests9test_divr
FN:788,_RNvNtNtCsklZzBiyazXI_9qautodiff4expr5tests8test_exp
FN:806,_RNvNtNtCsklZzBiyazXI_9qautodiff4expr5tests8test_log
FN:823,_RNvNtNtCsklZzBiyazXI_9qautodiff4expr5tests8test_erf
FN:843,_RNvNtNtCsklZzBiyazXI_9qautodiff4expr5tests9test_sqrt
FN:860,_RNvNtNtCsklZzBiyazXI_9qautodiff4expr5tests9test_powi
FN:886,_RNvNtNtCsklZzBiyazXI_9qautodiff4expr5tests8test_add
FN:919,_RNvNtNtCsklZzBiyazXI_9qautodiff4expr5tests8test_sub
FN:952,_RNvNtNtCsklZzBiyazXI_9qautodiff4expr5tests8test_mul
FN:985,_RNvNtNtCsklZzBiyazXI_9qautodiff4expr5tests8test_div
FN:1014,_RNvNtNtCsklZzBiyazXI_9qautodiff4expr5tests9test_cneg
FN:1029,_RNvNtNtCsklZzBiyazXI_9qautodiff4expr5tests9test_cexp
FN:1044,_RNvNtNtCsklZzBiyazXI_9qautodiff4expr5tests9test_clog
FN:1058,_RNvNtNtCsklZzBiyazXI_9qautodiff4expr5tests9test_cadd
FN:1084,_RNvNtNtCsklZzBiyazXI_9qautodiff4expr5tests9test_csub
FN:1110,_RNvNtNtCsklZzBiyazXI_9qautodiff4expr5tests9test_cmul
FN:1136,_RNvNtNtCsklZzBiyazXI_9qautodiff4expr5tests9test_cdiv
FN:1159,_RNvNtNtCsklZzBiyazXI_9qautodiff4expr5testss_12test_is_zero
FN:1174,_RNvNtNtCsklZzBiyazXI_9qautodiff4expr5testss_9test_zero
FN:1183,_RNvNtNtCsklZzBiyazXI_9qautodiff4expr5testss_8test_one
FN:1191,_RNvNtNtCsklZzBiyazXI_9qautodiff4expr5tests7test_eq
FN:1234,_RNvNtNtCsklZzBiyazXI_9qautodiff4expr5tests8test_cmp
FN:1278,_RNvNtNtCsklZzBiyazXI_9qautodiff4expr5testss_18test_compound_expr
FN:1300,_RNvNtNtCsklZzBiyazXI_9qautodiff4expr5testss_15test_compressed
FN:1319,_RNvNtNtCsklZzBiyazXI_9qautodiff4expr5testss_13test_graphviz
FN:1332,_RNCNvNtNtCsklZzBiyazXI_9qautodiff4expr5testss_13test_graphviz0B7_
FN:27,_RNvXNtCsklZzBiyazXI_9qautodiff4exprINtB2_5__ExprRedENtNtCs2fyPGiZs4Bj_4core5clone5Clone5cloneB4_
FN:37,_RINvMs_NtCsklZzBiyazXI_9qautodiff4exprINtB5_5__ExprRedE16__indirectly_readINtNtCs2fyPGiZs4Bj_4core6option6OptionNtNtB1f_3cmp8OrderingENCNCNvXs9_B5_INtB5_4ExprBN_dENtB1O_10PartialOrd11partial_cmp00EB7_
FN:37,_RINvMs_NtCsklZzBiyazXI_9qautodiff4exprINtB5_5__ExprRedE16__indirectly_readINtNtCs2fyPGiZs4Bj_4core6option6OptionNtNtB1f_3cmp8OrderingENCNvXs9_B5_INtB5_4ExprBN_dENtB1O_10PartialOrd11partial_cmp0EB7_
FN:37,_RINvMs_NtCsklZzBiyazXI_9qautodiff4exprINtB5_5__ExprRedE16__indirectly_readINtNtCs2fyPGiZs4Bj_4core6result6ResultuNtNtB1f_3fmt5ErrorENCNvXs6_B5_INtB5_4ExprBN_dENtB1P_7Display3fmt0EB7_
FN:37,_RINvMs_NtCsklZzBiyazXI_9qautodiff4exprINtB5_5__ExprRedE16__indirectly_readbNCNCNvXs7_B5_INtB5_4ExprBN_dENtNtCs2fyPGiZs4Bj_4core3cmp9PartialEq2eq00EB7_
FN:37,_RINvMs_NtCsklZzBiyazXI_9qautodiff4exprINtB5_5__ExprRedE16__indirectly_readbNCNvXs7_B5_INtB5_4ExprBN_dENtNtCs2fyPGiZs4Bj_4core3cmp9PartialEq2eq0EB7_
FN:37,_RINvMs_NtCsklZzBiyazXI_9qautodiff4exprINtB5_5__ExprRedE16__indirectly_readbNvYdNtNtCs3hlyyetf6no_10num_traits10identities4Zero7is_zeroEB7_
FN:56,_RNvXs0_NtCsklZzBiyazXI_9qautodiff4exprINtB5_3VarRedENtNtCs2fyPGiZs4Bj_4core5clone5Clone5cloneB7_
FN:63,_RNvXs1_NtCsklZzBiyazXI_9qautodiff4exprINtB5_3VarRedEINtNtCs2fyPGiZs4Bj_4core7convert5AsRefINtB5_4ExprBK_dEE6as_refB7_
FN:71,_RNvXs2_NtCsklZzBiyazXI_9qautodiff4exprINtB5_3VarRedENtNtNtCs2fyPGiZs4Bj_4core3ops5deref5Deref5derefB7_
FN:79,_RNvMs3_NtCsklZzBiyazXI_9qautodiff4exprINtB5_3VarRedE3keyB7_
FN:92,_RNvMs4_NtCsklZzBiyazXI_9qautodiff4exprINtB5_3VarRedE5__nodeB7_
FN:111,_RNvXs5_NtCsklZzBiyazXI_9qautodiff4exprINtB5_4ExprRedENtNtCs2fyPGiZs4Bj_4core5clone5Clone5cloneB7_
FN:124,_RNvXs6_NtCsklZzBiyazXI_9qautodiff4exprINtB5_4ExprRedENtNtCs2fyPGiZs4Bj_4core3fmt7Display3fmtB7_
FN:125,_RNCNvXs6_NtCsklZzBiyazXI_9qautodiff4exprINtB7_4ExprRedENtNtCs2fyPGiZs4Bj_4core3fmt7Display3fmt0B9_
FN:137,_RNvXs7_NtCsklZzBiyazXI_9qautodiff4exprINtB5_4ExprRedENtNtCs2fyPGiZs4Bj_4core3cmp9PartialEq2eqB7_
FN:139,_RNCNvXs7_NtCsklZzBiyazXI_9qautodiff4exprINtB7_4ExprRedENtNtCs2fyPGiZs4Bj_4core3cmp9PartialEq2eq0B9_
FN:139,_RNCNCNvXs7_NtCsklZzBiyazXI_9qautodiff4exprINtB9_4ExprRedENtNtCs2fyPGiZs4Bj_4core3cmp9PartialEq2eq00Bb_
FN:150,_RNvXs9_NtCsklZzBiyazXI_9qautodiff4exprINtB5_4ExprRedENtNtCs2fyPGiZs4Bj_4core3cmp10PartialOrd11partial_cmpB7_
FN:152,_RNCNvXs9_NtCsklZzBiyazXI_9qautodiff4exprINtB7_4ExprRedENtNtCs2fyPGiZs4Bj_4core3cmp10PartialOrd11partial_cmp0B9_
FN:152,_RNCNCNvXs9_NtCsklZzBiyazXI_9qautodiff4exprINtB9_4ExprRedENtNtCs2fyPGiZs4Bj_4core3cmp10PartialOrd11partial_cmp00Bb_
FN:171,_RNvXsb_NtCsklZzBiyazXI_9qautodiff4exprINtB5_4ExprRedEINtNtCs2fyPGiZs4Bj_4core7convert4FromINtNtNtB7_5graph4tape4NodeBL_dEE4fromB7_
FN:178,_RNvXsc_NtCsklZzBiyazXI_9qautodiff4exprINtB5_4ExprRedEINtNtCs2fyPGiZs4Bj_4core7convert4FromdE4fromB7_
FN:185,_RNvXsd_NtCsklZzBiyazXI_9qautodiff4exprINtB5_4ExprRedEINtNtCs2fyPGiZs4Bj_4core7convert4FromINtB5_3VarBL_dEE4fromB7_
FN:196,_RNvMse_NtCsklZzBiyazXI_9qautodiff4exprINtB5_4ExprRedE5valueB7_
FN:208,_RNvMse_NtCsklZzBiyazXI_9qautodiff4exprINtB5_4ExprRedE5gradsB7_
FN:221,_RNvMse_NtCsklZzBiyazXI_9qautodiff4exprINtB5_4ExprRedE3keyB7_
FN:233,_RNvMse_NtCsklZzBiyazXI_9qautodiff4exprINtB5_4ExprRedE8compressB7_
FN:245,_RNvMse_NtCsklZzBiyazXI_9qautodiff4exprINtB5_4ExprRedE8graphvizB7_
FN:276,_RNvXsg_NtCsklZzBiyazXI_9qautodiff4exprINtB5_4ExprRedENtNtCs3hlyyetf6no_10num_traits10identities4Zero4zeroB7_
FN:281,_RNvXsg_NtCsklZzBiyazXI_9qautodiff4exprINtB5_4ExprRedENtNtCs3hlyyetf6no_10num_traits10identities4Zero7is_zeroB7_
FN:291,_RNvXsh_NtCsklZzBiyazXI_9qautodiff4exprINtB5_4ExprRedENtNtCs3hlyyetf6no_10num_traits10identities3One3oneB7_
FN:303,_RNvXsi_NtCsklZzBiyazXI_9qautodiff4exprINtB5_4ExprRedENtNtNtCs2fyPGiZs4Bj_4core3ops5arith3Neg3negB7_
FN:318,_RNvXsj_NtCsklZzBiyazXI_9qautodiff4exprRINtB5_4ExprRedENtNtNtCs2fyPGiZs4Bj_4core3ops5arith3Neg3negB7_
FN:500,_RNvXsk_NtCsklZzBiyazXI_9qautodiff4exprINtB5_4ExprRedENtNtNtCsiuWCqEApz1O_5qmath3num13elementary_fn4Powi4powiB7_
FN:332,_RNvXst_NtCsklZzBiyazXI_9qautodiff4exprINtB5_4ExprRedENtNtNtCs2fyPGiZs4Bj_4core3ops5arith3Add3addB7_
FN:343,_RNvXsu_NtCsklZzBiyazXI_9qautodiff4exprINtB5_4ExprRedEINtNtNtCs2fyPGiZs4Bj_4core3ops5arith3AdddE3addB7_
FN:354,_RNvXsv_NtCsklZzBiyazXI_9qautodiff4exprINtB5_4ExprRedEINtNtNtCs2fyPGiZs4Bj_4core3ops5arith3AddRBA_E3addB7_
FN:374,_RNvXsw_NtCsklZzBiyazXI_9qautodiff4exprINtB5_4ExprRedEINtNtNtCs2fyPGiZs4Bj_4core3ops5arith3AddRdE3addB7_
FN:388,_RNvXsx_NtCsklZzBiyazXI_9qautodiff4exprRINtB5_4ExprRedENtNtNtCs2fyPGiZs4Bj_4core3ops5arith3Add3addB7_
FN:410,_RNvXsz_NtCsklZzBiyazXI_9qautodiff4exprRINtB5_4ExprRedEINtNtNtCs2fyPGiZs4Bj_4core3ops5arith3AddBB_E3addB7_
FN:332,_RNvXsF_NtCsklZzBiyazXI_9qautodiff4exprINtB5_4ExprRedENtNtNtCs2fyPGiZs4Bj_4core3ops5arith3Sub3subB7_
FN:354,_RNvXsH_NtCsklZzBiyazXI_9qautodiff4exprINtB5_4ExprRedEINtNtNtCs2fyPGiZs4Bj_4core3ops5arith3SubRBA_E3subB7_
FN:388,_RNvXsJ_NtCsklZzBiyazXI_9qautodiff4exprRINtB5_4ExprRedENtNtNtCs2fyPGiZs4Bj_4core3ops5arith3Sub3subB7_
FN:410,_RNvXsL_NtCsklZzBiyazXI_9qautodiff4exprRINtB5_4ExprRedEINtNtNtCs2fyPGiZs4Bj_4core3ops5arith3SubBB_E3subB7_
FN:332,_RNvXsR_NtCsklZzBiyazXI_9qautodiff4exprINtB5_4ExprRedENtNtNtCs2fyPGiZs4Bj_4core3ops5arith3Mul3mulB7_
FN:354,_RNvXsT_NtCsklZzBiyazXI_9qautodiff4exprINtB5_4ExprRedEINtNtNtCs2fyPGiZs4Bj_4core3ops5arith3MulRBA_E3mulB7_
FN:388,_RNvXsV_NtCsklZzBiyazXI_9qautodiff4exprRINtB5_4ExprRedENtNtNtCs2fyPGiZs4Bj_4core3ops5arith3Mul3mulB7_
FN:410,_RNvXsX_NtCsklZzBiyazXI_9qautodiff4exprRINtB5_4ExprRedEINtNtNtCs2fyPGiZs4Bj_4core3ops5arith3MulBB_E3mulB7_
FN:332,_RNvXs13_NtCsklZzBiyazXI_9qautodiff4exprINtB6_4ExprRedENtNtNtCs2fyPGiZs4Bj_4core3ops5arith3Div3divB8_
FN:354,_RNvXs15_NtCsklZzBiyazXI_9qautodiff4exprINtB6_4ExprRedEINtNtNtCs2fyPGiZs4Bj_4core3ops5arith3DivRBB_E3divB8_
FN:388,_RNvXs17_NtCsklZzBiyazXI_9qautodiff4exprRINtB6_4ExprRedENtNtNtCs2fyPGiZs4Bj_4core3ops5arith3Div3divB8_
FN:410,_RNvXs19_NtCsklZzBiyazXI_9qautodiff4exprRINtB6_4ExprRedEINtNtNtCs2fyPGiZs4Bj_4core3ops5arith3DivBC_E3divB8_
FN:478,_RNvXs1f_NtCsklZzBiyazXI_9qautodiff4exprINtB6_4ExprRedENtNtNtCsiuWCqEApz1O_5qmath3num13elementary_fn3Exp3expB8_
FN:478,_RNvXs1g_NtCsklZzBiyazXI_9qautodiff4exprINtB6_4ExprRedENtNtNtCsiuWCqEApz1O_5qmath3num13elementary_fn3Log3logB8_
FN:478,_RNvXs1h_NtCsklZzBiyazXI_9qautodiff4exprINtB6_4ExprRedENtNtNtCsiuWCqEApz1O_5qmath3num13elementary_fn3Erf3erfB8_
FN:478,_RNvXs1i_NtCsklZzBiyazXI_9qautodiff4exprINtB6_4ExprRedENtNtNtCsiuWCqEApz1O_5qmath3num13elementary_fn4Sqrt4sqrtB8_
FN:526,_RNvNtNtNtCsklZzBiyazXI_9qautodiff4expr5tests8test_fmts_6case_1
FN:526,_RNvNtNtNtCsklZzBiyazXI_9qautodiff4expr5tests8test_fmts_6case_2
FN:526,_RNvNtNtNtCsklZzBiyazXI_9qautodiff4expr5tests8test_fmts_6case_3
FN:526,_RNvNtNtNtCsklZzBiyazXI_9qautodiff4expr5tests8test_fmts_6case_4
FN:706,_RNvNtNtNtCsklZzBiyazXI_9qautodiff4expr5tests9test_mulrs_7case_01
FN:706,_RNvNtNtNtCsklZzBiyazXI_9qautodiff4expr5tests9test_mulrs_7case_02
FN:706,_RNvNtNtNtCsklZzBiyazXI_9qautodiff4expr5tests9test_mulrs_7case_03
FN:706,_RNvNtNtNtCsklZzBiyazXI_9qautodiff4expr5tests9test_mulrs_7case_04
FN:706,_RNvNtNtNtCsklZzBiyazXI_9qautodiff4expr5tests9test_mulrs_7case_05
FN:706,_RNvNtNtNtCsklZzBiyazXI_9qautodiff4expr5tests9test_mulrs_7case_06
FN:706,_RNvNtNtNtCsklZzBiyazXI_9qautodiff4expr5tests9test_mulrs_7case_07
FN:706,_RNvNtNtNtCsklZzBiyazXI_9qautodiff4expr5tests9test_mulrs_7case_08
FN:706,_RNvNtNtNtCsklZzBiyazXI_9qautodiff4expr5tests9test_mulrs_7case_09
FN:706,_RNvNtNtNtCsklZzBiyazXI_9qautodiff4expr5tests9test_mulrs_7case_10
FN:823,_RNvNtNtNtCsklZzBiyazXI_9qautodiff4expr5tests8test_erfs_6case_1
FN:823,_RNvNtNtNtCsklZzBiyazXI_9qautodiff4expr5tests8test_erfs_6case_2
FN:823,_RNvNtNtNtCsklZzBiyazXI_9qautodiff4expr5tests8test_erfs_6case_3
FN:919,_RNvNtNtNtCsklZzBiyazXI_9qautodiff4expr5tests8test_subs_7case_01
FN:919,_RNvNtNtNtCsklZzBiyazXI_9qautodiff4expr5tests8test_subs_7case_02
FN:919,_RNvNtNtNtCsklZzBiyazXI_9qautodiff4expr5tests8test_subs_7case_03
FN:919,_RNvNtNtNtCsklZzBiyazXI_9qautodiff4expr5tests8test_subs_7case_04
FN:919,_RNvNtNtNtCsklZzBiyazXI_9qautodiff4expr5tests8test_subs_7case_05
FN:919,_RNvNtNtNtCsklZzBiyazXI_9qautodiff4expr5tests8test_subs_7case_06
FN:919,_RNvNtNtNtCsklZzBiyazXI_9qautodiff4expr5tests8test_subs_7case_07
FN:919,_RNvNtNtNtCsklZzBiyazXI_9qautodiff4expr5tests8test_subs_7case_08
FN:919,_RNvNtNtNtCsklZzBiyazXI_9qautodiff4expr5tests8test_subs_7case_09
FN:919,_RNvNtNtNtCsklZzBiyazXI_9qautodiff4expr5tests8test_subs_7case_10
FN:952,_RNvNtNtNtCsklZzBiyazXI_9qautodiff4expr5tests8test_muls_7case_01
FN:952,_RNvNtNtNtCsklZzBiyazXI_9qautodiff4expr5tests8test_muls_7case_02
FN:952,_RNvNtNtNtCsklZzBiyazXI_9qautodiff4expr5tests8test_muls_7case_03
FN:952,_RNvNtNtNtCsklZzBiyazXI_9qautodiff4expr5tests8test_muls_7case_04
FN:952,_RNvNtNtNtCsklZzBiyazXI_9qautodiff4expr5tests8test_muls_7case_05
FN:952,_RNvNtNtNtCsklZzBiyazXI_9qautodiff4expr5tests8test_muls_7case_06
FN:952,_RNvNtNtNtCsklZzBiyazXI_9qautodiff4expr5tests8test_muls_7case_07
FN:952,_RNvNtNtNtCsklZzBiyazXI_9qautodiff4expr5tests8test_muls_7case_08
FN:952,_RNvNtNtNtCsklZzBiyazXI_9qautodiff4expr5tests8test_muls_7case_09
FN:952,_RNvNtNtNtCsklZzBiyazXI_9qautodiff4expr5tests8test_muls_7case_10
FN:1234,_RNvNtNtNtCsklZzBiyazXI_9qautodiff4expr5tests8test_cmps_7case_01
FN:1234,_RNvNtNtNtCsklZzBiyazXI_9qautodiff4expr5tests8test_cmps_7case_02
FN:1234,_RNvNtNtNtCsklZzBiyazXI_9qautodiff4expr5tests8test_cmps_7case_03
FN:1234,_RNvNtNtNtCsklZzBiyazXI_9qautodiff4expr5tests8test_cmps_7case_04
FN:1234,_RNvNtNtNtCsklZzBiyazXI_9qautodiff4expr5tests8test_cmps_7case_05
FN:1234,_RNvNtNtNtCsklZzBiyazXI_9qautodiff4expr5tests8test_cmps_7case_06
FN:1234,_RNvNtNtNtCsklZzBiyazXI_9qautodiff4expr5tests8test_cmps_7case_07
FN:1234,_RNvNtNtNtCsklZzBiyazXI_9qautodiff4expr5tests8test_cmps_7case_08
FN:1234,_RNvNtNtNtCsklZzBiyazXI_9qautodiff4expr5tests8test_cmps_7case_09
FN:1234,_RNvNtNtNtCsklZzBiyazXI_9qautodiff4expr5tests8test_cmps_7case_10
FN:1234,_RNvNtNtNtCsklZzBiyazXI_9qautodiff4expr5tests8test_cmps_7case_11
FN:1234,_RNvNtNtNtCsklZzBiyazXI_9qautodiff4expr5tests8test_cmps_7case_12
FN:1234,_RNvNtNtNtCsklZzBiyazXI_9qautodiff4expr5tests8test_cmps_7case_13
FN:1234,_RNvNtNtNtCsklZzBiyazXI_9qautodiff4expr5tests8test_cmps_7case_14
FN:1234,_RNvNtNtNtCsklZzBiyazXI_9qautodiff4expr5tests8test_cmps_7case_15
FN:1234,_RNvNtNtNtCsklZzBiyazXI_9qautodiff4expr5tests8test_cmps_7case_16
FN:1234,_RNvNtNtNtCsklZzBiyazXI_9qautodiff4expr5tests8test_cmps_7case_17
FN:1234,_RNvNtNtNtCsklZzBiyazXI_9qautodiff4expr5tests8test_cmps_7case_18
FN:1234,_RNvNtNtNtCsklZzBiyazXI_9qautodiff4expr5tests8test_cmps_7case_19
FN:1234,_RNvNtNtNtCsklZzBiyazXI_9qautodiff4expr5tests8test_cmps_7case_20
FN:1234,_RNvNtNtNtCsklZzBiyazXI_9qautodiff4expr5tests8test_cmps_7case_21
FN:1234,_RNvNtNtNtCsklZzBiyazXI_9qautodiff4expr5tests8test_cmps_7case_22
FN:1234,_RNvNtNtNtCsklZzBiyazXI_9qautodiff4expr5tests8test_cmps_7case_23
FN:1234,_RNvNtNtNtCsklZzBiyazXI_9qautodiff4expr5tests8test_cmps_7case_24
FN:1234,_RNvNtNtNtCsklZzBiyazXI_9qautodiff4expr5tests8test_cmps_7case_25
FN:1234,_RNvNtNtNtCsklZzBiyazXI_9qautodiff4expr5tests8test_cmps_7case_26
FN:1234,_RNvNtNtNtCsklZzBiyazXI_9qautodiff4expr5tests8test_cmps_7case_27
FN:1234,_RNvNtNtNtCsklZzBiyazXI_9qautodiff4expr5tests8test_cmps_7case_28
FN:676,_RNvNtNtNtCsklZzBiyazXI_9qautodiff4expr5tests9test_mulls_7case_01
FN:676,_RNvNtNtNtCsklZzBiyazXI_9qautodiff4expr5tests9test_mulls_7case_02
FN:676,_RNvNtNtNtCsklZzBiyazXI_9qautodiff4expr5tests9test_mulls_7case_03
FN:676,_RNvNtNtNtCsklZzBiyazXI_9qautodiff4expr5tests9test_mulls_7case_04
FN:676,_RNvNtNtNtCsklZzBiyazXI_9qautodiff4expr5tests9test_mulls_7case_05
FN:676,_RNvNtNtNtCsklZzBiyazXI_9qautodiff4expr5tests9test_mulls_7case_06
FN:676,_RNvNtNtNtCsklZzBiyazXI_9qautodiff4expr5tests9test_mulls_7case_07
FN:676,_RNvNtNtNtCsklZzBiyazXI_9qautodiff4expr5tests9test_mulls_7case_08
FN:676,_RNvNtNtNtCsklZzBiyazXI_9qautodiff4expr5tests9test_mulls_7case_09
FN:676,_RNvNtNtNtCsklZzBiyazXI_9qautodiff4expr5tests9test_mulls_7case_10
FN:843,_RNvNtNtNtCsklZzBiyazXI_9qautodiff4expr5tests9test_sqrts_6case_1
FN:843,_RNvNtNtNtCsklZzBiyazXI_9qautodiff4expr5tests9test_sqrts_6case_2
FN:843,_RNvNtNtNtCsklZzBiyazXI_9qautodiff4expr5tests9test_sqrts_6case_3
FN:886,_RNvNtNtNtCsklZzBiyazXI_9qautodiff4expr5tests8test_adds_7case_01
FN:886,_RNvNtNtNtCsklZzBiyazXI_9qautodiff4expr5tests8test_adds_7case_02
FN:886,_RNvNtNtNtCsklZzBiyazXI_9qautodiff4expr5tests8test_adds_7case_03
FN:886,_RNvNtNtNtCsklZzBiyazXI_9qautodiff4expr5tests8test_adds_7case_04
FN:886,_RNvNtNtNtCsklZzBiyazXI_9qautodiff4expr5tests8test_adds_7case_05
FN:886,_RNvNtNtNtCsklZzBiyazXI_9qautodiff4expr5tests8test_adds_7case_06
FN:886,_RNvNtNtNtCsklZzBiyazXI_9qautodiff4expr5tests8test_adds_7case_07
FN:886,_RNvNtNtNtCsklZzBiyazXI_9qautodiff4expr5tests8test_adds_7case_08
FN:886,_RNvNtNtNtCsklZzBiyazXI_9qautodiff4expr5tests8test_adds_7case_09
FN:886,_RNvNtNtNtCsklZzBiyazXI_9qautodiff4expr5tests8test_adds_7case_10
FN:1191,_RNvNtNtNtCsklZzBiyazXI_9qautodiff4expr5tests7test_eqs_7case_01
FN:1191,_RNvNtNtNtCsklZzBiyazXI_9qautodiff4expr5tests7test_eqs_7case_02
FN:1191,_RNvNtNtNtCsklZzBiyazXI_9qautodiff4expr5tests7test_eqs_7case_03
FN:1191,_RNvNtNtNtCsklZzBiyazXI_9qautodiff4expr5tests7test_eqs_7case_04
FN:1191,_RNvNtNtNtCsklZzBiyazXI_9qautodiff4expr5tests7test_eqs_7case_05
FN:1191,_RNvNtNtNtCsklZzBiyazXI_9qautodiff4expr5tests7test_eqs_7case_06
FN:1191,_RNvNtNtNtCsklZzBiyazXI_9qautodiff4expr5tests7test_eqs_7case_07
FN:1191,_RNvNtNtNtCsklZzBiyazXI_9qautodiff4expr5tests7test_eqs_7case_08
FN:1191,_RNvNtNtNtCsklZzBiyazXI_9qautodiff4expr5tests7test_eqs_7case_09
FN:1191,_RNvNtNtNtCsklZzBiyazXI_9qautodiff4expr5tests7test_eqs_7case_10
FN:1191,_RNvNtNtNtCsklZzBiyazXI_9qautodiff4expr5tests7test_eqs_7case_11
FN:1191,_RNvNtNtNtCsklZzBiyazXI_9qautodiff4expr5tests7test_eqs_7case_12
FN:1191,_RNvNtNtNtCsklZzBiyazXI_9qautodiff4expr5tests7test_eqs_7case_13
FN:1191,_RNvNtNtNtCsklZzBiyazXI_9qautodiff4expr5tests7test_eqs_7case_14
FN:1191,_RNvNtNtNtCsklZzBiyazXI_9qautodiff4expr5tests7test_eqs_7case_15
FN:1191,_RNvNtNtNtCsklZzBiyazXI_9qautodiff4expr5tests7test_eqs_7case_16
FN:1191,_RNvNtNtNtCsklZzBiyazXI_9qautodiff4expr5tests7test_eqs_7case_17
FN:1191,_RNvNtNtNtCsklZzBiyazXI_9qautodiff4expr5tests7test_eqs_7case_18
FN:1191,_RNvNtNtNtCsklZzBiyazXI_9qautodiff4expr5tests7test_eqs_7case_19
FN:1191,_RNvNtNtNtCsklZzBiyazXI_9qautodiff4expr5tests7test_eqs_7case_20
FN:1191,_RNvNtNtNtCsklZzBiyazXI_9qautodiff4expr5tests7test_eqs_7case_21
FN:1191,_RNvNtNtNtCsklZzBiyazXI_9qautodiff4expr5tests7test_eqs_7case_22
FN:1191,_RNvNtNtNtCsklZzBiyazXI_9qautodiff4expr5tests7test_eqs_7case_23
FN:1191,_RNvNtNtNtCsklZzBiyazXI_9qautodiff4expr5tests7test_eqs_7case_24
FN:1191,_RNvNtNtNtCsklZzBiyazXI_9qautodiff4expr5tests7test_eqs_7case_25
FN:1191,_RNvNtNtNtCsklZzBiyazXI_9qautodiff4expr5tests7test_eqs_7case_26
FN:1191,_RNvNtNtNtCsklZzBiyazXI_9qautodiff4expr5tests7test_eqs_7case_27
FN:1191,_RNvNtNtNtCsklZzBiyazXI_9qautodiff4expr5tests7test_eqs_7case_28
FN:538,_RNvNtNtNtCsklZzBiyazXI_9qautodiff4expr5tests8test_negs_6case_1
FN:538,_RNvNtNtNtCsklZzBiyazXI_9qautodiff4expr5tests8test_negs_6case_2
FN:538,_RNvNtNtNtCsklZzBiyazXI_9qautodiff4expr5tests8test_negs_6case_3
FN:538,_RNvNtNtNtCsklZzBiyazXI_9qautodiff4expr5tests8test_negs_6case_4
FN:556,_RNvNtNtNtCsklZzBiyazXI_9qautodiff4expr5tests9test_addls_7case_01
FN:556,_RNvNtNtNtCsklZzBiyazXI_9qautodiff4expr5tests9test_addls_7case_02
FN:556,_RNvNtNtNtCsklZzBiyazXI_9qautodiff4expr5tests9test_addls_7case_03
FN:556,_RNvNtNtNtCsklZzBiyazXI_9qautodiff4expr5tests9test_addls_7case_04
FN:556,_RNvNtNtNtCsklZzBiyazXI_9qautodiff4expr5tests9test_addls_7case_05
FN:556,_RNvNtNtNtCsklZzBiyazXI_9qautodiff4expr5tests9test_addls_7case_06
FN:556,_RNvNtNtNtCsklZzBiyazXI_9qautodiff4expr5tests9test_addls_7case_07
FN:556,_RNvNtNtNtCsklZzBiyazXI_9qautodiff4expr5tests9test_addls_7case_08
FN:556,_RNvNtNtNtCsklZzBiyazXI_9qautodiff4expr5tests9test_addls_7case_09
FN:556,_RNvNtNtNtCsklZzBiyazXI_9qautodiff4expr5tests9test_addls_7case_10
FN:1044,_RNvNtNtNtCsklZzBiyazXI_9qautodiff4expr5tests9test_clogs_6case_1
FN:1044,_RNvNtNtNtCsklZzBiyazXI_9qautodiff4expr5tests9test_clogs_6case_2
FN:1044,_RNvNtNtNtCsklZzBiyazXI_9qautodiff4expr5tests9test_clogs_6case_3
FN:1136,_RNvNtNtNtCsklZzBiyazXI_9qautodiff4expr5tests9test_cdivs_6case_1
FN:1136,_RNvNtNtNtCsklZzBiyazXI_9qautodiff4expr5tests9test_cdivs_6case_2
FN:1136,_RNvNtNtNtCsklZzBiyazXI_9qautodiff4expr5tests9test_cdivs_6case_3
FN:1136,_RNvNtNtNtCsklZzBiyazXI_9qautodiff4expr5tests9test_cdivs_6case_4
FN:1136,_RNvNtNtNtCsklZzBiyazXI_9qautodiff4expr5tests9test_cdivs_6case_5
FN:1136,_RNvNtNtNtCsklZzBiyazXI_9qautodiff4expr5tests9test_cdivs_6case_6
FN:160,_RNvXININtCsklZzBiyazXI_9qautodiff4exprsa_0ppEINtB5_4ExprppENtNtCs2fyPGiZs4Bj_4core3cmp3Ord3cmpB7_
FN:162,_RNCNvXININtCsklZzBiyazXI_9qautodiff4exprsa_0ppEINtB7_4ExprppENtNtCs2fyPGiZs4Bj_4core3cmp3Ord3cmp0B9_
FN:162,_RNCNCNvXININtCsklZzBiyazXI_9qautodiff4exprsa_0ppEINtB9_4ExprppENtNtCs2fyPGiZs4Bj_4core3cmp3Ord3cmp00Bb_
FN:266,_RNvXININtCsklZzBiyazXI_9qautodiff4exprsf_0ppEINtB5_4ExprppENtNtNtCsiuWCqEApz1O_5qmath3num7algebra10FloatBased25nearest_base_float_of_f64B7_
FN:399,_RNvXININtCsklZzBiyazXI_9qautodiff4exprsy_0ppERINtB5_4ExprppEINtNtNtCs2fyPGiZs4Bj_4core3ops5arith3AddRpE3addB7_
FN:421,_RNvXININtCsklZzBiyazXI_9qautodiff4exprsA_0ppERINtB5_4ExprppEINtNtNtCs2fyPGiZs4Bj_4core3ops5arith3AddpE3addB7_
FN:430,_RNvXININtCsklZzBiyazXI_9qautodiff4exprsB_0ppEINtB5_4ExprppENtNtNtCs2fyPGiZs4Bj_4core3ops5arith9AddAssign10add_assignB7_
FN:439,_RNvXININtCsklZzBiyazXI_9qautodiff4exprsC_0ppEINtB5_4ExprppEINtNtNtCs2fyPGiZs4Bj_4core3ops5arith9AddAssignpE10add_assignB7_
FN:448,_RNvXININtCsklZzBiyazXI_9qautodiff4exprsD_0ppEINtB5_4ExprppEINtNtNtCs2fyPGiZs4Bj_4core3ops5arith9AddAssignRBH_E10add_assignB7_
FN:457,_RNvXININtCsklZzBiyazXI_9qautodiff4exprsE_0ppEINtB5_4ExprppEINtNtNtCs2fyPGiZs4Bj_4core3ops5arith9AddAssignRpE10add_assignB7_
FN:343,_RNvXININtCsklZzBiyazXI_9qautodiff4exprsG_0ppEINtB5_4ExprppEINtNtNtCs2fyPGiZs4Bj_4core3ops5arith3SubpE3subB7_
FN:374,_RNvXININtCsklZzBiyazXI_9qautodiff4exprsI_0ppEINtB5_4ExprppEINtNtNtCs2fyPGiZs4Bj_4core3ops5arith3SubRpE3subB7_
FN:399,_RNvXININtCsklZzBiyazXI_9qautodiff4exprsK_0ppERINtB5_4ExprppEINtNtNtCs2fyPGiZs4Bj_4core3ops5arith3SubRpE3subB7_
FN:421,_RNvXININtCsklZzBiyazXI_9qautodiff4exprsM_0ppERINtB5_4ExprppEINtNtNtCs2fyPGiZs4Bj_4core3ops5arith3SubpE3subB7_
FN:430,_RNvXININtCsklZzBiyazXI_9qautodiff4exprsN_0ppEINtB5_4ExprppENtNtNtCs2fyPGiZs4Bj_4core3ops5arith9SubAssign10sub_assignB7_
FN:439,_RNvXININtCsklZzBiyazXI_9qautodiff4exprsO_0ppEINtB5_4ExprppEINtNtNtCs2fyPGiZs4Bj_4core3ops5arith9SubAssignpE10sub_assignB7_
FN:448,_RNvXININtCsklZzBiyazXI_9qautodiff4exprsP_0ppEINtB5_4ExprppEINtNtNtCs2fyPGiZs4Bj_4core3ops5arith9SubAssignRBH_E10sub_assignB7_
FN:457,_RNvXININtCsklZzBiyazXI_9qautodiff4exprsQ_0ppEINtB5_4ExprppEINtNtNtCs2fyPGiZs4Bj_4core3ops5arith9SubAssignRpE10sub_assignB7_
FN:343,_RNvXININtCsklZzBiyazXI_9qautodiff4exprsS_0ppEINtB5_4ExprppEINtNtNtCs2fyPGiZs4Bj_4core3ops5arith3MulpE3mulB7_
FN:374,_RNvXININtCsklZzBiyazXI_9qautodiff4exprsU_0ppEINtB5_4ExprppEINtNtNtCs2fyPGiZs4Bj_4core3ops5arith3MulRpE3mulB7_
FN:399,_RNvXININtCsklZzBiyazXI_9qautodiff4exprsW_0ppERINtB5_4ExprppEINtNtNtCs2fyPGiZs4Bj_4core3ops5arith3MulRpE3mulB7_
FN:421,_RNvXININtCsklZzBiyazXI_9qautodiff4exprsY_0ppERINtB5_4ExprppEINtNtNtCs2fyPGiZs4Bj_4core3ops5arith3MulpE3mulB7_
FN:430,_RNvXININtCsklZzBiyazXI_9qautodiff4exprsZ_0ppEINtB5_4ExprppENtNtNtCs2fyPGiZs4Bj_4core3ops5arith9MulAssign10mul_assignB7_
FN:439,_RNvXININtCsklZzBiyazXI_9qautodiff4exprs10_0ppEINtB5_4ExprppEINtNtNtCs2fyPGiZs4Bj_4core3ops5arith9MulAssignpE10mul_assignB7_
FN:448,_RNvXININtCsklZzBiyazXI_9qautodiff4exprs11_0ppEINtB5_4ExprppEINtNtNtCs2fyPGiZs4Bj_4core3ops5arith9MulAssignRBI_E10mul_assignB7_
FN:457,_RNvXININtCsklZzBiyazXI_9qautodiff4exprs12_0ppEINtB5_4ExprppEINtNtNtCs2fyPGiZs4Bj_4core3ops5arith9MulAssignRpE10mul_assignB7_
FN:343,_RNvXININtCsklZzBiyazXI_9qautodiff4exprs14_0ppEINtB5_4ExprppEINtNtNtCs2fyPGiZs4Bj_4core3ops5arith3DivpE3divB7_
FN:374,_RNvXININtCsklZzBiyazXI_9qautodiff4exprs16_0ppEINtB5_4ExprppEINtNtNtCs2fyPGiZs4Bj_4core3ops5arith3DivRpE3divB7_
FN:399,_RNvXININtCsklZzBiyazXI_9qautodiff4exprs18_0ppERINtB5_4ExprppEINtNtNtCs2fyPGiZs4Bj_4core3ops5arith3DivRpE3divB7_
FN:421,_RNvXININtCsklZzBiyazXI_9qautodiff4exprs1a_0ppERINtB5_4ExprppEINtNtNtCs2fyPGiZs4Bj_4core3ops5arith3DivpE3divB7_
FN:430,_RNvXININtCsklZzBiyazXI_9qautodiff4exprs1b_0ppEINtB5_4ExprppENtNtNtCs2fyPGiZs4Bj_4core3ops5arith9DivAssign10div_assignB7_
FN:439,_RNvXININtCsklZzBiyazXI_9qautodiff4exprs1c_0ppEINtB5_4ExprppEINtNtNtCs2fyPGiZs4Bj_4core3ops5arith9DivAssignpE10div_assignB7_
FN:448,_RNvXININtCsklZzBiyazXI_9qautodiff4exprs1d_0ppEINtB5_4ExprppEINtNtNtCs2fyPGiZs4Bj_4core3ops5arith9DivAssignRBI_E10div_assignB7_
FN:457,_RNvXININtCsklZzBiyazXI_9qautodiff4exprs1e_0ppEINtB5_4ExprppEINtNtNtCs2fyPGiZs4Bj_4core3ops5arith9DivAssignRpE10div_assignB7_
FN:586,_RNvNtNtNtCsklZzBiyazXI_9qautodiff4expr5tests9test_addrs_7case_01
FN:586,_RNvNtNtNtCsklZzBiyazXI_9qautodiff4expr5tests9test_addrs_7case_02
FN:586,_RNvNtNtNtCsklZzBiyazXI_9qautodiff4expr5tests9test_addrs_7case_03
FN:586,_RNvNtNtNtCsklZzBiyazXI_9qautodiff4expr5tests9test_addrs_7case_04
FN:586,_RNvNtNtNtCsklZzBiyazXI_9qautodiff4expr5tests9test_addrs_7case_05
FN:586,_RNvNtNtNtCsklZzBiyazXI_9qautodiff4expr5tests9test_addrs_7case_06
FN:586,_RNvNtNtNtCsklZzBiyazXI_9qautodiff4expr5tests9test_addrs_7case_07
FN:586,_RNvNtNtNtCsklZzBiyazXI_9qautodiff4expr5tests9test_addrs_7case_08
FN:586,_RNvNtNtNtCsklZzBiyazXI_9qautodiff4expr5tests9test_addrs_7case_09
FN:586,_RNvNtNtNtCsklZzBiyazXI_9qautodiff4expr5tests9test_addrs_7case_10
FN:860,_RNvNtNtNtCsklZzBiyazXI_9qautodiff4expr5tests9test_powis_7case_01
FN:860,_RNvNtNtNtCsklZzBiyazXI_9qautodiff4expr5tests9test_powis_7case_02
FN:860,_RNvNtNtNtCsklZzBiyazXI_9qautodiff4expr5tests9test_powis_7case_03
FN:860,_RNvNtNtNtCsklZzBiyazXI_9qautodiff4expr5tests9test_powis_7case_04
FN:860,_RNvNtNtNtCsklZzBiyazXI_9qautodiff4expr5tests9test_powis_7case_05
FN:860,_RNvNtNtNtCsklZzBiyazXI_9qautodiff4expr5tests9test_powis_7case_06
FN:860,_RNvNtNtNtCsklZzBiyazXI_9qautodiff4expr5tests9test_powis_7case_07
FN:860,_RNvNtNtNtCsklZzBiyazXI_9qautodiff4expr5tests9test_powis_7case_08
FN:860,_RNvNtNtNtCsklZzBiyazXI_9qautodiff4expr5tests9test_powis_7case_09
FN:860,_RNvNtNtNtCsklZzBiyazXI_9qautodiff4expr5tests9test_powis_7case_10
FN:860,_RNvNtNtNtCsklZzBiyazXI_9qautodiff4expr5tests9test_powis_7case_11
FN:860,_RNvNtNtNtCsklZzBiyazXI_9qautodiff4expr5tests9test_powis_7case_12
FN:1014,_RNvNtNtNtCsklZzBiyazXI_9qautodiff4expr5tests9test_cnegs_6case_1
FN:1014,_RNvNtNtNtCsklZzBiyazXI_9qautodiff4expr5tests9test_cnegs_6case_2
FN:1014,_RNvNtNtNtCsklZzBiyazXI_9qautodiff4expr5tests9test_cnegs_6case_3
FN:1014,_RNvNtNtNtCsklZzBiyazXI_9qautodiff4expr5tests9test_cnegs_6case_4
FN:1058,_RNvNtNtNtCsklZzBiyazXI_9qautodiff4expr5tests9test_cadds_7case_01
FN:1058,_RNvNtNtNtCsklZzBiyazXI_9qautodiff4expr5tests9test_cadds_7case_02
FN:1058,_RNvNtNtNtCsklZzBiyazXI_9qautodiff4expr5tests9test_cadds_7case_03
FN:1058,_RNvNtNtNtCsklZzBiyazXI_9qautodiff4expr5tests9test_cadds_7case_04
FN:1058,_RNvNtNtNtCsklZzBiyazXI_9qautodiff4expr5tests9test_cadds_7case_05
FN:1058,_RNvNtNtNtCsklZzBiyazXI_9qautodiff4expr5tests9test_cadds_7case_06
FN:1058,_RNvNtNtNtCsklZzBiyazXI_9qautodiff4expr5tests9test_cadds_7case_07
FN:1058,_RNvNtNtNtCsklZzBiyazXI_9qautodiff4expr5tests9test_cadds_7case_08
FN:1058,_RNvNtNtNtCsklZzBiyazXI_9qautodiff4expr5tests9test_cadds_7case_09
FN:1058,_RNvNtNtNtCsklZzBiyazXI_9qautodiff4expr5tests9test_cadds_7case_10
FN:1110,_RNvNtNtNtCsklZzBiyazXI_9qautodiff4expr5tests9test_cmuls_7case_01
FN:1110,_RNvNtNtNtCsklZzBiyazXI_9qautodiff4expr5tests9test_cmuls_7case_02
FN:1110,_RNvNtNtNtCsklZzBiyazXI_9qautodiff4expr5tests9test_cmuls_7case_03
FN:1110,_RNvNtNtNtCsklZzBiyazXI_9qautodiff4expr5tests9test_cmuls_7case_04
FN:1110,_RNvNtNtNtCsklZzBiyazXI_9qautodiff4expr5tests9test_cmuls_7case_05
FN:1110,_RNvNtNtNtCsklZzBiyazXI_9qautodiff4expr5tests9test_cmuls_7case_06
FN:1110,_RNvNtNtNtCsklZzBiyazXI_9qautodiff4expr5tests9test_cmuls_7case_07
FN:1110,_RNvNtNtNtCsklZzBiyazXI_9qautodiff4expr5tests9test_cmuls_7case_08
FN:1110,_RNvNtNtNtCsklZzBiyazXI_9qautodiff4expr5tests9test_cmuls_7case_09
FN:1110,_RNvNtNtNtCsklZzBiyazXI_9qautodiff4expr5tests9test_cmuls_7case_10
FN:646,_RNvNtNtNtCsklZzBiyazXI_9qautodiff4expr5tests9test_subrs_7case_01
FN:646,_RNvNtNtNtCsklZzBiyazXI_9qautodiff4expr5tests9test_subrs_7case_02
FN:646,_RNvNtNtNtCsklZzBiyazXI_9qautodiff4expr5tests9test_subrs_7case_03
FN:646,_RNvNtNtNtCsklZzBiyazXI_9qautodiff4expr5tests9test_subrs_7case_04
FN:646,_RNvNtNtNtCsklZzBiyazXI_9qautodiff4expr5tests9test_subrs_7case_05
FN:646,_RNvNtNtNtCsklZzBiyazXI_9qautodiff4expr5tests9test_subrs_7case_06
FN:646,_RNvNtNtNtCsklZzBiyazXI_9qautodiff4expr5tests9test_subrs_7case_07
FN:646,_RNvNtNtNtCsklZzBiyazXI_9qautodiff4expr5tests9test_subrs_7case_08
FN:646,_RNvNtNtNtCsklZzBiyazXI_9qautodiff4expr5tests9test_subrs_7case_09
FN:646,_RNvNtNtNtCsklZzBiyazXI_9qautodiff4expr5tests9test_subrs_7case_10
FN:788,_RNvNtNtNtCsklZzBiyazXI_9qautodiff4expr5tests8test_exps_6case_1
FN:788,_RNvNtNtNtCsklZzBiyazXI_9qautodiff4expr5tests8test_exps_6case_2
FN:788,_RNvNtNtNtCsklZzBiyazXI_9qautodiff4expr5tests8test_exps_6case_3
FN:788,_RNvNtNtNtCsklZzBiyazXI_9qautodiff4expr5tests8test_exps_6case_4
FN:985,_RNvNtNtNtCsklZzBiyazXI_9qautodiff4expr5tests8test_divs_6case_1
FN:985,_RNvNtNtNtCsklZzBiyazXI_9qautodiff4expr5tests8test_divs_6case_2
FN:985,_RNvNtNtNtCsklZzBiyazXI_9qautodiff4expr5tests8test_divs_6case_3
FN:985,_RNvNtNtNtCsklZzBiyazXI_9qautodiff4expr5tests8test_divs_6case_4
FN:985,_RNvNtNtNtCsklZzBiyazXI_9qautodiff4expr5tests8test_divs_6case_5
FN:985,_RNvNtNtNtCsklZzBiyazXI_9qautodiff4expr5tests8test_divs_6case_6
FN:616,_RNvNtNtNtCsklZzBiyazXI_9qautodiff4expr5tests9test_subls_7case_01
FN:616,_RNvNtNtNtCsklZzBiyazXI_9qautodiff4expr5tests9test_subls_7case_02
FN:616,_RNvNtNtNtCsklZzBiyazXI_9qautodiff4expr5tests9test_subls_7case_03
FN:616,_RNvNtNtNtCsklZzBiyazXI_9qautodiff4expr5tests9test_subls_7case_04
FN:616,_RNvNtNtNtCsklZzBiyazXI_9qautodiff4expr5tests9test_subls_7case_05
FN:616,_RNvNtNtNtCsklZzBiyazXI_9qautodiff4expr5tests9test_subls_7case_06
FN:616,_RNvNtNtNtCsklZzBiyazXI_9qautodiff4expr5tests9test_subls_7case_07
FN:616,_RNvNtNtNtCsklZzBiyazXI_9qautodiff4expr5tests9test_subls_7case_08
FN:616,_RNvNtNtNtCsklZzBiyazXI_9qautodiff4expr5tests9test_subls_7case_09
FN:616,_RNvNtNtNtCsklZzBiyazXI_9qautodiff4expr5tests9test_subls_7case_10
FN:762,_RNvNtNtNtCsklZzBiyazXI_9qautodiff4expr5tests9test_divrs_6case_1
FN:762,_RNvNtNtNtCsklZzBiyazXI_9qautodiff4expr5tests9test_divrs_6case_2
FN:762,_RNvNtNtNtCsklZzBiyazXI_9qautodiff4expr5tests9test_divrs_6case_3
FN:762,_RNvNtNtNtCsklZzBiyazXI_9qautodiff4expr5tests9test_divrs_6case_4
FN:762,_RNvNtNtNtCsklZzBiyazXI_9qautodiff4expr5tests9test_divrs_6case_5
FN:762,_RNvNtNtNtCsklZzBiyazXI_9qautodiff4expr5tests9test_divrs_6case_6
FN:1029,_RNvNtNtNtCsklZzBiyazXI_9qautodiff4expr5tests9test_cexps_6case_1
FN:1029,_RNvNtNtNtCsklZzBiyazXI_9qautodiff4expr5tests9test_cexps_6case_2
FN:1029,_RNvNtNtNtCsklZzBiyazXI_9qautodiff4expr5tests9test_cexps_6case_3
FN:1029,_RNvNtNtNtCsklZzBiyazXI_9qautodiff4expr5tests9test_cexps_6case_4
FN:736,_RNvNtNtNtCsklZzBiyazXI_9qautodiff4expr5tests9test_divls_6case_1
FN:736,_RNvNtNtNtCsklZzBiyazXI_9qautodiff4expr5tests9test_divls_6case_2
FN:736,_RNvNtNtNtCsklZzBiyazXI_9qautodiff4expr5tests9test_divls_6case_3
FN:736,_RNvNtNtNtCsklZzBiyazXI_9qautodiff4expr5tests9test_divls_6case_4
FN:736,_RNvNtNtNtCsklZzBiyazXI_9qautodiff4expr5tests9test_divls_6case_5
FN:736,_RNvNtNtNtCsklZzBiyazXI_9qautodiff4expr5tests9test_divls_6case_6
FN:806,_RNvNtNtNtCsklZzBiyazXI_9qautodiff4expr5tests8test_logs_6case_1
FN:806,_RNvNtNtNtCsklZzBiyazXI_9qautodiff4expr5tests8test_logs_6case_2
FN:806,_RNvNtNtNtCsklZzBiyazXI_9qautodiff4expr5tests8test_logs_6case_3
FN:1084,_RNvNtNtNtCsklZzBiyazXI_9qautodiff4expr5tests9test_csubs_7case_01
FN:1084,_RNvNtNtNtCsklZzBiyazXI_9qautodiff4expr5tests9test_csubs_7case_02
FN:1084,_RNvNtNtNtCsklZzBiyazXI_9qautodiff4expr5tests9test_csubs_7case_03
FN:1084,_RNvNtNtNtCsklZzBiyazXI_9qautodiff4expr5tests9test_csubs_7case_04
FN:1084,_RNvNtNtNtCsklZzBiyazXI_9qautodiff4expr5tests9test_csubs_7case_05
FN:1084,_RNvNtNtNtCsklZzBiyazXI_9qautodiff4expr5tests9test_csubs_7case_06
FN:1084,_RNvNtNtNtCsklZzBiyazXI_9qautodiff4expr5tests9test_csubs_7case_07
FN:1084,_RNvNtNtNtCsklZzBiyazXI_9qautodiff4expr5tests9test_csubs_7case_08
FN:1084,_RNvNtNtNtCsklZzBiyazXI_9qautodiff4expr5tests9test_csubs_7case_09
FN:1084,_RNvNtNtNtCsklZzBiyazXI_9qautodiff4expr5tests9test_csubs_7case_10
FNDA:1,_RNvNtNtCsklZzBiyazXI_9qautodiff4expr5testss_12test_is_real
FNDA:4,_RNvNtNtCsklZzBiyazXI_9qautodiff4expr5tests8test_fmt
FNDA:4,_RNvNtNtCsklZzBiyazXI_9qautodiff4expr5tests8test_neg
FNDA:10,_RNvNtNtCsklZzBiyazXI_9qautodiff4expr5tests9test_addl
FNDA:10,_RNvNtNtCsklZzBiyazXI_9qautodiff4expr5tests9test_addr
FNDA:10,_RNvNtNtCsklZzBiyazXI_9qautodiff4expr5tests9test_subl
FNDA:10,_RNvNtNtCsklZzBiyazXI_9qautodiff4expr5tests9test_subr
FNDA:10,_RNvNtNtCsklZzBiyazXI_9qautodiff4expr5tests9test_mull
FNDA:10,_RNvNtNtCsklZzBiyazXI_9qautodiff4expr5tests9test_mulr
FNDA:6,_RNvNtNtCsklZzBiyazXI_9qautodiff4expr5tests9test_divl
FNDA:6,_RNvNtNtCsklZzBiyazXI_9qautodiff4expr5tests9test_divr
FNDA:4,_RNvNtNtCsklZzBiyazXI_9qautodiff4expr5tests8test_exp
FNDA:3,_RNvNtNtCsklZzBiyazXI_9qautodiff4expr5tests8test_log
FNDA:3,_RNvNtNtCsklZzBiyazXI_9qautodiff4expr5tests8test_erf
FNDA:3,_RNvNtNtCsklZzBiyazXI_9qautodiff4expr5tests9test_sqrt
FNDA:12,_RNvNtNtCsklZzBiyazXI_9qautodiff4expr5tests9test_powi
FNDA:10,_RNvNtNtCsklZzBiyazXI_9qautodiff4expr5tests8test_add
FNDA:10,_RNvNtNtCsklZzBiyazXI_9qautodiff4expr5tests8test_sub
FNDA:10,_RNvNtNtCsklZzBiyazXI_9qautodiff4expr5tests8test_mul
FNDA:6,_RNvNtNtCsklZzBiyazXI_9qautodiff4expr5tests8test_div
FNDA:4,_RNvNtNtCsklZzBiyazXI_9qautodiff4expr5tests9test_cneg
FNDA:4,_RNvNtNtCsklZzBiyazXI_9qautodiff4expr5tests9test_cexp
FNDA:3,_RNvNtNtCsklZzBiyazXI_9qautodiff4expr5tests9test_clog
FNDA:10,_RNvNtNtCsklZzBiyazXI_9qautodiff4expr5tests9test_cadd
FNDA:10,_RNvNtNtCsklZzBiyazXI_9qautodiff4expr5tests9test_csub
FNDA:10,_RNvNtNtCsklZzBiyazXI_9qautodiff4expr5tests9test_cmul
FNDA:6,_RNvNtNtCsklZzBiyazXI_9qautodiff4expr5tests9test_cdiv
FNDA:1,_RNvNtNtCsklZzBiyazXI_9qautodiff4expr5testss_12test_is_zero
FNDA:1,_RNvNtNtCsklZzBiyazXI_9qautodiff4expr5testss_9test_zero
FNDA:1,_RNvNtNtCsklZzBiyazXI_9qautodiff4expr5testss_8test_one
FNDA:28,_RNvNtNtCsklZzBiyazXI_9qautodiff4expr5tests7test_eq
FNDA:28,_RNvNtNtCsklZzBiyazXI_9qautodiff4expr5tests8test_cmp
FNDA:1,_RNvNtNtCsklZzBiyazXI_9qautodiff4expr5testss_18test_compound_expr
FNDA:1,_RNvNtNtCsklZzBiyazXI_9qautodiff4expr5testss_15test_compressed
FNDA:1,_RNvNtNtCsklZzBiyazXI_9qautodiff4expr5testss_13test_graphviz
FNDA:17,_RNCNvNtNtCsklZzBiyazXI_9qautodiff4expr5testss_13test_graphviz0B7_
FNDA:325,_RNvXNtCsklZzBiyazXI_9qautodiff4exprINtB2_5__ExprRedENtNtCs2fyPGiZs4Bj_4core5clone5Clone5cloneB4_
FNDA:56,_RINvMs_NtCsklZzBiyazXI_9qautodiff4exprINtB5_5__ExprRedE16__indirectly_readINtNtCs2fyPGiZs4Bj_4core6option6OptionNtNtB1f_3cmp8OrderingENCNCNvXs9_B5_INtB5_4ExprBN_dENtB1O_10PartialOrd11partial_cmp00EB7_
FNDA:56,_RINvMs_NtCsklZzBiyazXI_9qautodiff4exprINtB5_5__ExprRedE16__indirectly_readINtNtCs2fyPGiZs4Bj_4core6option6OptionNtNtB1f_3cmp8OrderingENCNvXs9_B5_INtB5_4ExprBN_dENtB1O_10PartialOrd11partial_cmp0EB7_
FNDA:4,_RINvMs_NtCsklZzBiyazXI_9qautodiff4exprINtB5_5__ExprRedE16__indirectly_readINtNtCs2fyPGiZs4Bj_4core6result6ResultuNtNtB1f_3fmt5ErrorENCNvXs6_B5_INtB5_4ExprBN_dENtB1P_7Display3fmt0EB7_
FNDA:56,_RINvMs_NtCsklZzBiyazXI_9qautodiff4exprINtB5_5__ExprRedE16__indirectly_readbNCNCNvXs7_B5_INtB5_4ExprBN_dENtNtCs2fyPGiZs4Bj_4core3cmp9PartialEq2eq00EB7_
FNDA:56,_RINvMs_NtCsklZzBiyazXI_9qautodiff4exprINtB5_5__ExprRedE16__indirectly_readbNCNvXs7_B5_INtB5_4ExprBN_dENtNtCs2fyPGiZs4Bj_4core3cmp9PartialEq2eq0EB7_
FNDA:2,_RINvMs_NtCsklZzBiyazXI_9qautodiff4exprINtB5_5__ExprRedE16__indirectly_readbNvYdNtNtCs3hlyyetf6no_10num_traits10identities4Zero7is_zeroEB7_
FNDA:1,_RNvXs0_NtCsklZzBiyazXI_9qautodiff4exprINtB5_3VarRedENtNtCs2fyPGiZs4Bj_4core5clone5Clone5cloneB7_
FNDA:333,_RNvXs1_NtCsklZzBiyazXI_9qautodiff4exprINtB5_3VarRedEINtNtCs2fyPGiZs4Bj_4core7convert5AsRefINtB5_4ExprBK_dEE6as_refB7_
FNDA:1,_RNvXs2_NtCsklZzBiyazXI_9qautodiff4exprINtB5_3VarRedENtNtNtCs2fyPGiZs4Bj_4core3ops5deref5Deref5derefB7_
FNDA:1,_RNvMs3_NtCsklZzBiyazXI_9qautodiff4exprINtB5_3VarRedE3keyB7_
FNDA:14,_RNvMs4_NtCsklZzBiyazXI_9qautodiff4exprINtB5_3VarRedE5__nodeB7_
FNDA:325,_RNvXs5_NtCsklZzBiyazXI_9qautodiff4exprINtB5_4ExprRedENtNtCs2fyPGiZs4Bj_4core5clone5Clone5cloneB7_
FNDA:4,_RNvXs6_NtCsklZzBiyazXI_9qautodiff4exprINtB5_4ExprRedENtNtCs2fyPGiZs4Bj_4core3fmt7Display3fmtB7_
FNDA:4,_RNCNvXs6_NtCsklZzBiyazXI_9qautodiff4exprINtB7_4ExprRedENtNtCs2fyPGiZs4Bj_4core3fmt7Display3fmt0B9_
FNDA:56,_RNvXs7_NtCsklZzBiyazXI_9qautodiff4exprINtB5_4ExprRedENtNtCs2fyPGiZs4Bj_4core3cmp9PartialEq2eqB7_
FNDA:56,_RNCNvXs7_NtCsklZzBiyazXI_9qautodiff4exprINtB7_4ExprRedENtNtCs2fyPGiZs4Bj_4core3cmp9PartialEq2eq0B9_
FNDA:56,_RNCNCNvXs7_NtCsklZzBiyazXI_9qautodiff4exprINtB9_4ExprRedENtNtCs2fyPGiZs4Bj_4core3cmp9PartialEq2eq00Bb_
FNDA:56,_RNvXs9_NtCsklZzBiyazXI_9qautodiff4exprINtB5_4ExprRedENtNtCs2fyPGiZs4Bj_4core3cmp10PartialOrd11partial_cmpB7_
FNDA:56,_RNCNvXs9_NtCsklZzBiyazXI_9qautodiff4exprINtB7_4ExprRedENtNtCs2fyPGiZs4Bj_4core3cmp10PartialOrd11partial_cmp0B9_
FNDA:56,_RNCNCNvXs9_NtCsklZzBiyazXI_9qautodiff4exprINtB9_4ExprRedENtNtCs2fyPGiZs4Bj_4core3cmp10PartialOrd11partial_cmp00Bb_
FNDA:644,_RNvXsb_NtCsklZzBiyazXI_9qautodiff4exprINtB5_4ExprRedEINtNtCs2fyPGiZs4Bj_4core7convert4FromINtNtNtB7_5graph4tape4NodeBL_dEE4fromB7_
FNDA:249,_RNvXsc_NtCsklZzBiyazXI_9qautodiff4exprINtB5_4ExprRedEINtNtCs2fyPGiZs4Bj_4core7convert4FromdE4fromB7_
FNDA:4,_RNvXsd_NtCsklZzBiyazXI_9qautodiff4exprINtB5_4ExprRedEINtNtCs2fyPGiZs4Bj_4core7convert4FromINtB5_3VarBL_dEE4fromB7_
FNDA:334,_RNvMse_NtCsklZzBiyazXI_9qautodiff4exprINtB5_4ExprRedE5valueB7_
FNDA:345,_RNvMse_NtCsklZzBiyazXI_9qautodiff4exprINtB5_4ExprRedE5gradsB7_
FNDA:1,_RNvMse_NtCsklZzBiyazXI_9qautodiff4exprINtB5_4ExprRedE3keyB7_
FNDA:1,_RNvMse_NtCsklZzBiyazXI_9qautodiff4exprINtB5_4ExprRedE8compressB7_
FNDA:1,_RNvMse_NtCsklZzBiyazXI_9qautodiff4exprINtB5_4ExprRedE8graphvizB7_
FNDA:1,_RNvXsg_NtCsklZzBiyazXI_9qautodiff4exprINtB5_4ExprRedENtNtCs3hlyyetf6no_10num_traits10identities4Zero4zeroB7_
FNDA:2,_RNvXsg_NtCsklZzBiyazXI_9qautodiff4exprINtB5_4ExprRedENtNtCs3hlyyetf6no_10num_traits10identities4Zero7is_zeroB7_
FNDA:1,_RNvXsh_NtCsklZzBiyazXI_9qautodiff4exprINtB5_4ExprRedENtNtCs3hlyyetf6no_10num_traits10identities3One3oneB7_
FNDA:9,_RNvXsi_NtCsklZzBiyazXI_9qautodiff4exprINtB5_4ExprRedENtNtNtCs2fyPGiZs4Bj_4core3ops5arith3Neg3negB7_
FNDA:5,_RNvXsj_NtCsklZzBiyazXI_9qautodiff4exprRINtB5_4ExprRedENtNtNtCs2fyPGiZs4Bj_4core3ops5arith3Neg3negB7_
FNDA:14,_RNvXsk_NtCsklZzBiyazXI_9qautodiff4exprINtB5_4ExprRedENtNtNtCsiuWCqEApz1O_5qmath3num13elementary_fn4Powi4powiB7_
FNDA:27,_RNvXst_NtCsklZzBiyazXI_9qautodiff4exprINtB5_4ExprRedENtNtNtCs2fyPGiZs4Bj_4core3ops5arith3Add3addB7_
FNDA:1,_RNvXsu_NtCsklZzBiyazXI_9qautodiff4exprINtB5_4ExprRedEINtNtNtCs2fyPGiZs4Bj_4core3ops5arith3AdddE3addB7_
FNDA:95,_RNvXsv_NtCsklZzBiyazXI_9qautodiff4exprINtB5_4ExprRedEINtNtNtCs2fyPGiZs4Bj_4core3ops5arith3AddRBA_E3addB7_
FNDA:1,_RNvXsw_NtCsklZzBiyazXI_9qautodiff4exprINtB5_4ExprRedEINtNtNtCs2fyPGiZs4Bj_4core3ops5arith3AddRdE3addB7_
FNDA:37,_RNvXsx_NtCsklZzBiyazXI_9qautodiff4exprRINtB5_4ExprRedENtNtNtCs2fyPGiZs4Bj_4core3ops5arith3Add3addB7_
FNDA:11,_RNvXsz_NtCsklZzBiyazXI_9qautodiff4exprRINtB5_4ExprRedEINtNtNtCs2fyPGiZs4Bj_4core3ops5arith3AddBB_E3addB7_
FNDA:21,_RNvXsF_NtCsklZzBiyazXI_9qautodiff4exprINtB5_4ExprRedENtNtNtCs2fyPGiZs4Bj_4core3ops5arith3Sub3subB7_
FNDA:85,_RNvXsH_NtCsklZzBiyazXI_9qautodiff4exprINtB5_4ExprRedEINtNtNtCs2fyPGiZs4Bj_4core3ops5arith3SubRBA_E3subB7_
FNDA:33,_RNvXsJ_NtCsklZzBiyazXI_9qautodiff4exprRINtB5_4ExprRedENtNtNtCs2fyPGiZs4Bj_4core3ops5arith3Sub3subB7_
FNDA:11,_RNvXsL_NtCsklZzBiyazXI_9qautodiff4exprRINtB5_4ExprRedEINtNtNtCs2fyPGiZs4Bj_4core3ops5arith3SubBB_E3subB7_
FNDA:25,_RNvXsR_NtCsklZzBiyazXI_9qautodiff4exprINtB5_4ExprRedENtNtNtCs2fyPGiZs4Bj_4core3ops5arith3Mul3mulB7_
FNDA:103,_RNvXsT_NtCsklZzBiyazXI_9qautodiff4exprINtB5_4ExprRedEINtNtNtCs2fyPGiZs4Bj_4core3ops5arith3MulRBA_E3mulB7_
FNDA:45,_RNvXsV_NtCsklZzBiyazXI_9qautodiff4exprRINtB5_4ExprRedENtNtNtCs2fyPGiZs4Bj_4core3ops5arith3Mul3mulB7_
FNDA:11,_RNvXsX_NtCsklZzBiyazXI_9qautodiff4exprRINtB5_4ExprRedEINtNtNtCs2fyPGiZs4Bj_4core3ops5arith3MulBB_E3mulB7_
FNDA:13,_RNvXs13_NtCsklZzBiyazXI_9qautodiff4exprINtB6_4ExprRedENtNtNtCs2fyPGiZs4Bj_4core3ops5arith3Div3divB8_
FNDA:51,_RNvXs15_NtCsklZzBiyazXI_9qautodiff4exprINtB6_4ExprRedEINtNtNtCs2fyPGiZs4Bj_4core3ops5arith3DivRBB_E3divB8_
FNDA:19,_RNvXs17_NtCsklZzBiyazXI_9qautodiff4exprRINtB6_4ExprRedENtNtNtCs2fyPGiZs4Bj_4core3ops5arith3Div3divB8_
FNDA:7,_RNvXs19_NtCsklZzBiyazXI_9qautodiff4exprRINtB6_4ExprRedEINtNtNtCs2fyPGiZs4Bj_4core3ops5arith3DivBC_E3divB8_
FNDA:12,_RNvXs1f_NtCsklZzBiyazXI_9qautodiff4exprINtB6_4ExprRedENtNtNtCsiuWCqEApz1O_5qmath3num13elementary_fn3Exp3expB8_
FNDA:7,_RNvXs1g_NtCsklZzBiyazXI_9qautodiff4exprINtB6_4ExprRedENtNtNtCsiuWCqEApz1O_5qmath3num13elementary_fn3Log3logB8_
FNDA:4,_RNvXs1h_NtCsklZzBiyazXI_9qautodiff4exprINtB6_4ExprRedENtNtNtCsiuWCqEApz1O_5qmath3num13elementary_fn3Erf3erfB8_
FNDA:4,_RNvXs1i_NtCsklZzBiyazXI_9qautodiff4exprINtB6_4ExprRedENtNtNtCsiuWCqEApz1O_5qmath3num13elementary_fn4Sqrt4sqrtB8_
FNDA:1,_RNvNtNtNtCsklZzBiyazXI_9qautodiff4expr5tests8test_fmts_6case_1
FNDA:1,_RNvNtNtNtCsklZzBiyazXI_9qautodiff4expr5tests8test_fmts_6case_2
FNDA:1,_RNvNtNtNtCsklZzBiyazXI_9qautodiff4expr5tests8test_fmts_6case_3
FNDA:1,_RNvNtNtNtCsklZzBiyazXI_9qautodiff4expr5tests8test_fmts_6case_4
FNDA:1,_RNvNtNtNtCsklZzBiyazXI_9qautodiff4expr5tests9test_mulrs_7case_01
FNDA:1,_RNvNtNtNtCsklZzBiyazXI_9qautodiff4expr5tests9test_mulrs_7case_02
FNDA:1,_RNvNtNtNtCsklZzBiyazXI_9qautodiff4expr5tests9test_mulrs_7case_03
FNDA:1,_RNvNtNtNtCsklZzBiyazXI_9qautodiff4expr5tests9test_mulrs_7case_04
FNDA:1,_RNvNtNtNtCsklZzBiyazXI_9qautodiff4expr5tests9test_mulrs_7case_05
FNDA:1,_RNvNtNtNtCsklZzBiyazXI_9qautodiff4expr5tests9test_mulrs_7case_06
FNDA:1,_RNvNtNtNtCsklZzBiyazXI_9qautodiff4expr5tests9test_mulrs_7case_07
FNDA:1,_RNvNtNtNtCsklZzBiyazXI_9qautodiff4expr5tests9test_mulrs_7case_08
FNDA:1,_RNvNtNtNtCsklZzBiyazXI_9qautodiff4expr5tests9test_mulrs_7case_09
FNDA:1,_RNvNtNtNtCsklZzBiyazXI_9qautodiff4expr5tests9test_mulrs_7case_10
FNDA:1,_RNvNtNtNtCsklZzBiyazXI_9qautodiff4expr5tests8test_erfs_6case_1
FNDA:1,_RNvNtNtNtCsklZzBiyazXI_9qautodiff4expr5tests8test_erfs_6case_2
FNDA:1,_RNvNtNtNtCsklZzBiyazXI_9qautodiff4expr5tests8test_erfs_6case_3
FNDA:1,_RNvNtNtNtCsklZzBiyazXI_9qautodiff4expr5tests8test_subs_7case_01
FNDA:1,_RNvNtNtNtCsklZzBiyazXI_9qautodiff4expr5tests8test_subs_7case_02
FNDA:1,_RNvNtNtNtCsklZzBiyazXI_9qautodiff4expr5tests8test_subs_7case_03
FNDA:1,_RNvNtNtNtCsklZzBiyazXI_9qautodiff4expr5tests8test_subs_7case_04
FNDA:1,_RNvNtNtNtCsklZzBiyazXI_9qautodiff4expr5tests8test_subs_7case_05
FNDA:1,_RNvNtNtNtCsklZzBiyazXI_9qautodiff4expr5tests8test_subs_7case_06
FNDA:1,_RNvNtNtNtCsklZzBiyazXI_9qautodiff4expr5tests8test_subs_7case_07
FNDA:1,_RNvNtNtNtCsklZzBiyazXI_9qautodiff4expr5tests8test_subs_7case_08
FNDA:1,_RNvNtNtNtCsklZzBiyazXI_9qautodiff4expr5tests8test_subs_7case_09
FNDA:1,_RNvNtNtNtCsklZzBiyazXI_9qautodiff4expr5tests8test_subs_7case_10
FNDA:1,_RNvNtNtNtCsklZzBiyazXI_9qautodiff4expr5tests8test_muls_7case_01
FNDA:1,_RNvNtNtNtCsklZzBiyazXI_9qautodiff4expr5tests8test_muls_7case_02
FNDA:1,_RNvNtNtNtCsklZzBiyazXI_9qautodiff4expr5tests8test_muls_7case_03
FNDA:1,_RNvNtNtNtCsklZzBiyazXI_9qautodiff4expr5tests8test_muls_7case_04
FNDA:1,_RNvNtNtNtCsklZzBiyazXI_9qautodiff4expr5tests8test_muls_7case_05
FNDA:1,_RNvNtNtNtCsklZzBiyazXI_9qautodiff4expr5tests8test_muls_7case_06
FNDA:1,_RNvNtNtNtCsklZzBiyazXI_9qautodiff4expr5tests8test_muls_7case_07
FNDA:1,_RNvNtNtNtCsklZzBiyazXI_9qautodiff4expr5tests8test_muls_7case_08
FNDA:1,_RNvNtNtNtCsklZzBiyazXI_9qautodiff4expr5tests8test_muls_7case_09
FNDA:1,_RNvNtNtNtCsklZzBiyazXI_9qautodiff4expr5tests8test_muls_7case_10
FNDA:1,_RNvNtNtNtCsklZzBiyazXI_9qautodiff4expr5tests8test_cmps_7case_01
FNDA:1,_RNvNtNtNtCsklZzBiyazXI_9qautodiff4expr5tests8test_cmps_7case_02
FNDA:1,_RNvNtNtNtCsklZzBiyazXI_9qautodiff4expr5tests8test_cmps_7case_03
FNDA:1,_RNvNtNtNtCsklZzBiyazXI_9qautodiff4expr5tests8test_cmps_7case_04
FNDA:1,_RNvNtNtNtCsklZzBiyazXI_9qautodiff4expr5tests8test_cmps_7case_05
FNDA:1,_RNvNtNtNtCsklZzBiyazXI_9qautodiff4expr5tests8test_cmps_7case_06
FNDA:1,_RNvNtNtNtCsklZzBiyazXI_9qautodiff4expr5tests8test_cmps_7case_07
FNDA:1,_RNvNtNtNtCsklZzBiyazXI_9qautodiff4expr5tests8test_cmps_7case_08
FNDA:1,_RNvNtNtNtCsklZzBiyazXI_9qautodiff4expr5tests8test_cmps_7case_09
FNDA:1,_RNvNtNtNtCsklZzBiyazXI_9qautodiff4expr5tests8test_cmps_7case_10
FNDA:1,_RNvNtNtNtCsklZzBiyazXI_9qautodiff4expr5tests8test_cmps_7case_11
FNDA:1,_RNvNtNtNtCsklZzBiyazXI_9qautodiff4expr5tests8test_cmps_7case_12
FNDA:1,_RNvNtNtNtCsklZzBiyazXI_9qautodiff4expr5tests8test_cmps_7case_13
FNDA:1,_RNvNtNtNtCsklZzBiyazXI_9qautodiff4expr5tests8test_cmps_7case_14
FNDA:1,_RNvNtNtNtCsklZzBiyazXI_9qautodiff4expr5tests8test_cmps_7case_15
FNDA:1,_RNvNtNtNtCsklZzBiyazXI_9qautodiff4expr5tests8test_cmps_7case_16
FNDA:1,_RNvNtNtNtCsklZzBiyazXI_9qautodiff4expr5tests8test_cmps_7case_17
FNDA:1,_RNvNtNtNtCsklZzBiyazXI_9qautodiff4expr5tests8test_cmps_7case_18
FNDA:1,_RNvNtNtNtCsklZzBiyazXI_9qautodiff4expr5tests8test_cmps_7case_19
FNDA:1,_RNvNtNtNtCsklZzBiyazXI_9qautodiff4expr5tests8test_cmps_7case_20
FNDA:1,_RNvNtNtNtCsklZzBiyazXI_9qautodiff4expr5tests8test_cmps_7case_21
FNDA:1,_RNvNtNtNtCsklZzBiyazXI_9qautodiff4expr5tests8test_cmps_7case_22
FNDA:1,_RNvNtNtNtCsklZzBiyazXI_9qautodiff4expr5tests8test_cmps_7case_23
FNDA:1,_RNvNtNtNtCsklZzBiyazXI_9qautodiff4expr5tests8test_cmps_7case_24
FNDA:1,_RNvNtNtNtCsklZzBiyazXI_9qautodiff4expr5tests8test_cmps_7case_25
FNDA:1,_RNvNtNtNtCsklZzBiyazXI_9qautodiff4expr5tests8test_cmps_7case_26
FNDA:1,_RNvNtNtNtCsklZzBiyazXI_9qautodiff4expr5tests8test_cmps_7case_27
FNDA:1,_RNvNtNtNtCsklZzBiyazXI_9qautodiff4expr5tests8test_cmps_7case_28
FNDA:1,_RNvNtNtNtCsklZzBiyazXI_9qautodiff4expr5tests9test_mulls_7case_01
FNDA:1,_RNvNtNtNtCsklZzBiyazXI_9qautodiff4expr5tests9test_mulls_7case_02
FNDA:1,_RNvNtNtNtCsklZzBiyazXI_9qautodiff4expr5tests9test_mulls_7case_03
FNDA:1,_RNvNtNtNtCsklZzBiyazXI_9qautodiff4expr5tests9test_mulls_7case_04
FNDA:1,_RNvNtNtNtCsklZzBiyazXI_9qautodiff4expr5tests9test_mulls_7case_05
FNDA:1,_RNvNtNtNtCsklZzBiyazXI_9qautodiff4expr5tests9test_mulls_7case_06
FNDA:1,_RNvNtNtNtCsklZzBiyazXI_9qautodiff4expr5tests9test_mulls_7case_07
FNDA:1,_RNvNtNtNtCsklZzBiyazXI_9qautodiff4expr5tests9test_mulls_7case_08
FNDA:1,_RNvNtNtNtCsklZzBiyazXI_9qautodiff4expr5tests9test_mulls_7case_09
FNDA:1,_RNvNtNtNtCsklZzBiyazXI_9qautodiff4expr5tests9test_mulls_7case_10
FNDA:1,_RNvNtNtNtCsklZzBiyazXI_9qautodiff4expr5tests9test_sqrts_6case_1
FNDA:1,_RNvNtNtNtCsklZzBiyazXI_9qautodiff4expr5tests9test_sqrts_6case_2
FNDA:1,_RNvNtNtNtCsklZzBiyazXI_9qautodiff4expr5tests9test_sqrts_6case_3
FNDA:1,_RNvNtNtNtCsklZzBiyazXI_9qautodiff4expr5tests8test_adds_7case_01
FNDA:1,_RNvNtNtNtCsklZzBiyazXI_9qautodiff4expr5tests8test_adds_7case_02
FNDA:1,_RNvNtNtNtCsklZzBiyazXI_9qautodiff4expr5tests8test_adds_7case_03
FNDA:1,_RNvNtNtNtCsklZzBiyazXI_9qautodiff4expr5tests8test_adds_7case_04
FNDA:1,_RNvNtNtNtCsklZzBiyazXI_9qautodiff4expr5tests8test_adds_7case_05
FNDA:1,_RNvNtNtNtCsklZzBiyazXI_9qautodiff4expr5tests8test_adds_7case_06
FNDA:1,_RNvNtNtNtCsklZzBiyazXI_9qautodiff4expr5tests8test_adds_7case_07
FNDA:1,_RNvNtNtNtCsklZzBiyazXI_9qautodiff4expr5tests8test_adds_7case_08
FNDA:1,_RNvNtNtNtCsklZzBiyazXI_9qautodiff4expr5tests8test_adds_7case_09
FNDA:1,_RNvNtNtNtCsklZzBiyazXI_9qautodiff4expr5tests8test_adds_7case_10
FNDA:1,_RNvNtNtNtCsklZzBiyazXI_9qautodiff4expr5tests7test_eqs_7case_01
FNDA:1,_RNvNtNtNtCsklZzBiyazXI_9qautodiff4expr5tests7test_eqs_7case_02
FNDA:1,_RNvNtNtNtCsklZzBiyazXI_9qautodiff4expr5tests7test_eqs_7case_03
FNDA:1,_RNvNtNtNtCsklZzBiyazXI_9qautodiff4expr5tests7test_eqs_7case_04
FNDA:1,_RNvNtNtNtCsklZzBiyazXI_9qautodiff4expr5tests7test_eqs_7case_05
FNDA:1,_RNvNtNtNtCsklZzBiyazXI_9qautodiff4expr5tests7test_eqs_7case_06
FNDA:1,_RNvNtNtNtCsklZzBiyazXI_9qautodiff4expr5tests7test_eqs_7case_07
FNDA:1,_RNvNtNtNtCsklZzBiyazXI_9qautodiff4expr5tests7test_eqs_7case_08
FNDA:1,_RNvNtNtNtCsklZzBiyazXI_9qautodiff4expr5tests7test_eqs_7case_09
FNDA:1,_RNvNtNtNtCsklZzBiyazXI_9qautodiff4expr5tests7test_eqs_7case_10
FNDA:1,_RNvNtNtNtCsklZzBiyazXI_9qautodiff4expr5tests7test_eqs_7case_11
FNDA:1,_RNvNtNtNtCsklZzBiyazXI_9qautodiff4expr5tests7test_eqs_7case_12
FNDA:1,_RNvNtNtNtCsklZzBiyazXI_9qautodiff4expr5tests7test_eqs_7case_13
FNDA:1,_RNvNtNtNtCsklZzBiyazXI_9qautodiff4expr5tests7test_eqs_7case_14
FNDA:1,_RNvNtNtNtCsklZzBiyazXI_9qautodiff4expr5tests7test_eqs_7case_15
FNDA:1,_RNvNtNtNtCsklZzBiyazXI_9qautodiff4expr5tests7test_eqs_7case_16
FNDA:1,_RNvNtNtNtCsklZzBiyazXI_9qautodiff4expr5tests7test_eqs_7case_17
FNDA:1,_RNvNtNtNtCsklZzBiyazXI_9qautodiff4expr5tests7test_eqs_7case_18
FNDA:1,_RNvNtNtNtCsklZzBiyazXI_9qautodiff4expr5tests7test_eqs_7case_19
FNDA:1,_RNvNtNtNtCsklZzBiyazXI_9qautodiff4expr5tests7test_eqs_7case_20
FNDA:1,_RNvNtNtNtCsklZzBiyazXI_9qautodiff4expr5tests7test_eqs_7case_21
FNDA:1,_RNvNtNtNtCsklZzBiyazXI_9qautodiff4expr5tests7test_eqs_7case_22
FNDA:1,_RNvNtNtNtCsklZzBiyazXI_9qautodiff4expr5tests7test_eqs_7case_23
FNDA:1,_RNvNtNtNtCsklZzBiyazXI_9qautodiff4expr5tests7test_eqs_7case_24
FNDA:1,_RNvNtNtNtCsklZzBiyazXI_9qautodiff4expr5tests7test_eqs_7case_25
FNDA:1,_RNvNtNtNtCsklZzBiyazXI_9qautodiff4expr5tests7test_eqs_7case_26
FNDA:1,_RNvNtNtNtCsklZzBiyazXI_9qautodiff4expr5tests7test_eqs_7case_27
FNDA:1,_RNvNtNtNtCsklZzBiyazXI_9qautodiff4expr5tests7test_eqs_7case_28
FNDA:1,_RNvNtNtNtCsklZzBiyazXI_9qautodiff4expr5tests8test_negs_6case_1
FNDA:1,_RNvNtNtNtCsklZzBiyazXI_9qautodiff4expr5tests8test_negs_6case_2
FNDA:1,_RNvNtNtNtCsklZzBiyazXI_9qautodiff4expr5tests8test_negs_6case_3
FNDA:1,_RNvNtNtNtCsklZzBiyazXI_9qautodiff4expr5tests8test_negs_6case_4
FNDA:1,_RNvNtNtNtCsklZzBiyazXI_9qautodiff4expr5tests9test_addls_7case_01
FNDA:1,_RNvNtNtNtCsklZzBiyazXI_9qautodiff4expr5tests9test_addls_7case_02
FNDA:1,_RNvNtNtNtCsklZzBiyazXI_9qautodiff4expr5tests9test_addls_7case_03
FNDA:1,_RNvNtNtNtCsklZzBiyazXI_9qautodiff4expr5tests9test_addls_7case_04
FNDA:1,_RNvNtNtNtCsklZzBiyazXI_9qautodiff4expr5tests9test_addls_7case_05
FNDA:1,_RNvNtNtNtCsklZzBiyazXI_9qautodiff4expr5tests9test_addls_7case_06
FNDA:1,_RNvNtNtNtCsklZzBiyazXI_9qautodiff4expr5tests9test_addls_7case_07
FNDA:1,_RNvNtNtNtCsklZzBiyazXI_9qautodiff4expr5tests9test_addls_7case_08
FNDA:1,_RNvNtNtNtCsklZzBiyazXI_9qautodiff4expr5tests9test_addls_7case_09
FNDA:1,_RNvNtNtNtCsklZzBiyazXI_9qautodiff4expr5tests9test_addls_7case_10
FNDA:1,_RNvNtNtNtCsklZzBiyazXI_9qautodiff4expr5tests9test_clogs_6case_1
FNDA:1,_RNvNtNtNtCsklZzBiyazXI_9qautodiff4expr5tests9test_clogs_6case_2
FNDA:1,_RNvNtNtNtCsklZzBiyazXI_9qautodiff4expr5tests9test_clogs_6case_3
FNDA:1,_RNvNtNtNtCsklZzBiyazXI_9qautodiff4expr5tests9test_cdivs_6case_1
FNDA:1,_RNvNtNtNtCsklZzBiyazXI_9qautodiff4expr5tests9test_cdivs_6case_2
FNDA:1,_RNvNtNtNtCsklZzBiyazXI_9qautodiff4expr5tests9test_cdivs_6case_3
FNDA:1,_RNvNtNtNtCsklZzBiyazXI_9qautodiff4expr5tests9test_cdivs_6case_4
FNDA:1,_RNvNtNtNtCsklZzBiyazXI_9qautodiff4expr5tests9test_cdivs_6case_5
FNDA:1,_RNvNtNtNtCsklZzBiyazXI_9qautodiff4expr5tests9test_cdivs_6case_6
FNDA:0,_RNvXININtCsklZzBiyazXI_9qautodiff4exprsa_0ppEINtB5_4ExprppENtNtCs2fyPGiZs4Bj_4core3cmp3Ord3cmpB7_
FNDA:0,_RNCNvXININtCsklZzBiyazXI_9qautodiff4exprsa_0ppEINtB7_4ExprppENtNtCs2fyPGiZs4Bj_4core3cmp3Ord3cmp0B9_
FNDA:0,_RNCNCNvXININtCsklZzBiyazXI_9qautodiff4exprsa_0ppEINtB9_4ExprppENtNtCs2fyPGiZs4Bj_4core3cmp3Ord3cmp00Bb_
FNDA:0,_RNvXININtCsklZzBiyazXI_9qautodiff4exprsf_0ppEINtB5_4ExprppENtNtNtCsiuWCqEApz1O_5qmath3num7algebra10FloatBased25nearest_base_float_of_f64B7_
FNDA:0,_RNvXININtCsklZzBiyazXI_9qautodiff4exprsy_0ppERINtB5_4ExprppEINtNtNtCs2fyPGiZs4Bj_4core3ops5arith3AddRpE3addB7_
FNDA:0,_RNvXININtCsklZzBiyazXI_9qautodiff4exprsA_0ppERINtB5_4ExprppEINtNtNtCs2fyPGiZs4Bj_4core3ops5arith3AddpE3addB7_
FNDA:0,_RNvXININtCsklZzBiyazXI_9qautodiff4exprsB_0ppEINtB5_4ExprppENtNtNtCs2fyPGiZs4Bj_4core3ops5arith9AddAssign10add_assignB7_
FNDA:0,_RNvXININtCsklZzBiyazXI_9qautodiff4exprsC_0ppEINtB5_4ExprppEINtNtNtCs2fyPGiZs4Bj_4core3ops5arith9AddAssignpE10add_assignB7_
FNDA:0,_RNvXININtCsklZzBiyazXI_9qautodiff4exprsD_0ppEINtB5_4ExprppEINtNtNtCs2fyPGiZs4Bj_4core3ops5arith9AddAssignRBH_E10add_assignB7_
FNDA:0,_RNvXININtCsklZzBiyazXI_9qautodiff4exprsE_0ppEINtB5_4ExprppEINtNtNtCs2fyPGiZs4Bj_4core3ops5arith9AddAssignRpE10add_assignB7_
FNDA:0,_RNvXININtCsklZzBiyazXI_9qautodiff4exprsG_0ppEINtB5_4ExprppEINtNtNtCs2fyPGiZs4Bj_4core3ops5arith3SubpE3subB7_
FNDA:0,_RNvXININtCsklZzBiyazXI_9qautodiff4exprsI_0ppEINtB5_4ExprppEINtNtNtCs2fyPGiZs4Bj_4core3ops5arith3SubRpE3subB7_
FNDA:0,_RNvXININtCsklZzBiyazXI_9qautodiff4exprsK_0ppERINtB5_4ExprppEINtNtNtCs2fyPGiZs4Bj_4core3ops5arith3SubRpE3subB7_
FNDA:0,_RNvXININtCsklZzBiyazXI_9qautodiff4exprsM_0ppERINtB5_4ExprppEINtNtNtCs2fyPGiZs4Bj_4core3ops5arith3SubpE3subB7_
FNDA:0,_RNvXININtCsklZzBiyazXI_9qautodiff4exprsN_0ppEINtB5_4ExprppENtNtNtCs2fyPGiZs4Bj_4core3ops5arith9SubAssign10sub_assignB7_
FNDA:0,_RNvXININtCsklZzBiyazXI_9qautodiff4exprsO_0ppEINtB5_4ExprppEINtNtNtCs2fyPGiZs4Bj_4core3ops5arith9SubAssignpE10sub_assignB7_
FNDA:0,_RNvXININtCsklZzBiyazXI_9qautodiff4exprsP_0ppEINtB5_4ExprppEINtNtNtCs2fyPGiZs4Bj_4core3ops5arith9SubAssignRBH_E10sub_assignB7_
FNDA:0,_RNvXININtCsklZzBiyazXI_9qautodiff4exprsQ_0ppEINtB5_4ExprppEINtNtNtCs2fyPGiZs4Bj_4core3ops5arith9SubAssignRpE10sub_assignB7_
FNDA:0,_RNvXININtCsklZzBiyazXI_9qautodiff4exprsS_0ppEINtB5_4ExprppEINtNtNtCs2fyPGiZs4Bj_4core3ops5arith3MulpE3mulB7_
FNDA:0,_RNvXININtCsklZzBiyazXI_9qautodiff4exprsU_0ppEINtB5_4ExprppEINtNtNtCs2fyPGiZs4Bj_4core3ops5arith3MulRpE3mulB7_
FNDA:0,_RNvXININtCsklZzBiyazXI_9qautodiff4exprsW_0ppERINtB5_4ExprppEINtNtNtCs2fyPGiZs4Bj_4core3ops5arith3MulRpE3mulB7_
FNDA:0,_RNvXININtCsklZzBiyazXI_9qautodiff4exprsY_0ppERINtB5_4ExprppEINtNtNtCs2fyPGiZs4Bj_4core3ops5arith3MulpE3mulB7_
FNDA:0,_RNvXININtCsklZzBiyazXI_9qautodiff4exprsZ_0ppEINtB5_4ExprppENtNtNtCs2fyPGiZs4Bj_4core3ops5arith9MulAssign10mul_assignB7_
FNDA:0,_RNvXININtCsklZzBiyazXI_9qautodiff4exprs10_0ppEINtB5_4ExprppEINtNtNtCs2fyPGiZs4Bj_4core3ops5arith9MulAssignpE10mul_assignB7_
FNDA:0,_RNvXININtCsklZzBiyazXI_9qautodiff4exprs11_0ppEINtB5_4ExprppEINtNtNtCs2fyPGiZs4Bj_4core3ops5arith9MulAssignRBI_E10mul_assignB7_
FNDA:0,_RNvXININtCsklZzBiyazXI_9qautodiff4exprs12_0ppEINtB5_4ExprppEINtNtNtCs2fyPGiZs4Bj_4core3ops5arith9MulAssignRpE10mul_assignB7_
FNDA:0,_RNvXININtCsklZzBiyazXI_9qautodiff4exprs14_0ppEINtB5_4ExprppEINtNtNtCs2fyPGiZs4Bj_4core3ops5arith3DivpE3divB7_
FNDA:0,_RNvXININtCsklZzBiyazXI_9qautodiff4exprs16_0ppEINtB5_4ExprppEINtNtNtCs2fyPGiZs4Bj_4core3ops5arith3DivRpE3divB7_
FNDA:0,_RNvXININtCsklZzBiyazXI_9qautodiff4exprs18_0ppERINtB5_4ExprppEINtNtNtCs2fyPGiZs4Bj_4core3ops5arith3DivRpE3divB7_
FNDA:0,_RNvXININtCsklZzBiyazXI_9qautodiff4exprs1a_0ppERINtB5_4ExprppEINtNtNtCs2fyPGiZs4Bj_4core3ops5arith3DivpE3divB7_
FNDA:0,_RNvXININtCsklZzBiyazXI_9qautodiff4exprs1b_0ppEINtB5_4ExprppENtNtNtCs2fyPGiZs4Bj_4core3ops5arith9DivAssign10div_assignB7_
FNDA:0,_RNvXININtCsklZzBiyazXI_9qautodiff4exprs1c_0ppEINtB5_4ExprppEINtNtNtCs2fyPGiZs4Bj_4core3ops5arith9DivAssignpE10div_assignB7_
FNDA:0,_RNvXININtCsklZzBiyazXI_9qautodiff4exprs1d_0ppEINtB5_4ExprppEINtNtNtCs2fyPGiZs4Bj_4core3ops5arith9DivAssignRBI_E10div_assignB7_
FNDA:0,_RNvXININtCsklZzBiyazXI_9qautodiff4exprs1e_0ppEINtB5_4ExprppEINtNtNtCs2fyPGiZs4Bj_4core3ops5arith9DivAssignRpE10div_assignB7_
FNDA:1,_RNvNtNtNtCsklZzBiyazXI_9qautodiff4expr5tests9test_addrs_7case_01
FNDA:1,_RNvNtNtNtCsklZzBiyazXI_9qautodiff4expr5tests9test_addrs_7case_02
FNDA:1,_RNvNtNtNtCsklZzBiyazXI_9qautodiff4expr5tests9test_addrs_7case_03
FNDA:1,_RNvNtNtNtCsklZzBiyazXI_9qautodiff4expr5tests9test_addrs_7case_04
FNDA:1,_RNvNtNtNtCsklZzBiyazXI_9qautodiff4expr5tests9test_addrs_7case_05
FNDA:1,_RNvNtNtNtCsklZzBiyazXI_9qautodiff4expr5tests9test_addrs_7case_06
FNDA:1,_RNvNtNtNtCsklZzBiyazXI_9qautodiff4expr5tests9test_addrs_7case_07
FNDA:1,_RNvNtNtNtCsklZzBiyazXI_9qautodiff4expr5tests9test_addrs_7case_08
FNDA:1,_RNvNtNtNtCsklZzBiyazXI_9qautodiff4expr5tests9test_addrs_7case_09
FNDA:1,_RNvNtNtNtCsklZzBiyazXI_9qautodiff4expr5tests9test_addrs_7case_10
FNDA:1,_RNvNtNtNtCsklZzBiyazXI_9qautodiff4expr5tests9test_powis_7case_01
FNDA:1,_RNvNtNtNtCsklZzBiyazXI_9qautodiff4expr5tests9test_powis_7case_02
FNDA:1,_RNvNtNtNtCsklZzBiyazXI_9qautodiff4expr5tests9test_powis_7case_03
FNDA:1,_RNvNtNtNtCsklZzBiyazXI_9qautodiff4expr5tests9test_powis_7case_04
FNDA:1,_RNvNtNtNtCsklZzBiyazXI_9qautodiff4expr5tests9test_powis_7case_05
FNDA:1,_RNvNtNtNtCsklZzBiyazXI_9qautodiff4expr5tests9test_powis_7case_06
FNDA:1,_RNvNtNtNtCsklZzBiyazXI_9qautodiff4expr5tests9test_powis_7case_07
FNDA:1,_RNvNtNtNtCsklZzBiyazXI_9qautodiff4expr5tests9test_powis_7case_08
FNDA:1,_RNvNtNtNtCsklZzBiyazXI_9qautodiff4expr5tests9test_powis_7case_09
FNDA:1,_RNvNtNtNtCsklZzBiyazXI_9qautodiff4expr5tests9test_powis_7case_10
FNDA:1,_RNvNtNtNtCsklZzBiyazXI_9qautodiff4expr5tests9test_powis_7case_11
FNDA:1,_RNvNtNtNtCsklZzBiyazXI_9qautodiff4expr5tests9test_powis_7case_12
FNDA:1,_RNvNtNtNtCsklZzBiyazXI_9qautodiff4expr5tests9test_cnegs_6case_1
FNDA:1,_RNvNtNtNtCsklZzBiyazXI_9qautodiff4expr5tests9test_cnegs_6case_2
FNDA:1,_RNvNtNtNtCsklZzBiyazXI_9qautodiff4expr5tests9test_cnegs_6case_3
FNDA:1,_RNvNtNtNtCsklZzBiyazXI_9qautodiff4expr5tests9test_cnegs_6case_4
FNDA:1,_RNvNtNtNtCsklZzBiyazXI_9qautodiff4expr5tests9test_cadds_7case_01
FNDA:1,_RNvNtNtNtCsklZzBiyazXI_9qautodiff4expr5tests9test_cadds_7case_02
FNDA:1,_RNvNtNtNtCsklZzBiyazXI_9qautodiff4expr5tests9test_cadds_7case_03
FNDA:1,_RNvNtNtNtCsklZzBiyazXI_9qautodiff4expr5tests9test_cadds_7case_04
FNDA:1,_RNvNtNtNtCsklZzBiyazXI_9qautodiff4expr5tests9test_cadds_7case_05
FNDA:1,_RNvNtNtNtCsklZzBiyazXI_9qautodiff4expr5tests9test_cadds_7case_06
FNDA:1,_RNvNtNtNtCsklZzBiyazXI_9qautodiff4expr5tests9test_cadds_7case_07
FNDA:1,_RNvNtNtNtCsklZzBiyazXI_9qautodiff4expr5tests9test_cadds_7case_08
FNDA:1,_RNvNtNtNtCsklZzBiyazXI_9qautodiff4expr5tests9test_cadds_7case_09
FNDA:1,_RNvNtNtNtCsklZzBiyazXI_9qautodiff4expr5tests9test_cadds_7case_10
FNDA:1,_RNvNtNtNtCsklZzBiyazXI_9qautodiff4expr5tests9test_cmuls_7case_01
FNDA:1,_RNvNtNtNtCsklZzBiyazXI_9qautodiff4expr5tests9test_cmuls_7case_02
FNDA:1,_RNvNtNtNtCsklZzBiyazXI_9qautodiff4expr5tests9test_cmuls_7case_03
FNDA:1,_RNvNtNtNtCsklZzBiyazXI_9qautodiff4expr5tests9test_cmuls_7case_04
FNDA:1,_RNvNtNtNtCsklZzBiyazXI_9qautodiff4expr5tests9test_cmuls_7case_05
FNDA:1,_RNvNtNtNtCsklZzBiyazXI_9qautodiff4expr5tests9test_cmuls_7case_06
FNDA:1,_RNvNtNtNtCsklZzBiyazXI_9qautodiff4expr5tests9test_cmuls_7case_07
FNDA:1,_RNvNtNtNtCsklZzBiyazXI_9qautodiff4expr5tests9test_cmuls_7case_08
FNDA:1,_RNvNtNtNtCsklZzBiyazXI_9qautodiff4expr5tests9test_cmuls_7case_09
FNDA:1,_RNvNtNtNtCsklZzBiyazXI_9qautodiff4expr5tests9test_cmuls_7case_10
FNDA:1,_RNvNtNtNtCsklZzBiyazXI_9qautodiff4expr5tests9test_subrs_7case_01
FNDA:1,_RNvNtNtNtCsklZzBiyazXI_9qautodiff4expr5tests9test_subrs_7case_02
FNDA:1,_RNvNtNtNtCsklZzBiyazXI_9qautodiff4expr5tests9test_subrs_7case_03
FNDA:1,_RNvNtNtNtCsklZzBiyazXI_9qautodiff4expr5tests9test_subrs_7case_04
FNDA:1,_RNvNtNtNtCsklZzBiyazXI_9qautodiff4expr5tests9test_subrs_7case_05
FNDA:1,_RNvNtNtNtCsklZzBiyazXI_9qautodiff4expr5tests9test_subrs_7case_06
FNDA:1,_RNvNtNtNtCsklZzBiyazXI_9qautodiff4expr5tests9test_subrs_7case_07
FNDA:1,_RNvNtNtNtCsklZzBiyazXI_9qautodiff4expr5tests9test_subrs_7case_08
FNDA:1,_RNvNtNtNtCsklZzBiyazXI_9qautodiff4expr5tests9test_subrs_7case_09
FNDA:1,_RNvNtNtNtCsklZzBiyazXI_9qautodiff4expr5tests9test_subrs_7case_10
FNDA:1,_RNvNtNtNtCsklZzBiyazXI_9qautodiff4expr5tests8test_exps_6case_1
FNDA:1,_RNvNtNtNtCsklZzBiyazXI_9qautodiff4expr5tests8test_exps_6case_2
FNDA:1,_RNvNtNtNtCsklZzBiyazXI_9qautodiff4expr5tests8test_exps_6case_3
FNDA:1,_RNvNtNtNtCsklZzBiyazXI_9qautodiff4expr5tests8test_exps_6case_4
FNDA:1,_RNvNtNtNtCsklZzBiyazXI_9qautodiff4expr5tests8test_divs_6case_1
FNDA:1,_RNvNtNtNtCsklZzBiyazXI_9qautodiff4expr5tests8test_divs_6case_2
FNDA:1,_RNvNtNtNtCsklZzBiyazXI_9qautodiff4expr5tests8test_divs_6case_3
FNDA:1,_RNvNtNtNtCsklZzBiyazXI_9qautodiff4expr5tests8test_divs_6case_4
FNDA:1,_RNvNtNtNtCsklZzBiyazXI_9qautodiff4expr5tests8test_divs_6case_5
FNDA:1,_RNvNtNtNtCsklZzBiyazXI_9qautodiff4expr5tests8test_divs_6case_6
FNDA:1,_RNvNtNtNtCsklZzBiyazXI_9qautodiff4expr5tests9test_subls_7case_01
FNDA:1,_RNvNtNtNtCsklZzBiyazXI_9qautodiff4expr5tests9test_subls_7case_02
FNDA:1,_RNvNtNtNtCsklZzBiyazXI_9qautodiff4expr5tests9test_subls_7case_03
FNDA:1,_RNvNtNtNtCsklZzBiyazXI_9qautodiff4expr5tests9test_subls_7case_04
FNDA:1,_RNvNtNtNtCsklZzBiyazXI_9qautodiff4expr5tests9test_subls_7case_05
FNDA:1,_RNvNtNtNtCsklZzBiyazXI_9qautodiff4expr5tests9test_subls_7case_06
FNDA:1,_RNvNtNtNtCsklZzBiyazXI_9qautodiff4expr5tests9test_subls_7case_07
FNDA:1,_RNvNtNtNtCsklZzBiyazXI_9qautodiff4expr5tests9test_subls_7case_08
FNDA:1,_RNvNtNtNtCsklZzBiyazXI_9qautodiff4expr5tests9test_subls_7case_09
FNDA:1,_RNvNtNtNtCsklZzBiyazXI_9qautodiff4expr5tests9test_subls_7case_10
FNDA:1,_RNvNtNtNtCsklZzBiyazXI_9qautodiff4expr5tests9test_divrs_6case_1
FNDA:1,_RNvNtNtNtCsklZzBiyazXI_9qautodiff4expr5tests9test_divrs_6case_2
FNDA:1,_RNvNtNtNtCsklZzBiyazXI_9qautodiff4expr5tests9test_divrs_6case_3
FNDA:1,_RNvNtNtNtCsklZzBiyazXI_9qautodiff4expr5tests9test_divrs_6case_4
FNDA:1,_RNvNtNtNtCsklZzBiyazXI_9qautodiff4expr5tests9test_divrs_6case_5
FNDA:1,_RNvNtNtNtCsklZzBiyazXI_9qautodiff4expr5tests9test_divrs_6case_6
FNDA:1,_RNvNtNtNtCsklZzBiyazXI_9qautodiff4expr5tests9test_cexps_6case_1
FNDA:1,_RNvNtNtNtCsklZzBiyazXI_9qautodiff4expr5tests9test_cexps_6case_2
FNDA:1,_RNvNtNtNtCsklZzBiyazXI_9qautodiff4expr5tests9test_cexps_6case_3
FNDA:1,_RNvNtNtNtCsklZzBiyazXI_9qautodiff4expr5tests9test_cexps_6case_4
FNDA:1,_RNvNtNtNtCsklZzBiyazXI_9qautodiff4expr5tests9test_divls_6case_1
FNDA:1,_RNvNtNtNtCsklZzBiyazXI_9qautodiff4expr5tests9test_divls_6case_2
FNDA:1,_RNvNtNtNtCsklZzBiyazXI_9qautodiff4expr5tests9test_divls_6case_3
FNDA:1,_RNvNtNtNtCsklZzBiyazXI_9qautodiff4expr5tests9test_divls_6case_4
FNDA:1,_RNvNtNtNtCsklZzBiyazXI_9qautodiff4expr5tests9test_divls_6case_5
FNDA:1,_RNvNtNtNtCsklZzBiyazXI_9qautodiff4expr5tests9test_divls_6case_6
FNDA:1,_RNvNtNtNtCsklZzBiyazXI_9qautodiff4expr5tests8test_logs_6case_1
FNDA:1,_RNvNtNtNtCsklZzBiyazXI_9qautodiff4expr5tests8test_logs_6case_2
FNDA:1,_RNvNtNtNtCsklZzBiyazXI_9qautodiff4expr5tests8test_logs_6case_3
FNDA:1,_RNvNtNtNtCsklZzBiyazXI_9qautodiff4expr5tests9test_csubs_7case_01
FNDA:1,_RNvNtNtNtCsklZzBiyazXI_9qautodiff4expr5tests9test_csubs_7case_02
FNDA:1,_RNvNtNtNtCsklZzBiyazXI_9qautodiff4expr5tests9test_csubs_7case_03
FNDA:1,_RNvNtNtNtCsklZzBiyazXI_9qautodiff4expr5tests9test_csubs_7case_04
FNDA:1,_RNvNtNtNtCsklZzBiyazXI_9qautodiff4expr5tests9test_csubs_7case_05
FNDA:1,_RNvNtNtNtCsklZzBiyazXI_9qautodiff4expr5tests9test_csubs_7case_06
FNDA:1,_RNvNtNtNtCsklZzBiyazXI_9qautodiff4expr5tests9test_csubs_7case_07
FNDA:1,_RNvNtNtNtCsklZzBiyazXI_9qautodiff4expr5tests9test_csubs_7case_08
FNDA:1,_RNvNtNtNtCsklZzBiyazXI_9qautodiff4expr5tests9test_csubs_7case_09
FNDA:1,_RNvNtNtNtCsklZzBiyazXI_9qautodiff4expr5tests9test_csubs_7case_10
FNF:83
FNH:73
DA:27,325
DA:28,325
DA:29,72
DA:30,253
DA:32,325
DA:37,230
DA:38,230
DA:39,0
DA:40,230
DA:42,230
DA:56,1
DA:57,1
DA:58,1
DA:63,333
DA:64,333
DA:65,333
DA:71,1
DA:72,1
DA:73,1
DA:79,1
DA:80,1
DA:81,1
DA:82,1
DA:83,1
DA:84,1
DA:85,1
DA:86,1
DA:92,14
DA:93,14
DA:94,14
DA:95,0
DA:97,14
DA:111,325
DA:112,325
DA:113,325
DA:124,4
DA:125,4
DA:126,4
DA:137,56
DA:138,56
DA:139,56
DA:140,56
DA:150,56
DA:151,56
DA:152,56
DA:153,56
DA:160,0
DA:161,0
DA:162,0
DA:163,0
DA:171,644
DA:172,644
DA:173,644
DA:178,249
DA:179,249
DA:180,249
DA:185,4
DA:186,4
DA:187,4
DA:196,334
DA:197,334
DA:198,334
DA:199,334
DA:200,334
DA:201,85
DA:202,249
DA:204,334
DA:208,345
DA:209,345
DA:210,345
DA:211,345
DA:212,345
DA:213,85
DA:214,260
DA:216,345
DA:221,1
DA:222,1
DA:223,1
DA:224,1
DA:225,1
DA:226,0
DA:227,1
DA:229,1
DA:233,1
DA:234,1
DA:235,1
DA:236,1
DA:237,1
DA:238,0
DA:239,1
DA:241,1
DA:245,1
DA:246,1
DA:247,1
DA:248,1
DA:249,1
DA:250,1
DA:251,0
DA:252,1
DA:254,1
DA:266,0
DA:267,0
DA:268,0
DA:276,1
DA:277,1
DA:278,1
DA:281,2
DA:282,2
DA:283,2
DA:291,1
DA:292,1
DA:293,1
DA:303,9
DA:304,9
DA:305,4
DA:306,5
DA:308,9
DA:318,5
DA:319,5
DA:320,5
DA:332,86
DA:333,86
DA:334,86
DA:343,1
DA:344,1
DA:345,1
DA:354,334
DA:355,334
DA:356,72
DA:357,76
DA:358,76
DA:360,77
DA:361,77
DA:363,109
DA:365,334
DA:374,1
DA:375,1
DA:376,0
DA:377,1
DA:379,1
DA:388,134
DA:389,134
DA:390,134
DA:399,0
DA:400,0
DA:401,0
DA:410,40
DA:411,40
DA:412,40
DA:421,0
DA:422,0
DA:423,0
DA:430,0
DA:431,0
DA:432,0
DA:439,0
DA:440,0
DA:441,0
DA:448,0
DA:449,0
DA:450,0
DA:457,0
DA:458,0
DA:459,0
DA:478,27
DA:479,27
DA:480,7
DA:481,20
DA:483,27
DA:500,14
DA:501,14
DA:502,0
DA:503,14
DA:505,14
DA:521,1
DA:522,1
DA:523,1
DA:524,1
DA:526,4
DA:538,4
DA:556,10
DA:586,10
DA:616,10
DA:646,10
DA:676,10
DA:706,10
DA:736,6
DA:762,6
DA:788,4
DA:806,3
DA:823,3
DA:843,3
DA:860,12
DA:886,10
DA:919,10
DA:952,10
DA:985,6
DA:1014,4
DA:1029,4
DA:1044,3
DA:1058,10
DA:1084,10
DA:1110,10
DA:1136,6
DA:1159,1
DA:1160,1
DA:1161,1
DA:1162,1
DA:1163,1
DA:1164,1
DA:1165,1
DA:1166,1
DA:1167,1
DA:1168,1
DA:1169,1
DA:1170,1
DA:1171,1
DA:1174,1
DA:1175,1
DA:1176,1
DA:1177,1
DA:1178,1
DA:1179,1
DA:1180,1
DA:1183,1
DA:1184,1
DA:1185,1
DA:1186,1
DA:1187,1
DA:1188,1
DA:1189,1
DA:1191,28
DA:1234,28
DA:1278,1
DA:1279,1
DA:1280,1
DA:1281,1
DA:1282,1
DA:1283,1
DA:1284,1
DA:1285,1
DA:1286,1
DA:1287,1
DA:1288,1
DA:1289,1
DA:1290,1
DA:1291,1
DA:1292,1
DA:1293,1
DA:1294,1
DA:1295,1
DA:1296,1
DA:1297,1
DA:1300,1
DA:1301,1
DA:1302,1
DA:1303,1
DA:1304,1
DA:1305,1
DA:1306,1
DA:1307,1
DA:1308,1
DA:1309,1
DA:1310,1
DA:1311,1
DA:1312,1
DA:1313,1
DA:1314,1
DA:1315,1
DA:1316,1
DA:1319,1
DA:1320,1
DA:1321,1
DA:1322,1
DA:1323,1
DA:1324,1
DA:1325,1
DA:1326,1
DA:1327,1
DA:1328,1
DA:1329,1
DA:1330,1
DA:1331,1
DA:1332,17
DA:1333,1
DA:1334,1
DA:1335,1
DA:1336,1
DA:1337,1
DA:1338,1
DA:1339,1
DA:1340,1
DA:1341,1
DA:1342,1
DA:1343,1
DA:1344,1
DA:1345,1
DA:1346,1
DA:1347,1
DA:1348,1
DA:1349,1
DA:1350,1
DA:1351,1
DA:1352,1
DA:1353,1
DA:1354,1
DA:1355,1
DA:1356,1
DA:1357,1
DA:1358,1
DA:1359,1
DA:1360,1
DA:1361,1
DA:1362,1
DA:1363,1
DA:1364,1
DA:1365,1
DA:1366,1
DA:1367,1
DA:1368,1
DA:1369,1
DA:1370,1
DA:1371,1
DA:1372,1
DA:1373,1
DA:1374,1
DA:1375,1
DA:1376,1
DA:1377,1
DA:1378,1
DA:1379,1
DA:1380,1
BRF:0
BRH:0
LF:340
LH:306
end_of_record
SF:/home/runner/work/qrs/qrs/libs/core/qautodiff/src/graph/grads.rs
FN:26,_RNvXNtNtCsklZzBiyazXI_9qautodiff5graph5gradsINtB2_12__GradCollectdEINtNtB4_4tape9__BackPropRedE7__on_varB6_
FN:72,_RNvXs_NtNtCsklZzBiyazXI_9qautodiff5graph5gradsINtB4_9__GradPooldENtNtCs2fyPGiZs4Bj_4core7default7Default7defaultB8_
FN:82,_RINvMs0_NtNtCsklZzBiyazXI_9qautodiff5graph5gradsINtB6_9__GradPooldE10__calc_gradReEBa_
FN:92,_RNCINvMs0_NtNtCsklZzBiyazXI_9qautodiff5graph5gradsINtB8_9__GradPooldE10__calc_gradReE0Bc_
FN:123,_RNvXs1_NtNtCsklZzBiyazXI_9qautodiff5graph5gradsINtB5_5GradsRedENtNtNtCs2fyPGiZs4Bj_4core3ops4drop4Drop4dropB9_
FN:149,_RNvMs3_NtNtCsklZzBiyazXI_9qautodiff5graph5gradsINtB5_5GradsRedE3wrtB9_
FN:164,_RINvMs3_NtNtCsklZzBiyazXI_9qautodiff5graph5gradsINtB6_5GradsRedE14collect_mappedNCINvB2_7collectINtNtNtNtCslBBi8AYJUtU_3std11collections4hash3map7HashMapBW_dEE0TBW_dEB1w_EBa_
FN:164,_RINvMs3_NtNtCsklZzBiyazXI_9qautodiff5graph5gradsINtB6_5GradsRedE14collect_mappedNCNvMs1_NtB8_4tapeINtB1o_4NodeBW_dE9__compresss_0dINtNtCse0qyoMp9HeL_5alloc3vec3VecdEEBa_
FN:174,_RNCINvMs3_NtNtCsklZzBiyazXI_9qautodiff5graph5gradsINtB8_5GradsRedE14collect_mappedNCINvB4_7collectINtNtNtNtCslBBi8AYJUtU_3std11collections4hash3map7HashMapBY_dEE0TBY_dEB1y_E0Bc_
FN:174,_RNCINvMs3_NtNtCsklZzBiyazXI_9qautodiff5graph5gradsINtB8_5GradsRedE14collect_mappedNCNvMs1_NtBa_4tapeINtB1q_4NodeBY_dE9__compresss_0dINtNtCse0qyoMp9HeL_5alloc3vec3VecdEE0Bc_
FN:182,_RINvMs3_NtNtCsklZzBiyazXI_9qautodiff5graph5gradsINtB6_5GradsRedE7collectINtNtNtNtCslBBi8AYJUtU_3std11collections4hash3map7HashMapBW_dEEBa_
FN:188,_RNCINvMs3_NtNtCsklZzBiyazXI_9qautodiff5graph5gradsINtB8_5GradsRedE7collectINtNtNtNtCslBBi8AYJUtU_3std11collections4hash3map7HashMapBY_dEE0Bc_
FN:211,_RNvMs4_NtNtCsklZzBiyazXI_9qautodiff5graph5gradsINtB5_10GradsAccumRedE3newB9_
FN:227,_RNvMs5_NtNtCsklZzBiyazXI_9qautodiff5graph5gradsINtB5_10GradsAccumRedE3wrtB9_
FN:239,_RINvMs5_NtNtCsklZzBiyazXI_9qautodiff5graph5gradsINtB6_10GradsAccumRedE7collectINtNtNtNtCslBBi8AYJUtU_3std11collections4hash3map7HashMapB12_dEEBa_
FN:249,_RNCINvMs5_NtNtCsklZzBiyazXI_9qautodiff5graph5gradsINtB8_10GradsAccumRedE7collectINtNtNtNtCslBBi8AYJUtU_3std11collections4hash3map7HashMapB14_dEE0Bc_
FN:266,_RINvMs5_NtNtCsklZzBiyazXI_9qautodiff5graph5gradsINtB6_10GradsAccumRedE5accumNCNvNtB6_5testss_20test_grads_accum_wrts_0EBa_
FN:266,_RINvMs5_NtNtCsklZzBiyazXI_9qautodiff5graph5gradsINtB6_10GradsAccumRedE5accumNCNvNtB6_5testss_24test_grads_accum_collects_0EBa_
FN:266,_RINvMs5_NtNtCsklZzBiyazXI_9qautodiff5graph5gradsINtB6_10GradsAccumRedE5accumNCNvNtB6_5testss_33test_grads_accum_wrt_external_vars_0EBa_
FN:134,_RNvXININtNtCsklZzBiyazXI_9qautodiff5graph5gradss2_0ppEINtB5_5GradsppENtNtCs2fyPGiZs4Bj_4core5clone5Clone5cloneB9_
FN:293,_RNvNtNtNtCsklZzBiyazXI_9qautodiff5graph5grads5testss_14test_grads_wrt
FN:313,_RNvNtNtNtCsklZzBiyazXI_9qautodiff5graph5grads5testss_28test_grads_wrt_exteranal_var
FN:331,_RNvNtNtNtCsklZzBiyazXI_9qautodiff5graph5grads5testss_20test_grads_accum_wrt
FN:336,_RNCNvNtNtNtCsklZzBiyazXI_9qautodiff5graph5grads5testss_20test_grads_accum_wrt0B9_
FN:343,_RNCNvNtNtNtCsklZzBiyazXI_9qautodiff5graph5grads5testss_20test_grads_accum_wrts_0B9_
FN:352,_RNvNtNtNtCsklZzBiyazXI_9qautodiff5graph5grads5testss_33test_grads_accum_wrt_external_var
FN:358,_RNCNvNtNtNtCsklZzBiyazXI_9qautodiff5graph5grads5testss_33test_grads_accum_wrt_external_var0B9_
FN:365,_RNCNvNtNtNtCsklZzBiyazXI_9qautodiff5graph5grads5testss_33test_grads_accum_wrt_external_vars_0B9_
FN:373,_RNvNtNtNtCsklZzBiyazXI_9qautodiff5graph5grads5testss_24test_grads_accum_collect
FN:378,_RNCNvNtNtNtCsklZzBiyazXI_9qautodiff5graph5grads5testss_24test_grads_accum_collect0B9_
FN:385,_RNCNvNtNtNtCsklZzBiyazXI_9qautodiff5graph5grads5testss_24test_grads_accum_collects_0B9_
FNDA:339,_RNvXNtNtCsklZzBiyazXI_9qautodiff5graph5gradsINtB2_12__GradCollectdEINtNtB4_4tape9__BackPropRedE7__on_varB6_
FNDA:234,_RNvXs_NtNtCsklZzBiyazXI_9qautodiff5graph5gradsINtB4_9__GradPooldENtNtCs2fyPGiZs4Bj_4core7default7Default7defaultB8_
FNDA:261,_RINvMs0_NtNtCsklZzBiyazXI_9qautodiff5graph5gradsINtB6_9__GradPooldE10__calc_gradReEBa_
FNDA:145,_RNCINvMs0_NtNtCsklZzBiyazXI_9qautodiff5graph5gradsINtB8_9__GradPooldE10__calc_gradReE0Bc_
FNDA:261,_RNvXs1_NtNtCsklZzBiyazXI_9qautodiff5graph5gradsINtB5_5GradsRedENtNtNtCs2fyPGiZs4Bj_4core3ops4drop4Drop4dropB9_
FNDA:4,_RNvMs3_NtNtCsklZzBiyazXI_9qautodiff5graph5gradsINtB5_5GradsRedE3wrtB9_
FNDA:249,_RINvMs3_NtNtCsklZzBiyazXI_9qautodiff5graph5gradsINtB6_5GradsRedE14collect_mappedNCINvB2_7collectINtNtNtNtCslBBi8AYJUtU_3std11collections4hash3map7HashMapBW_dEE0TBW_dEB1w_EBa_
FNDA:1,_RINvMs3_NtNtCsklZzBiyazXI_9qautodiff5graph5gradsINtB6_5GradsRedE14collect_mappedNCNvMs1_NtB8_4tapeINtB1o_4NodeBW_dE9__compresss_0dINtNtCse0qyoMp9HeL_5alloc3vec3VecdEEBa_
FNDA:324,_RNCINvMs3_NtNtCsklZzBiyazXI_9qautodiff5graph5gradsINtB8_5GradsRedE14collect_mappedNCINvB4_7collectINtNtNtNtCslBBi8AYJUtU_3std11collections4hash3map7HashMapBY_dEE0TBY_dEB1y_E0Bc_
FNDA:2,_RNCINvMs3_NtNtCsklZzBiyazXI_9qautodiff5graph5gradsINtB8_5GradsRedE14collect_mappedNCNvMs1_NtBa_4tapeINtB1q_4NodeBY_dE9__compresss_0dINtNtCse0qyoMp9HeL_5alloc3vec3VecdEE0Bc_
FNDA:249,_RINvMs3_NtNtCsklZzBiyazXI_9qautodiff5graph5gradsINtB6_5GradsRedE7collectINtNtNtNtCslBBi8AYJUtU_3std11collections4hash3map7HashMapBW_dEEBa_
FNDA:324,_RNCINvMs3_NtNtCsklZzBiyazXI_9qautodiff5graph5gradsINtB8_5GradsRedE7collectINtNtNtNtCslBBi8AYJUtU_3std11collections4hash3map7HashMapBY_dEE0Bc_
FNDA:3,_RNvMs4_NtNtCsklZzBiyazXI_9qautodiff5graph5gradsINtB5_10GradsAccumRedE3newB9_
FNDA:4,_RNvMs5_NtNtCsklZzBiyazXI_9qautodiff5graph5gradsINtB5_10GradsAccumRedE3wrtB9_
FNDA:1,_RINvMs5_NtNtCsklZzBiyazXI_9qautodiff5graph5gradsINtB6_10GradsAccumRedE7collectINtNtNtNtCslBBi8AYJUtU_3std11collections4hash3map7HashMapB12_dEEBa_
FNDA:3,_RNCINvMs5_NtNtCsklZzBiyazXI_9qautodiff5graph5gradsINtB8_10GradsAccumRedE7collectINtNtNtNtCslBBi8AYJUtU_3std11collections4hash3map7HashMapB14_dEE0Bc_
FNDA:3,_RINvMs5_NtNtCsklZzBiyazXI_9qautodiff5graph5gradsINtB6_10GradsAccumRedE5accumNCNvNtB6_5testss_20test_grads_accum_wrts_0EBa_
FNDA:3,_RINvMs5_NtNtCsklZzBiyazXI_9qautodiff5graph5gradsINtB6_10GradsAccumRedE5accumNCNvNtB6_5testss_24test_grads_accum_collects_0EBa_
FNDA:3,_RINvMs5_NtNtCsklZzBiyazXI_9qautodiff5graph5gradsINtB6_10GradsAccumRedE5accumNCNvNtB6_5testss_33test_grads_accum_wrt_external_vars_0EBa_
FNDA:0,_RNvXININtNtCsklZzBiyazXI_9qautodiff5graph5gradss2_0ppEINtB5_5GradsppENtNtCs2fyPGiZs4Bj_4core5clone5Clone5cloneB9_
FNDA:1,_RNvNtNtNtCsklZzBiyazXI_9qautodiff5graph5grads5testss_14test_grads_wrt
FNDA:1,_RNvNtNtNtCsklZzBiyazXI_9qautodiff5graph5grads5testss_28test_grads_wrt_exteranal_var
FNDA:1,_RNvNtNtNtCsklZzBiyazXI_9qautodiff5graph5grads5testss_20test_grads_accum_wrt
FNDA:3,_RNCNvNtNtNtCsklZzBiyazXI_9qautodiff5graph5grads5testss_20test_grads_accum_wrt0B9_
FNDA:6,_RNCNvNtNtNtCsklZzBiyazXI_9qautodiff5graph5grads5testss_20test_grads_accum_wrts_0B9_
FNDA:1,_RNvNtNtNtCsklZzBiyazXI_9qautodiff5graph5grads5testss_33test_grads_accum_wrt_external_var
FNDA:3,_RNCNvNtNtNtCsklZzBiyazXI_9qautodiff5graph5grads5testss_33test_grads_accum_wrt_external_var0B9_
FNDA:6,_RNCNvNtNtNtCsklZzBiyazXI_9qautodiff5graph5grads5testss_33test_grads_accum_wrt_external_vars_0B9_
FNDA:1,_RNvNtNtNtCsklZzBiyazXI_9qautodiff5graph5grads5testss_24test_grads_accum_collect
FNDA:3,_RNCNvNtNtNtCsklZzBiyazXI_9qautodiff5graph5grads5testss_24test_grads_accum_collect0B9_
FNDA:6,_RNCNvNtNtNtCsklZzBiyazXI_9qautodiff5graph5grads5testss_24test_grads_accum_collects_0B9_
FNF:27
FNH:26
DA:26,339
DA:27,339
DA:28,339
DA:29,339
DA:30,339
DA:31,339
DA:32,339
DA:33,339
DA:34,339
DA:35,297
DA:36,297
DA:37,339
DA:38,339
DA:39,339
DA:72,234
DA:73,234
DA:74,234
DA:75,234
DA:76,234
DA:77,234
DA:82,261
DA:83,261
DA:84,261
DA:85,261
DA:86,261
DA:87,261
DA:88,261
DA:89,261
DA:90,261
DA:91,261
DA:92,261
DA:93,145
DA:94,145
DA:95,145
DA:96,145
DA:97,145
DA:98,261
DA:99,261
DA:100,261
DA:101,261
DA:102,261
DA:103,261
DA:104,261
DA:105,261
DA:106,261
DA:107,261
DA:123,261
DA:124,261
DA:125,261
DA:126,261
DA:127,261
DA:128,261
DA:129,261
DA:134,0
DA:135,0
DA:136,0
DA:137,0
DA:138,0
DA:139,0
DA:140,0
DA:149,4
DA:150,4
DA:151,4
DA:152,4
DA:153,4
DA:154,1
DA:155,3
DA:156,3
DA:157,3
DA:158,3
DA:159,3
DA:160,4
DA:164,250
DA:165,250
DA:166,250
DA:167,250
DA:168,250
DA:169,250
DA:170,250
DA:171,250
DA:172,250
DA:173,250
DA:174,326
DA:175,326
DA:176,326
DA:177,326
DA:178,250
DA:179,250
DA:182,249
DA:183,249
DA:184,249
DA:185,249
DA:186,249
DA:187,249
DA:188,324
DA:189,249
DA:211,3
DA:212,3
DA:213,3
DA:214,3
DA:215,3
DA:216,3
DA:227,4
DA:228,4
DA:229,4
DA:230,4
DA:231,4
DA:232,1
DA:233,3
DA:234,3
DA:235,3
DA:236,4
DA:239,1
DA:240,1
DA:241,1
DA:242,1
DA:243,1
DA:244,1
DA:245,1
DA:246,1
DA:247,1
DA:248,1
DA:249,3
DA:250,3
DA:251,3
DA:252,3
DA:253,3
DA:254,3
DA:255,1
DA:256,1
DA:266,9
DA:267,9
DA:268,9
DA:269,9
DA:270,9
DA:271,9
DA:272,0
DA:273,9
DA:274,9
DA:275,9
DA:276,9
DA:277,9
DA:278,9
DA:279,18
DA:280,18
DA:281,18
DA:282,9
DA:283,9
DA:293,1
DA:294,1
DA:295,1
DA:296,1
DA:297,1
DA:298,1
DA:299,1
DA:300,1
DA:301,1
DA:302,1
DA:303,1
DA:304,1
DA:305,1
DA:306,1
DA:307,1
DA:308,1
DA:309,1
DA:310,1
DA:313,1
DA:314,1
DA:315,1
DA:316,1
DA:317,1
DA:318,1
DA:319,1
DA:320,1
DA:321,1
DA:322,1
DA:323,1
DA:324,1
DA:325,1
DA:326,1
DA:327,1
DA:328,1
DA:331,1
DA:332,1
DA:333,1
DA:334,1
DA:335,1
DA:336,3
DA:337,1
DA:338,1
DA:339,1
DA:340,4
DA:341,3
DA:342,3
DA:343,6
DA:344,3
DA:346,1
DA:347,1
DA:348,1
DA:349,1
DA:352,1
DA:353,1
DA:354,1
DA:355,1
DA:356,1
DA:357,1
DA:358,3
DA:359,1
DA:360,1
DA:361,1
DA:362,4
DA:363,3
DA:364,3
DA:365,6
DA:366,3
DA:369,1
DA:370,1
DA:373,1
DA:374,1
DA:375,1
DA:376,1
DA:377,1
DA:378,3
DA:379,1
DA:380,1
DA:381,1
DA:382,4
DA:383,3
DA:384,3
DA:385,6
DA:386,3
DA:388,1
DA:389,1
DA:390,1
DA:391,1
DA:392,1
DA:393,1
BRF:0
BRH:0
LF:250
LH:242
end_of_record
SF:/home/runner/work/qrs/qrs/libs/core/qautodiff/src/graph/graph_impl.rs
FN:27,_RNvXNtNtCsklZzBiyazXI_9qautodiff5graph10graph_implINtB2_5GraphRedENtNtCs2fyPGiZs4Bj_4core5clone5Clone5cloneB6_
FN:44,_RNvMs0_NtNtCsklZzBiyazXI_9qautodiff5graph10graph_implINtB5_5GraphRedE3newB9_
FN:57,_RNvMs1_NtNtCsklZzBiyazXI_9qautodiff5graph10graph_implINtB5_5GraphRedE10create_varB9_
FN:68,_RNvMs1_NtNtCsklZzBiyazXI_9qautodiff5graph10graph_implINtB5_5GraphRedE6ptr_eqB9_
FN:73,_RNvMs1_NtNtCsklZzBiyazXI_9qautodiff5graph10graph_implINtB5_5GraphRedE15gen_grads_accumB9_
FN:81,_RNvMs2_NtNtCsklZzBiyazXI_9qautodiff5graph10graph_implINtB5_5GraphRedE10__debug_ptrB9_
FN:37,_RNvXININtNtCsklZzBiyazXI_9qautodiff5graph10graph_impls_0ppEINtB5_5GraphppENtNtCs2fyPGiZs4Bj_4core7default7Default7defaultB9_
FN:91,_RNvNtNtNtCsklZzBiyazXI_9qautodiff5graph10graph_impl5testss_15test_create_var
FN:101,_RNvNtNtNtCsklZzBiyazXI_9qautodiff5graph10graph_impl5testss_34test_create_var_err_already_exists
FN:112,_RNvNtNtNtCsklZzBiyazXI_9qautodiff5graph10graph_impl5testss_11test_ptr_eq
FN:120,_RNvNtNtNtCsklZzBiyazXI_9qautodiff5graph10graph_impl5testss_12test_ptr_neq
FNDA:1162,_RNvXNtNtCsklZzBiyazXI_9qautodiff5graph10graph_implINtB2_5GraphRedENtNtCs2fyPGiZs4Bj_4core5clone5Clone5cloneB6_
FNDA:234,_RNvMs0_NtNtCsklZzBiyazXI_9qautodiff5graph10graph_implINtB5_5GraphRedE3newB9_
FNDA:342,_RNvMs1_NtNtCsklZzBiyazXI_9qautodiff5graph10graph_implINtB5_5GraphRedE10create_varB9_
FNDA:128,_RNvMs1_NtNtCsklZzBiyazXI_9qautodiff5graph10graph_implINtB5_5GraphRedE6ptr_eqB9_
FNDA:3,_RNvMs1_NtNtCsklZzBiyazXI_9qautodiff5graph10graph_implINtB5_5GraphRedE15gen_grads_accumB9_
FNDA:0,_RNvMs2_NtNtCsklZzBiyazXI_9qautodiff5graph10graph_implINtB5_5GraphRedE10__debug_ptrB9_
FNDA:0,_RNvXININtNtCsklZzBiyazXI_9qautodiff5graph10graph_impls_0ppEINtB5_5GraphppENtNtCs2fyPGiZs4Bj_4core7default7Default7defaultB9_
FNDA:1,_RNvNtNtNtCsklZzBiyazXI_9qautodiff5graph10graph_impl5testss_15test_create_var
FNDA:1,_RNvNtNtNtCsklZzBiyazXI_9qautodiff5graph10graph_impl5testss_34test_create_var_err_already_exists
FNDA:1,_RNvNtNtNtCsklZzBiyazXI_9qautodiff5graph10graph_impl5testss_11test_ptr_eq
FNDA:1,_RNvNtNtNtCsklZzBiyazXI_9qautodiff5graph10graph_impl5testss_12test_ptr_neq
FNF:11
FNH:9
DA:27,1162
DA:28,1162
DA:29,1162
DA:37,0
DA:38,0
DA:39,0
DA:44,234
DA:45,234
DA:46,234
DA:47,234
DA:48,234
DA:49,234
DA:50,234
DA:57,342
DA:58,342
DA:59,342
DA:60,342
DA:61,342
DA:62,342
DA:68,128
DA:69,128
DA:70,128
DA:73,3
DA:74,3
DA:75,3
DA:81,0
DA:82,0
DA:83,0
DA:91,1
DA:92,1
DA:93,1
DA:94,1
DA:95,1
DA:96,1
DA:97,1
DA:98,1
DA:101,1
DA:102,1
DA:103,1
DA:104,1
DA:105,1
DA:106,1
DA:107,1
DA:108,1
DA:109,1
DA:112,1
DA:113,1
DA:114,1
DA:115,1
DA:116,1
DA:117,1
DA:120,1
DA:121,1
DA:122,1
DA:123,1
DA:124,1
DA:125,1
BRF:0
BRH:0
LF:57
LH:51
end_of_record
SF:/home/runner/work/qrs/qrs/libs/core/qautodiff/src/graph/tape.rs
FN:1800,_RNvNtNtNtCsklZzBiyazXI_9qautodiff5graph4tape5testss_15test_refcnt_var
FN:1834,_RNvNtNtNtCsklZzBiyazXI_9qautodiff5graph4tape5testss_15test_refcnt_neg
FN:1857,_RNvNtNtNtCsklZzBiyazXI_9qautodiff5graph4tape5testss_16test_refcnt_addl
FN:1880,_RNvNtNtNtCsklZzBiyazXI_9qautodiff5graph4tape5testss_16test_refcnt_addr
FN:1903,_RNvNtNtNtCsklZzBiyazXI_9qautodiff5graph4tape5testss_16test_refcnt_subl
FN:1926,_RNvNtNtNtCsklZzBiyazXI_9qautodiff5graph4tape5testss_16test_refcnt_subr
FN:1949,_RNvNtNtNtCsklZzBiyazXI_9qautodiff5graph4tape5testss_16test_refcnt_mull
FN:1972,_RNvNtNtNtCsklZzBiyazXI_9qautodiff5graph4tape5testss_16test_refcnt_mulr
FN:1995,_RNvNtNtNtCsklZzBiyazXI_9qautodiff5graph4tape5testss_16test_refcnt_divl
FN:2018,_RNvNtNtNtCsklZzBiyazXI_9qautodiff5graph4tape5testss_16test_refcnt_divr
FN:2041,_RNvNtNtNtCsklZzBiyazXI_9qautodiff5graph4tape5testss_15test_refcnt_exp
FN:2064,_RNvNtNtNtCsklZzBiyazXI_9qautodiff5graph4tape5testss_15test_refcnt_log
FN:2087,_RNvNtNtNtCsklZzBiyazXI_9qautodiff5graph4tape5testss_15test_refcnt_erf
FN:2110,_RNvNtNtNtCsklZzBiyazXI_9qautodiff5graph4tape5testss_16test_refcnt_sqrt
FN:2133,_RNvNtNtNtCsklZzBiyazXI_9qautodiff5graph4tape5testss_16test_refcnt_powi
FN:2156,_RNvNtNtNtCsklZzBiyazXI_9qautodiff5graph4tape5testss_15test_refcnt_add
FN:2182,_RNvNtNtNtCsklZzBiyazXI_9qautodiff5graph4tape5testss_15test_refcnt_sub
FN:2208,_RNvNtNtNtCsklZzBiyazXI_9qautodiff5graph4tape5testss_15test_refcnt_mul
FN:2234,_RNvNtNtNtCsklZzBiyazXI_9qautodiff5graph4tape5testss_15test_refcnt_div
FN:2260,_RNvNtNtNtCsklZzBiyazXI_9qautodiff5graph4tape5testss_26test_refcnt_recursive_decl
FN:2288,_RNvNtNtNtCsklZzBiyazXI_9qautodiff5graph4tape5testss_22test_reuse_vacant_cell
FN:46,_RNvMNtNtCsklZzBiyazXI_9qautodiff5graph4tapeINtB2_5__NodedE5valueB6_
FN:83,_RNvXs_NtNtCsklZzBiyazXI_9qautodiff5graph4tapeINtB4_4NodeRedENtNtCs2fyPGiZs4Bj_4core5clone5Clone5cloneB8_
FN:94,_RNvXs0_NtNtCsklZzBiyazXI_9qautodiff5graph4tapeINtB5_4NodeRedENtNtNtCs2fyPGiZs4Bj_4core3ops4drop4Drop4dropB9_
FN:104,_RINvMs1_NtNtCsklZzBiyazXI_9qautodiff5graph4tapeINtB6_4NodeRedE16__indirectly_readINtNtCs2fyPGiZs4Bj_4core6option6OptionNtNtB1m_3cmp8OrderingENCNCNvXs9_NtBa_4exprINtB2p_4ExprBU_dENtB1V_10PartialOrd11partial_cmp00EBa_
FN:104,_RINvMs1_NtNtCsklZzBiyazXI_9qautodiff5graph4tapeINtB6_4NodeRedE16__indirectly_readINtNtCs2fyPGiZs4Bj_4core6option6OptionNtNtB1m_3cmp8OrderingENCNvXs9_NtBa_4exprINtB2n_4ExprBU_dENtB1V_10PartialOrd11partial_cmp0EBa_
FN:104,_RINvMs1_NtNtCsklZzBiyazXI_9qautodiff5graph4tapeINtB6_4NodeRedE16__indirectly_readINtNtCs2fyPGiZs4Bj_4core6result6ResultuNtNtB1m_3fmt5ErrorENCNvXs6_NtBa_4exprINtB2l_4ExprBU_dENtB1W_7Display3fmt0EBa_
FN:104,_RINvMs1_NtNtCsklZzBiyazXI_9qautodiff5graph4tapeINtB6_4NodeRedE16__indirectly_readbNCNCNvXs7_NtBa_4exprINtB1s_4ExprBU_dENtNtCs2fyPGiZs4Bj_4core3cmp9PartialEq2eq00EBa_
FN:104,_RINvMs1_NtNtCsklZzBiyazXI_9qautodiff5graph4tapeINtB6_4NodeRedE16__indirectly_readbNCNvXs7_NtBa_4exprINtB1q_4ExprBU_dENtNtCs2fyPGiZs4Bj_4core3cmp9PartialEq2eq0EBa_
FN:104,_RINvMs1_NtNtCsklZzBiyazXI_9qautodiff5graph4tapeINtB6_4NodeRedE16__indirectly_readbNvYdNtNtCs3hlyyetf6no_10num_traits10identities4Zero7is_zeroEBa_
FN:104,_RINvMs1_NtNtCsklZzBiyazXI_9qautodiff5graph4tapeINtB6_4NodeRedE16__indirectly_readdNCNvB2_9__compress0EBa_
FN:104,_RINvMs1_NtNtCsklZzBiyazXI_9qautodiff5graph4tapeINtB6_4NodeRedE16__indirectly_readdNvYdNtNtCs2fyPGiZs4Bj_4core5clone5Clone5cloneEBa_
FN:109,_RNvMs1_NtNtCsklZzBiyazXI_9qautodiff5graph4tapeINtB5_4NodeRedE4__keyB9_
FN:117,_RNvMs1_NtNtCsklZzBiyazXI_9qautodiff5graph4tapeINtB5_4NodeRedE6__graphB9_
FN:122,_RNvMs1_NtNtCsklZzBiyazXI_9qautodiff5graph4tapeINtB5_4NodeRedE6__gradsB9_
FN:137,_RNvMs1_NtNtCsklZzBiyazXI_9qautodiff5graph4tapeINtB5_4NodeRedE7__varidxB9_
FN:146,_RNvMs1_NtNtCsklZzBiyazXI_9qautodiff5graph4tapeINtB5_4NodeRedE9__compressB9_
FN:151,_RNCNvMs1_NtNtCsklZzBiyazXI_9qautodiff5graph4tapeINtB7_4NodeRedE9__compress0Bb_
FN:152,_RNCNvMs1_NtNtCsklZzBiyazXI_9qautodiff5graph4tapeINtB7_4NodeRedE9__compresss_0Bb_
FN:162,_RNvMs1_NtNtCsklZzBiyazXI_9qautodiff5graph4tapeINtB5_4NodeRedE7__dotizeB9_
FN:177,_RNCNvMs1_NtNtCsklZzBiyazXI_9qautodiff5graph4tapeINtB7_4NodeRedE7__dotize0Bb_
FN:184,_RNCNvMs1_NtNtCsklZzBiyazXI_9qautodiff5graph4tapeINtB7_4NodeRedE7__dotizes_0Bb_
FN:201,_RNvMs2_NtNtCsklZzBiyazXI_9qautodiff5graph4tapeINtB5_4NodeRedE11__create_varB9_
FN:385,_RNvYINtNtNtCsklZzBiyazXI_9qautodiff5graph4tape14__GraphvizGraphRedEINtB5_9__BackPropBZ_dE8__on_powiB9_
FN:445,_RNvYINtNtNtCsklZzBiyazXI_9qautodiff5graph4tape14__GraphvizGraphRedEINtB5_9__BackPropBZ_dE14__on_compressedB9_
FN:466,_RNvXs3_NtNtCsklZzBiyazXI_9qautodiff5graph4tapeINtB5_18__BackPropWorkSpacedENtNtCs2fyPGiZs4Bj_4core7default7Default7defaultB9_
FN:480,_RINvMs4_NtNtCsklZzBiyazXI_9qautodiff5graph4tapeINtB6_18__BackPropWorkSpacedE10__count_refReEBa_
FN:544,_RNCINvMs4_NtNtCsklZzBiyazXI_9qautodiff5graph4tapeINtB8_18__BackPropWorkSpacedE10__count_refReE0Bc_
FN:552,_RINvMs4_NtNtCsklZzBiyazXI_9qautodiff5graph4tapeINtB6_18__BackPropWorkSpacedE10__back_propReINtB6_14__GraphvizGraphB1p_dEEBa_
FN:552,_RINvMs4_NtNtCsklZzBiyazXI_9qautodiff5graph4tapeINtB6_18__BackPropWorkSpacedE10__back_propReINtNtB8_5grads12__GradCollectdEEBa_
FN:607,_RNCINvMs4_NtNtCsklZzBiyazXI_9qautodiff5graph4tapeINtB8_18__BackPropWorkSpacedE10__back_propReINtB8_14__GraphvizGraphB1r_dEE0Bc_
FN:607,_RNCINvMs4_NtNtCsklZzBiyazXI_9qautodiff5graph4tapeINtB8_18__BackPropWorkSpacedE10__back_propReINtNtBa_5grads12__GradCollectdEE0Bc_
FN:824,_RNvXs5_NtNtCsklZzBiyazXI_9qautodiff5graph4tapeINtB5_5__TapeRedENtNtCs2fyPGiZs4Bj_4core7default7Default7defaultB9_
FN:836,_RNvMs6_NtNtCsklZzBiyazXI_9qautodiff5graph4tapeINtB5_5__TapeRedE5__varsB9_
FN:843,_RNvMs7_NtNtCsklZzBiyazXI_9qautodiff5graph4tapeINtB5_5__TapeRedE5__cellB9_
FN:852,_RNvMs7_NtNtCsklZzBiyazXI_9qautodiff5graph4tapeINtB5_5__TapeRedE4__keyB9_
FN:854,_RNCNvMs7_NtNtCsklZzBiyazXI_9qautodiff5graph4tapeINtB7_5__TapeRedE4__key0Bb_
FN:859,_RNvMs7_NtNtCsklZzBiyazXI_9qautodiff5graph4tapeINtB5_5__TapeRedE8__reg_varB9_
FN:863,_RNCNvMs7_NtNtCsklZzBiyazXI_9qautodiff5graph4tapeINtB7_5__TapeRedE8__reg_var0Bb_
FN:879,_RNvMs7_NtNtCsklZzBiyazXI_9qautodiff5graph4tapeINtB5_5__TapeRedE9__reg_nodeB9_
FN:893,_RNvMs7_NtNtCsklZzBiyazXI_9qautodiff5graph4tapeINtB5_5__TapeRedE12__incl_refcntB9_
FN:898,_RNvMs7_NtNtCsklZzBiyazXI_9qautodiff5graph4tapeINtB5_5__TapeRedE12__decl_refcntB9_
FN:965,_RINvMs7_NtNtCsklZzBiyazXI_9qautodiff5graph4tapeINtB6_5__TapeRedE11__make_unaryNCNvXs8_B6_RINtB6_4NodeBW_dENtNtNtCs2fyPGiZs4Bj_4core3ops5arith3Neg3neg0EBa_
FN:965,_RINvMs7_NtNtCsklZzBiyazXI_9qautodiff5graph4tapeINtB6_5__TapeRedE11__make_unaryNCNvXs9_B6_INtB6_4NodeBW_dENtNtNtCsiuWCqEApz1O_5qmath3num13elementary_fn4Powi4powi0EBa_
FN:965,_RINvMs7_NtNtCsklZzBiyazXI_9qautodiff5graph4tapeINtB6_5__TapeRedE11__make_unaryNCNvXsB_B6_RINtB6_4NodeBW_dEINtNtNtCs2fyPGiZs4Bj_4core3ops5arith3MulINtB6_6ScalarRdEE3mul0EBa_
FN:965,_RINvMs7_NtNtCsklZzBiyazXI_9qautodiff5graph4tapeINtB6_5__TapeRedE11__make_unaryNCNvXsC_B6_INtB6_6ScalardEINtNtNtCs2fyPGiZs4Bj_4core3ops5arith3MulRINtB6_4NodeBW_dEE3mul0EBa_
FN:965,_RINvMs7_NtNtCsklZzBiyazXI_9qautodiff5graph4tapeINtB6_5__TapeRedE11__make_unaryNCNvXsF_B6_RINtB6_4NodeBW_dEINtNtNtCs2fyPGiZs4Bj_4core3ops5arith3DivINtB6_6ScalarRdEE3div0EBa_
FN:965,_RINvMs7_NtNtCsklZzBiyazXI_9qautodiff5graph4tapeINtB6_5__TapeRedE11__make_unaryNCNvXsG_B6_INtB6_6ScalardEINtNtNtCs2fyPGiZs4Bj_4core3ops5arith3DivRINtB6_4NodeBW_dEE3div0EBa_
FN:965,_RINvMs7_NtNtCsklZzBiyazXI_9qautodiff5graph4tapeINtB6_5__TapeRedE11__make_unaryNCNvXsI_B6_INtB6_4NodeBW_dENtNtNtCsiuWCqEApz1O_5qmath3num13elementary_fn3Exp3exp0EBa_
FN:965,_RINvMs7_NtNtCsklZzBiyazXI_9qautodiff5graph4tapeINtB6_5__TapeRedE11__make_unaryNCNvXsJ_B6_INtB6_4NodeBW_dENtNtNtCsiuWCqEApz1O_5qmath3num13elementary_fn3Log3log0EBa_
FN:965,_RINvMs7_NtNtCsklZzBiyazXI_9qautodiff5graph4tapeINtB6_5__TapeRedE11__make_unaryNCNvXsK_B6_INtB6_4NodeBW_dENtNtNtCsiuWCqEApz1O_5qmath3num13elementary_fn3Erf3erf0EBa_
FN:965,_RINvMs7_NtNtCsklZzBiyazXI_9qautodiff5graph4tapeINtB6_5__TapeRedE11__make_unaryNCNvXsL_B6_INtB6_4NodeBW_dENtNtNtCsiuWCqEApz1O_5qmath3num13elementary_fn4Sqrt4sqrt0EBa_
FN:965,_RINvMs7_NtNtCsklZzBiyazXI_9qautodiff5graph4tapeINtB6_5__TapeRedE11__make_unaryNCNvXst_B6_RINtB6_4NodeBW_dEINtNtNtCs2fyPGiZs4Bj_4core3ops5arith3AddINtB6_6ScalarRdEE3add0EBa_
FN:965,_RINvMs7_NtNtCsklZzBiyazXI_9qautodiff5graph4tapeINtB6_5__TapeRedE11__make_unaryNCNvXsu_B6_INtB6_6ScalardEINtNtNtCs2fyPGiZs4Bj_4core3ops5arith3AddRINtB6_4NodeBW_dEE3add0EBa_
FN:965,_RINvMs7_NtNtCsklZzBiyazXI_9qautodiff5graph4tapeINtB6_5__TapeRedE11__make_unaryNCNvXsx_B6_RINtB6_4NodeBW_dEINtNtNtCs2fyPGiZs4Bj_4core3ops5arith3SubINtB6_6ScalarRdEE3sub0EBa_
FN:965,_RINvMs7_NtNtCsklZzBiyazXI_9qautodiff5graph4tapeINtB6_5__TapeRedE11__make_unaryNCNvXsy_B6_INtB6_6ScalardEINtNtNtCs2fyPGiZs4Bj_4core3ops5arith3SubRINtB6_4NodeBW_dEE3sub0EBa_
FN:976,_RINvMs7_NtNtCsklZzBiyazXI_9qautodiff5graph4tapeINtB6_5__TapeRedE12__make_binaryNCNvXsA_B6_RINtB6_4NodeBW_dENtNtNtCs2fyPGiZs4Bj_4core3ops5arith3Mul3mul0EBa_
FN:976,_RINvMs7_NtNtCsklZzBiyazXI_9qautodiff5graph4tapeINtB6_5__TapeRedE12__make_binaryNCNvXsE_B6_RINtB6_4NodeBW_dENtNtNtCs2fyPGiZs4Bj_4core3ops5arith3Div3div0EBa_
FN:976,_RINvMs7_NtNtCsklZzBiyazXI_9qautodiff5graph4tapeINtB6_5__TapeRedE12__make_binaryNCNvXss_B6_RINtB6_4NodeBW_dENtNtNtCs2fyPGiZs4Bj_4core3ops5arith3Add3add0EBa_
FN:976,_RINvMs7_NtNtCsklZzBiyazXI_9qautodiff5graph4tapeINtB6_5__TapeRedE12__make_binaryNCNvXsw_B6_RINtB6_4NodeBW_dENtNtNtCs2fyPGiZs4Bj_4core3ops5arith3Sub3sub0EBa_
FN:1004,_RNvXs8_NtNtCsklZzBiyazXI_9qautodiff5graph4tapeRINtB5_4NodeRedENtNtNtCs2fyPGiZs4Bj_4core3ops5arith3Neg3negB9_
FN:1007,_RNCNvXs8_NtNtCsklZzBiyazXI_9qautodiff5graph4tapeRINtB7_4NodeRedENtNtNtCs2fyPGiZs4Bj_4core3ops5arith3Neg3neg0Bb_
FN:1152,_RNvXs9_NtNtCsklZzBiyazXI_9qautodiff5graph4tapeINtB5_4NodeRedENtNtNtCsiuWCqEApz1O_5qmath3num13elementary_fn4Powi4powiB9_
FN:1155,_RNCNvXs9_NtNtCsklZzBiyazXI_9qautodiff5graph4tapeINtB7_4NodeRedENtNtNtCsiuWCqEApz1O_5qmath3num13elementary_fn4Powi4powi0Bb_
FN:1191,_RNvXsa_NtNtCsklZzBiyazXI_9qautodiff5graph4tapeINtB5_14__GraphvizGraphRedENtNtCs2fyPGiZs4Bj_4core7default7Default7defaultB9_
FN:1201,_RNvMsb_NtNtCsklZzBiyazXI_9qautodiff5graph4tapeINtB5_14__GraphvizGraphRedE6__unaryB9_
FN:1225,_RNvMsb_NtNtCsklZzBiyazXI_9qautodiff5graph4tapeINtB5_14__GraphvizGraphRedE15__binary_partialB9_
FN:1260,_RNvMsb_NtNtCsklZzBiyazXI_9qautodiff5graph4tapeINtB5_14__GraphvizGraphRedE7__binaryB9_
FN:1300,_RNvXsc_NtNtCsklZzBiyazXI_9qautodiff5graph4tapeINtB5_14__GraphvizGraphRedEINtB5_9__BackPropB15_dE7__on_varB9_
FN:1318,_RNvXsc_NtNtCsklZzBiyazXI_9qautodiff5graph4tapeINtB5_14__GraphvizGraphRedEINtB5_9__BackPropB15_dE7__on_negB9_
FN:1330,_RNvXsc_NtNtCsklZzBiyazXI_9qautodiff5graph4tapeINtB5_14__GraphvizGraphRedEINtB5_9__BackPropB15_dE8__on_addlB9_
FN:1352,_RNvXsc_NtNtCsklZzBiyazXI_9qautodiff5graph4tapeINtB5_14__GraphvizGraphRedEINtB5_9__BackPropB15_dE8__on_addrB9_
FN:1374,_RNvXsc_NtNtCsklZzBiyazXI_9qautodiff5graph4tapeINtB5_14__GraphvizGraphRedEINtB5_9__BackPropB15_dE8__on_sublB9_
FN:1396,_RNvXsc_NtNtCsklZzBiyazXI_9qautodiff5graph4tapeINtB5_14__GraphvizGraphRedEINtB5_9__BackPropB15_dE8__on_subrB9_
FN:1418,_RNvXsc_NtNtCsklZzBiyazXI_9qautodiff5graph4tapeINtB5_14__GraphvizGraphRedEINtB5_9__BackPropB15_dE8__on_mullB9_
FN:1440,_RNvXsc_NtNtCsklZzBiyazXI_9qautodiff5graph4tapeINtB5_14__GraphvizGraphRedEINtB5_9__BackPropB15_dE8__on_mulrB9_
FN:1462,_RNvXsc_NtNtCsklZzBiyazXI_9qautodiff5graph4tapeINtB5_14__GraphvizGraphRedEINtB5_9__BackPropB15_dE8__on_divlB9_
FN:1484,_RNvXsc_NtNtCsklZzBiyazXI_9qautodiff5graph4tapeINtB5_14__GraphvizGraphRedEINtB5_9__BackPropB15_dE8__on_divrB9_
FN:1506,_RNvXsc_NtNtCsklZzBiyazXI_9qautodiff5graph4tapeINtB5_14__GraphvizGraphRedEINtB5_9__BackPropB15_dE7__on_expB9_
FN:1518,_RNvXsc_NtNtCsklZzBiyazXI_9qautodiff5graph4tapeINtB5_14__GraphvizGraphRedEINtB5_9__BackPropB15_dE7__on_logB9_
FN:1530,_RNvXsc_NtNtCsklZzBiyazXI_9qautodiff5graph4tapeINtB5_14__GraphvizGraphRedEINtB5_9__BackPropB15_dE7__on_erfB9_
FN:1542,_RNvXsc_NtNtCsklZzBiyazXI_9qautodiff5graph4tapeINtB5_14__GraphvizGraphRedEINtB5_9__BackPropB15_dE8__on_sqrtB9_
FN:1554,_RNvXsc_NtNtCsklZzBiyazXI_9qautodiff5graph4tapeINtB5_14__GraphvizGraphRedEINtB5_9__BackPropB15_dE7__on_addB9_
FN:1576,_RNvXsc_NtNtCsklZzBiyazXI_9qautodiff5graph4tapeINtB5_14__GraphvizGraphRedEINtB5_9__BackPropB15_dE7__on_subB9_
FN:1598,_RNvXsc_NtNtCsklZzBiyazXI_9qautodiff5graph4tapeINtB5_14__GraphvizGraphRedEINtB5_9__BackPropB15_dE7__on_mulB9_
FN:1620,_RNvXsc_NtNtCsklZzBiyazXI_9qautodiff5graph4tapeINtB5_14__GraphvizGraphRedEINtB5_9__BackPropB15_dE7__on_divB9_
FN:1658,_RINvMsd_NtNtCsklZzBiyazXI_9qautodiff5graph4tapeINtB6_15GraphvizBuilderRedNvYB16_NtNtCse0qyoMp9HeL_5alloc6string8ToString9to_stringuE20with_value_formatterNCNvNtNtBa_4expr5testss_13test_graphviz0EBa_
FN:1676,_RINvMse_NtNtCsklZzBiyazXI_9qautodiff5graph4tapeINtB6_15GraphvizBuilderReduuE18with_key_formatterNvYB16_NtNtCse0qyoMp9HeL_5alloc6string8ToString9to_stringEBa_
FN:1695,_RNvMsf_NtNtCsklZzBiyazXI_9qautodiff5graph4tapeINtB5_15GraphvizBuilderRedNvYB15_NtNtCse0qyoMp9HeL_5alloc6string8ToString9to_stringNCNvNtNtB9_4expr5testss_13test_graphviz0E9with_nameB9_
FN:1702,_RNvMsf_NtNtCsklZzBiyazXI_9qautodiff5graph4tapeINtB5_15GraphvizBuilderRedNvYB15_NtNtCse0qyoMp9HeL_5alloc6string8ToString9to_stringNCNvNtNtB9_4expr5testss_13test_graphviz0E18with_graph_settingB9_
FN:1710,_RNvMsf_NtNtCsklZzBiyazXI_9qautodiff5graph4tapeINtB5_15GraphvizBuilderRedNvYB15_NtNtCse0qyoMp9HeL_5alloc6string8ToString9to_stringNCNvNtNtB9_4expr5testss_13test_graphviz0E17with_node_settingB9_
FN:1717,_RNvMsf_NtNtCsklZzBiyazXI_9qautodiff5graph4tapeINtB5_15GraphvizBuilderRedNvYB15_NtNtCse0qyoMp9HeL_5alloc6string8ToString9to_stringNCNvNtNtB9_4expr5testss_13test_graphviz0E7gen_dotB9_
FN:1025,_RNvXss_NtNtCsklZzBiyazXI_9qautodiff5graph4tapeRINtB5_4NodeRedENtNtNtCs2fyPGiZs4Bj_4core3ops5arith3Add3addB9_
FN:1038,_RNCNvXss_NtNtCsklZzBiyazXI_9qautodiff5graph4tapeRINtB7_4NodeRedENtNtNtCs2fyPGiZs4Bj_4core3ops5arith3Add3add0Bb_
FN:1054,_RNvXst_NtNtCsklZzBiyazXI_9qautodiff5graph4tapeRINtB5_4NodeRedEINtNtNtCs2fyPGiZs4Bj_4core3ops5arith3AddINtB5_6ScalarRdEE3addB9_
FN:1059,_RNCNvXst_NtNtCsklZzBiyazXI_9qautodiff5graph4tapeRINtB7_4NodeRedEINtNtNtCs2fyPGiZs4Bj_4core3ops5arith3AddINtB7_6ScalarRdEE3add0Bb_
FN:1075,_RNvXsu_NtNtCsklZzBiyazXI_9qautodiff5graph4tapeINtB5_6ScalardEINtNtNtCs2fyPGiZs4Bj_4core3ops5arith3AddRINtB5_4NodeRedEE3addB9_
FN:1078,_RNCNvXsu_NtNtCsklZzBiyazXI_9qautodiff5graph4tapeINtB7_6ScalardEINtNtNtCs2fyPGiZs4Bj_4core3ops5arith3AddRINtB7_4NodeRedEE3add0Bb_
FN:1025,_RNvXsw_NtNtCsklZzBiyazXI_9qautodiff5graph4tapeRINtB5_4NodeRedENtNtNtCs2fyPGiZs4Bj_4core3ops5arith3Sub3subB9_
FN:1038,_RNCNvXsw_NtNtCsklZzBiyazXI_9qautodiff5graph4tapeRINtB7_4NodeRedENtNtNtCs2fyPGiZs4Bj_4core3ops5arith3Sub3sub0Bb_
FN:1054,_RNvXsx_NtNtCsklZzBiyazXI_9qautodiff5graph4tapeRINtB5_4NodeRedEINtNtNtCs2fyPGiZs4Bj_4core3ops5arith3SubINtB5_6ScalarRdEE3subB9_
FN:1059,_RNCNvXsx_NtNtCsklZzBiyazXI_9qautodiff5graph4tapeRINtB7_4NodeRedEINtNtNtCs2fyPGiZs4Bj_4core3ops5arith3SubINtB7_6ScalarRdEE3sub0Bb_
FN:1075,_RNvXsy_NtNtCsklZzBiyazXI_9qautodiff5graph4tapeINtB5_6ScalardEINtNtNtCs2fyPGiZs4Bj_4core3ops5arith3SubRINtB5_4NodeRedEE3subB9_
FN:1078,_RNCNvXsy_NtNtCsklZzBiyazXI_9qautodiff5graph4tapeINtB7_6ScalardEINtNtNtCs2fyPGiZs4Bj_4core3ops5arith3SubRINtB7_4NodeRedEE3sub0Bb_
FN:1025,_RNvXsA_NtNtCsklZzBiyazXI_9qautodiff5graph4tapeRINtB5_4NodeRedENtNtNtCs2fyPGiZs4Bj_4core3ops5arith3Mul3mulB9_
FN:1038,_RNCNvXsA_NtNtCsklZzBiyazXI_9qautodiff5graph4tapeRINtB7_4NodeRedENtNtNtCs2fyPGiZs4Bj_4core3ops5arith3Mul3mul0Bb_
FN:1054,_RNvXsB_NtNtCsklZzBiyazXI_9qautodiff5graph4tapeRINtB5_4NodeRedEINtNtNtCs2fyPGiZs4Bj_4core3ops5arith3MulINtB5_6ScalarRdEE3mulB9_
FN:1059,_RNCNvXsB_NtNtCsklZzBiyazXI_9qautodiff5graph4tapeRINtB7_4NodeRedEINtNtNtCs2fyPGiZs4Bj_4core3ops5arith3MulINtB7_6ScalarRdEE3mul0Bb_
FN:1075,_RNvXsC_NtNtCsklZzBiyazXI_9qautodiff5graph4tapeINtB5_6ScalardEINtNtNtCs2fyPGiZs4Bj_4core3ops5arith3MulRINtB5_4NodeRedEE3mulB9_
FN:1078,_RNCNvXsC_NtNtCsklZzBiyazXI_9qautodiff5graph4tapeINtB7_6ScalardEINtNtNtCs2fyPGiZs4Bj_4core3ops5arith3MulRINtB7_4NodeRedEE3mul0Bb_
FN:1025,_RNvXsE_NtNtCsklZzBiyazXI_9qautodiff5graph4tapeRINtB5_4NodeRedENtNtNtCs2fyPGiZs4Bj_4core3ops5arith3Div3divB9_
FN:1038,_RNCNvXsE_NtNtCsklZzBiyazXI_9qautodiff5graph4tapeRINtB7_4NodeRedENtNtNtCs2fyPGiZs4Bj_4core3ops5arith3Div3div0Bb_
FN:1054,_RNvXsF_NtNtCsklZzBiyazXI_9qautodiff5graph4tapeRINtB5_4NodeRedEINtNtNtCs2fyPGiZs4Bj_4core3ops5arith3DivINtB5_6ScalarRdEE3divB9_
FN:1059,_RNCNvXsF_NtNtCsklZzBiyazXI_9qautodiff5graph4tapeRINtB7_4NodeRedEINtNtNtCs2fyPGiZs4Bj_4core3ops5arith3DivINtB7_6ScalarRdEE3div0Bb_
FN:1075,_RNvXsG_NtNtCsklZzBiyazXI_9qautodiff5graph4tapeINtB5_6ScalardEINtNtNtCs2fyPGiZs4Bj_4core3ops5arith3DivRINtB5_4NodeRedEE3divB9_
FN:1078,_RNCNvXsG_NtNtCsklZzBiyazXI_9qautodiff5graph4tapeINtB7_6ScalardEINtNtNtCs2fyPGiZs4Bj_4core3ops5arith3DivRINtB7_4NodeRedEE3div0Bb_
FN:1126,_RNvXsI_NtNtCsklZzBiyazXI_9qautodiff5graph4tapeINtB5_4NodeRedENtNtNtCsiuWCqEApz1O_5qmath3num13elementary_fn3Exp3expB9_
FN:1129,_RNCNvXsI_NtNtCsklZzBiyazXI_9qautodiff5graph4tapeINtB7_4NodeRedENtNtNtCsiuWCqEApz1O_5qmath3num13elementary_fn3Exp3exp0Bb_
FN:1126,_RNvXsJ_NtNtCsklZzBiyazXI_9qautodiff5graph4tapeINtB5_4NodeRedENtNtNtCsiuWCqEApz1O_5qmath3num13elementary_fn3Log3logB9_
FN:1129,_RNCNvXsJ_NtNtCsklZzBiyazXI_9qautodiff5graph4tapeINtB7_4NodeRedENtNtNtCsiuWCqEApz1O_5qmath3num13elementary_fn3Log3log0Bb_
FN:1126,_RNvXsK_NtNtCsklZzBiyazXI_9qautodiff5graph4tapeINtB5_4NodeRedENtNtNtCsiuWCqEApz1O_5qmath3num13elementary_fn3Erf3erfB9_
FN:1129,_RNCNvXsK_NtNtCsklZzBiyazXI_9qautodiff5graph4tapeINtB7_4NodeRedENtNtNtCsiuWCqEApz1O_5qmath3num13elementary_fn3Erf3erf0Bb_
FN:1126,_RNvXsL_NtNtCsklZzBiyazXI_9qautodiff5graph4tapeINtB5_4NodeRedENtNtNtCsiuWCqEApz1O_5qmath3num13elementary_fn4Sqrt4sqrtB9_
FN:1129,_RNCNvXsL_NtNtCsklZzBiyazXI_9qautodiff5graph4tapeINtB7_4NodeRedENtNtNtCsiuWCqEApz1O_5qmath3num13elementary_fn4Sqrt4sqrt0Bb_
FN:234,_RNvYINtNtNtCsklZzBiyazXI_9qautodiff5graph5grads12__GradCollectdEINtNtB7_4tape9__BackPropRedE7__on_negB9_
FN:245,_RNvYINtNtNtCsklZzBiyazXI_9qautodiff5graph5grads12__GradCollectdEINtNtB7_4tape9__BackPropRedE8__on_addlB9_
FN:257,_RNvYINtNtNtCsklZzBiyazXI_9qautodiff5graph5grads12__GradCollectdEINtNtB7_4tape9__BackPropRedE8__on_addrB9_
FN:269,_RNvYINtNtNtCsklZzBiyazXI_9qautodiff5graph5grads12__GradCollectdEINtNtB7_4tape9__BackPropRedE8__on_sublB9_
FN:281,_RNvYINtNtNtCsklZzBiyazXI_9qautodiff5graph5grads12__GradCollectdEINtNtB7_4tape9__BackPropRedE8__on_subrB9_
FN:293,_RNvYINtNtNtCsklZzBiyazXI_9qautodiff5graph5grads12__GradCollectdEINtNtB7_4tape9__BackPropRedE8__on_mullB9_
FN:305,_RNvYINtNtNtCsklZzBiyazXI_9qautodiff5graph5grads12__GradCollectdEINtNtB7_4tape9__BackPropRedE8__on_mulrB9_
FN:317,_RNvYINtNtNtCsklZzBiyazXI_9qautodiff5graph5grads12__GradCollectdEINtNtB7_4tape9__BackPropRedE8__on_divlB9_
FN:329,_RNvYINtNtNtCsklZzBiyazXI_9qautodiff5graph5grads12__GradCollectdEINtNtB7_4tape9__BackPropRedE8__on_divrB9_
FN:341,_RNvYINtNtNtCsklZzBiyazXI_9qautodiff5graph5grads12__GradCollectdEINtNtB7_4tape9__BackPropRedE7__on_expB9_
FN:352,_RNvYINtNtNtCsklZzBiyazXI_9qautodiff5graph5grads12__GradCollectdEINtNtB7_4tape9__BackPropRedE7__on_logB9_
FN:363,_RNvYINtNtNtCsklZzBiyazXI_9qautodiff5graph5grads12__GradCollectdEINtNtB7_4tape9__BackPropRedE7__on_erfB9_
FN:374,_RNvYINtNtNtCsklZzBiyazXI_9qautodiff5graph5grads12__GradCollectdEINtNtB7_4tape9__BackPropRedE8__on_sqrtB9_
FN:385,_RNvYINtNtNtCsklZzBiyazXI_9qautodiff5graph5grads12__GradCollectdEINtNtB7_4tape9__BackPropRedE8__on_powiB9_
FN:397,_RNvYINtNtNtCsklZzBiyazXI_9qautodiff5graph5grads12__GradCollectdEINtNtB7_4tape9__BackPropRedE7__on_addB9_
FN:409,_RNvYINtNtNtCsklZzBiyazXI_9qautodiff5graph5grads12__GradCollectdEINtNtB7_4tape9__BackPropRedE7__on_subB9_
FN:421,_RNvYINtNtNtCsklZzBiyazXI_9qautodiff5graph5grads12__GradCollectdEINtNtB7_4tape9__BackPropRedE7__on_mulB9_
FN:433,_RNvYINtNtNtCsklZzBiyazXI_9qautodiff5graph5grads12__GradCollectdEINtNtB7_4tape9__BackPropRedE7__on_divB9_
FN:445,_RNvYINtNtNtCsklZzBiyazXI_9qautodiff5graph5grads12__GradCollectdEINtNtB7_4tape9__BackPropRedE14__on_compressedB9_
FN:222,_RNvYpINtNtNtCsklZzBiyazXI_9qautodiff5graph4tape9__BackPropppE7__on_varBa_
FN:1094,_RNvXININtNtCsklZzBiyazXI_9qautodiff5graph4tapesv_0ppEINtB5_6ScalarRpEINtNtNtCs2fyPGiZs4Bj_4core3ops5arith3AddRINtB5_4NodeppEE3addB9_
FN:1097,_RNCNvXININtNtCsklZzBiyazXI_9qautodiff5graph4tapesv_0ppEINtB7_6ScalarRpEINtNtNtCs2fyPGiZs4Bj_4core3ops5arith3AddRINtB7_4NodeppEE3add0Bb_
FN:1094,_RNvXININtNtCsklZzBiyazXI_9qautodiff5graph4tapesz_0ppEINtB5_6ScalarRpEINtNtNtCs2fyPGiZs4Bj_4core3ops5arith3SubRINtB5_4NodeppEE3subB9_
FN:1097,_RNCNvXININtNtCsklZzBiyazXI_9qautodiff5graph4tapesz_0ppEINtB7_6ScalarRpEINtNtNtCs2fyPGiZs4Bj_4core3ops5arith3SubRINtB7_4NodeppEE3sub0Bb_
FN:1094,_RNvXININtNtCsklZzBiyazXI_9qautodiff5graph4tapesD_0ppEINtB5_6ScalarRpEINtNtNtCs2fyPGiZs4Bj_4core3ops5arith3MulRINtB5_4NodeppEE3mulB9_
FN:1097,_RNCNvXININtNtCsklZzBiyazXI_9qautodiff5graph4tapesD_0ppEINtB7_6ScalarRpEINtNtNtCs2fyPGiZs4Bj_4core3ops5arith3MulRINtB7_4NodeppEE3mul0Bb_
FN:1094,_RNvXININtNtCsklZzBiyazXI_9qautodiff5graph4tapesH_0ppEINtB5_6ScalarRpEINtNtNtCs2fyPGiZs4Bj_4core3ops5arith3DivRINtB5_4NodeppEE3divB9_
FN:1097,_RNCNvXININtNtCsklZzBiyazXI_9qautodiff5graph4tapesH_0ppEINtB7_6ScalarRpEINtNtNtCs2fyPGiZs4Bj_4core3ops5arith3DivRINtB7_4NodeppEE3div0Bb_
FNDA:1,_RNvNtNtNtCsklZzBiyazXI_9qautodiff5graph4tape5testss_15test_refcnt_var
FNDA:1,_RNvNtNtNtCsklZzBiyazXI_9qautodiff5graph4tape5testss_15test_refcnt_neg
FNDA:1,_RNvNtNtNtCsklZzBiyazXI_9qautodiff5graph4tape5testss_16test_refcnt_addl
FNDA:1,_RNvNtNtNtCsklZzBiyazXI_9qautodiff5graph4tape5testss_16test_refcnt_addr
FNDA:1,_RNvNtNtNtCsklZzBiyazXI_9qautodiff5graph4tape5testss_16test_refcnt_subl
FNDA:1,_RNvNtNtNtCsklZzBiyazXI_9qautodiff5graph4tape5testss_16test_refcnt_subr
FNDA:1,_RNvNtNtNtCsklZzBiyazXI_9qautodiff5graph4tape5testss_16test_refcnt_mull
FNDA:1,_RNvNtNtNtCsklZzBiyazXI_9qautodiff5graph4tape5testss_16test_refcnt_mulr
FNDA:1,_RNvNtNtNtCsklZzBiyazXI_9qautodiff5graph4tape5testss_16test_refcnt_divl
FNDA:1,_RNvNtNtNtCsklZzBiyazXI_9qautodiff5graph4tape5testss_16test_refcnt_divr
FNDA:1,_RNvNtNtNtCsklZzBiyazXI_9qautodiff5graph4tape5testss_15test_refcnt_exp
FNDA:1,_RNvNtNtNtCsklZzBiyazXI_9qautodiff5graph4tape5testss_15test_refcnt_log
FNDA:1,_RNvNtNtNtCsklZzBiyazXI_9qautodiff5graph4tape5testss_15test_refcnt_erf
FNDA:1,_RNvNtNtNtCsklZzBiyazXI_9qautodiff5graph4tape5testss_16test_refcnt_sqrt
FNDA:1,_RNvNtNtNtCsklZzBiyazXI_9qautodiff5graph4tape5testss_16test_refcnt_powi
FNDA:1,_RNvNtNtNtCsklZzBiyazXI_9qautodiff5graph4tape5testss_15test_refcnt_add
FNDA:1,_RNvNtNtNtCsklZzBiyazXI_9qautodiff5graph4tape5testss_15test_refcnt_sub
FNDA:1,_RNvNtNtNtCsklZzBiyazXI_9qautodiff5graph4tape5testss_15test_refcnt_mul
FNDA:1,_RNvNtNtNtCsklZzBiyazXI_9qautodiff5graph4tape5testss_15test_refcnt_div
FNDA:1,_RNvNtNtNtCsklZzBiyazXI_9qautodiff5graph4tape5testss_26test_refcnt_recursive_decl
FNDA:1,_RNvNtNtNtCsklZzBiyazXI_9qautodiff5graph4tape5testss_22test_reuse_vacant_cell
FNDA:1029,_RNvMNtNtCsklZzBiyazXI_9qautodiff5graph4tapeINtB2_5__NodedE5valueB6_
FNDA:253,_RNvXs_NtNtCsklZzBiyazXI_9qautodiff5graph4tapeINtB4_4NodeRedENtNtCs2fyPGiZs4Bj_4core5clone5Clone5cloneB8_
FNDA:897,_RNvXs0_NtNtCsklZzBiyazXI_9qautodiff5graph4tapeINtB5_4NodeRedENtNtNtCs2fyPGiZs4Bj_4core3ops4drop4Drop4dropB9_
FNDA:56,_RINvMs1_NtNtCsklZzBiyazXI_9qautodiff5graph4tapeINtB6_4NodeRedE16__indirectly_readINtNtCs2fyPGiZs4Bj_4core6option6OptionNtNtB1m_3cmp8OrderingENCNCNvXs9_NtBa_4exprINtB2p_4ExprBU_dENtB1V_10PartialOrd11partial_cmp00EBa_
FNDA:56,_RINvMs1_NtNtCsklZzBiyazXI_9qautodiff5graph4tapeINtB6_4NodeRedE16__indirectly_readINtNtCs2fyPGiZs4Bj_4core6option6OptionNtNtB1m_3cmp8OrderingENCNvXs9_NtBa_4exprINtB2n_4ExprBU_dENtB1V_10PartialOrd11partial_cmp0EBa_
FNDA:4,_RINvMs1_NtNtCsklZzBiyazXI_9qautodiff5graph4tapeINtB6_4NodeRedE16__indirectly_readINtNtCs2fyPGiZs4Bj_4core6result6ResultuNtNtB1m_3fmt5ErrorENCNvXs6_NtBa_4exprINtB2l_4ExprBU_dENtB1W_7Display3fmt0EBa_
FNDA:56,_RINvMs1_NtNtCsklZzBiyazXI_9qautodiff5graph4tapeINtB6_4NodeRedE16__indirectly_readbNCNCNvXs7_NtBa_4exprINtB1s_4ExprBU_dENtNtCs2fyPGiZs4Bj_4core3cmp9PartialEq2eq00EBa_
FNDA:56,_RINvMs1_NtNtCsklZzBiyazXI_9qautodiff5graph4tapeINtB6_4NodeRedE16__indirectly_readbNCNvXs7_NtBa_4exprINtB1q_4ExprBU_dENtNtCs2fyPGiZs4Bj_4core3cmp9PartialEq2eq0EBa_
FNDA:2,_RINvMs1_NtNtCsklZzBiyazXI_9qautodiff5graph4tapeINtB6_4NodeRedE16__indirectly_readbNvYdNtNtCs3hlyyetf6no_10num_traits10identities4Zero7is_zeroEBa_
FNDA:1,_RINvMs1_NtNtCsklZzBiyazXI_9qautodiff5graph4tapeINtB6_4NodeRedE16__indirectly_readdNCNvB2_9__compress0EBa_
FNDA:249,_RINvMs1_NtNtCsklZzBiyazXI_9qautodiff5graph4tapeINtB6_4NodeRedE16__indirectly_readdNvYdNtNtCs2fyPGiZs4Bj_4core5clone5Clone5cloneEBa_
FNDA:1,_RNvMs1_NtNtCsklZzBiyazXI_9qautodiff5graph4tapeINtB5_4NodeRedE4__keyB9_
FNDA:8,_RNvMs1_NtNtCsklZzBiyazXI_9qautodiff5graph4tapeINtB5_4NodeRedE6__graphB9_
FNDA:261,_RNvMs1_NtNtCsklZzBiyazXI_9qautodiff5graph4tapeINtB5_4NodeRedE6__gradsB9_
FNDA:6,_RNvMs1_NtNtCsklZzBiyazXI_9qautodiff5graph4tapeINtB5_4NodeRedE7__varidxB9_
FNDA:1,_RNvMs1_NtNtCsklZzBiyazXI_9qautodiff5graph4tapeINtB5_4NodeRedE9__compressB9_
FNDA:1,_RNCNvMs1_NtNtCsklZzBiyazXI_9qautodiff5graph4tapeINtB7_4NodeRedE9__compress0Bb_
FNDA:2,_RNCNvMs1_NtNtCsklZzBiyazXI_9qautodiff5graph4tapeINtB7_4NodeRedE9__compresss_0Bb_
FNDA:1,_RNvMs1_NtNtCsklZzBiyazXI_9qautodiff5graph4tapeINtB5_4NodeRedE7__dotizeB9_
FNDA:22,_RNCNvMs1_NtNtCsklZzBiyazXI_9qautodiff5graph4tapeINtB7_4NodeRedE7__dotize0Bb_
FNDA:11,_RNCNvMs1_NtNtCsklZzBiyazXI_9qautodiff5graph4tapeINtB7_4NodeRedE7__dotizes_0Bb_
FNDA:342,_RNvMs2_NtNtCsklZzBiyazXI_9qautodiff5graph4tapeINtB5_4NodeRedE11__create_varB9_
FNDA:0,_RNvYINtNtNtCsklZzBiyazXI_9qautodiff5graph4tape14__GraphvizGraphRedEINtB5_9__BackPropBZ_dE8__on_powiB9_
FNDA:0,_RNvYINtNtNtCsklZzBiyazXI_9qautodiff5graph4tape14__GraphvizGraphRedEINtB5_9__BackPropBZ_dE14__on_compressedB9_
FNDA:234,_RNvXs3_NtNtCsklZzBiyazXI_9qautodiff5graph4tapeINtB5_18__BackPropWorkSpacedENtNtCs2fyPGiZs4Bj_4core7default7Default7defaultB9_
FNDA:262,_RINvMs4_NtNtCsklZzBiyazXI_9qautodiff5graph4tapeINtB6_18__BackPropWorkSpacedE10__count_refReEBa_
FNDA:2,_RNCINvMs4_NtNtCsklZzBiyazXI_9qautodiff5graph4tapeINtB8_18__BackPropWorkSpacedE10__count_refReE0Bc_
FNDA:1,_RINvMs4_NtNtCsklZzBiyazXI_9qautodiff5graph4tapeINtB6_18__BackPropWorkSpacedE10__back_propReINtB6_14__GraphvizGraphB1p_dEEBa_
FNDA:261,_RINvMs4_NtNtCsklZzBiyazXI_9qautodiff5graph4tapeINtB6_18__BackPropWorkSpacedE10__back_propReINtNtB8_5grads12__GradCollectdEEBa_
FNDA:10,_RNCINvMs4_NtNtCsklZzBiyazXI_9qautodiff5graph4tapeINtB8_18__BackPropWorkSpacedE10__back_propReINtB8_14__GraphvizGraphB1r_dEE0Bc_
FNDA:382,_RNCINvMs4_NtNtCsklZzBiyazXI_9qautodiff5graph4tapeINtB8_18__BackPropWorkSpacedE10__back_propReINtNtBa_5grads12__GradCollectdEE0Bc_
FNDA:234,_RNvXs5_NtNtCsklZzBiyazXI_9qautodiff5graph4tapeINtB5_5__TapeRedENtNtCs2fyPGiZs4Bj_4core7default7Default7defaultB9_
FNDA:251,_RNvMs6_NtNtCsklZzBiyazXI_9qautodiff5graph4tapeINtB5_5__TapeRedE5__varsB9_
FNDA:2287,_RNvMs7_NtNtCsklZzBiyazXI_9qautodiff5graph4tapeINtB5_5__TapeRedE5__cellB9_
FNDA:1,_RNvMs7_NtNtCsklZzBiyazXI_9qautodiff5graph4tapeINtB5_5__TapeRedE4__keyB9_
FNDA:1,_RNCNvMs7_NtNtCsklZzBiyazXI_9qautodiff5graph4tapeINtB7_5__TapeRedE4__key0Bb_
FNDA:342,_RNvMs7_NtNtCsklZzBiyazXI_9qautodiff5graph4tapeINtB5_5__TapeRedE8__reg_varB9_
FNDA:115,_RNCNvMs7_NtNtCsklZzBiyazXI_9qautodiff5graph4tapeINtB7_5__TapeRedE8__reg_var0Bb_
FNDA:644,_RNvMs7_NtNtCsklZzBiyazXI_9qautodiff5graph4tapeINtB5_5__TapeRedE9__reg_nodeB9_
FNDA:664,_RNvMs7_NtNtCsklZzBiyazXI_9qautodiff5graph4tapeINtB5_5__TapeRedE12__incl_refcntB9_
FNDA:897,_RNvMs7_NtNtCsklZzBiyazXI_9qautodiff5graph4tapeINtB5_5__TapeRedE12__decl_refcntB9_
FNDA:5,_RINvMs7_NtNtCsklZzBiyazXI_9qautodiff5graph4tapeINtB6_5__TapeRedE11__make_unaryNCNvXs8_B6_RINtB6_4NodeBW_dENtNtNtCs2fyPGiZs4Bj_4core3ops5arith3Neg3neg0EBa_
FNDA:14,_RINvMs7_NtNtCsklZzBiyazXI_9qautodiff5graph4tapeINtB6_5__TapeRedE11__make_unaryNCNvXs9_B6_INtB6_4NodeBW_dENtNtNtCsiuWCqEApz1O_5qmath3num13elementary_fn4Powi4powi0EBa_
FNDA:22,_RINvMs7_NtNtCsklZzBiyazXI_9qautodiff5graph4tapeINtB6_5__TapeRedE11__make_unaryNCNvXsB_B6_RINtB6_4NodeBW_dEINtNtNtCs2fyPGiZs4Bj_4core3ops5arith3MulINtB6_6ScalarRdEE3mul0EBa_
FNDA:21,_RINvMs7_NtNtCsklZzBiyazXI_9qautodiff5graph4tapeINtB6_5__TapeRedE11__make_unaryNCNvXsC_B6_INtB6_6ScalardEINtNtNtCs2fyPGiZs4Bj_4core3ops5arith3MulRINtB6_4NodeBW_dEE3mul0EBa_
FNDA:13,_RINvMs7_NtNtCsklZzBiyazXI_9qautodiff5graph4tapeINtB6_5__TapeRedE11__make_unaryNCNvXsF_B6_RINtB6_4NodeBW_dEINtNtNtCs2fyPGiZs4Bj_4core3ops5arith3DivINtB6_6ScalarRdEE3div0EBa_
FNDA:13,_RINvMs7_NtNtCsklZzBiyazXI_9qautodiff5graph4tapeINtB6_5__TapeRedE11__make_unaryNCNvXsG_B6_INtB6_6ScalardEINtNtNtCs2fyPGiZs4Bj_4core3ops5arith3DivRINtB6_4NodeBW_dEE3div0EBa_
FNDA:8,_RINvMs7_NtNtCsklZzBiyazXI_9qautodiff5graph4tapeINtB6_5__TapeRedE11__make_unaryNCNvXsI_B6_INtB6_4NodeBW_dENtNtNtCsiuWCqEApz1O_5qmath3num13elementary_fn3Exp3exp0EBa_
FNDA:4,_RINvMs7_NtNtCsklZzBiyazXI_9qautodiff5graph4tapeINtB6_5__TapeRedE11__make_unaryNCNvXsJ_B6_INtB6_4NodeBW_dENtNtNtCsiuWCqEApz1O_5qmath3num13elementary_fn3Log3log0EBa_
FNDA:4,_RINvMs7_NtNtCsklZzBiyazXI_9qautodiff5graph4tapeINtB6_5__TapeRedE11__make_unaryNCNvXsK_B6_INtB6_4NodeBW_dENtNtNtCsiuWCqEApz1O_5qmath3num13elementary_fn3Erf3erf0EBa_
FNDA:4,_RINvMs7_NtNtCsklZzBiyazXI_9qautodiff5graph4tapeINtB6_5__TapeRedE11__make_unaryNCNvXsL_B6_INtB6_4NodeBW_dENtNtNtCsiuWCqEApz1O_5qmath3num13elementary_fn4Sqrt4sqrt0EBa_
FNDA:22,_RINvMs7_NtNtCsklZzBiyazXI_9qautodiff5graph4tapeINtB6_5__TapeRedE11__make_unaryNCNvXst_B6_RINtB6_4NodeBW_dEINtNtNtCs2fyPGiZs4Bj_4core3ops5arith3AddINtB6_6ScalarRdEE3add0EBa_
FNDA:21,_RINvMs7_NtNtCsklZzBiyazXI_9qautodiff5graph4tapeINtB6_5__TapeRedE11__make_unaryNCNvXsu_B6_INtB6_6ScalardEINtNtNtCs2fyPGiZs4Bj_4core3ops5arith3AddRINtB6_4NodeBW_dEE3add0EBa_
FNDA:21,_RINvMs7_NtNtCsklZzBiyazXI_9qautodiff5graph4tapeINtB6_5__TapeRedE11__make_unaryNCNvXsx_B6_RINtB6_4NodeBW_dEINtNtNtCs2fyPGiZs4Bj_4core3ops5arith3SubINtB6_6ScalarRdEE3sub0EBa_
FNDA:21,_RINvMs7_NtNtCsklZzBiyazXI_9qautodiff5graph4tapeINtB6_5__TapeRedE11__make_unaryNCNvXsy_B6_INtB6_6ScalardEINtNtNtCs2fyPGiZs4Bj_4core3ops5arith3SubRINtB6_4NodeBW_dEE3sub0EBa_
FNDA:40,_RINvMs7_NtNtCsklZzBiyazXI_9qautodiff5graph4tapeINtB6_5__TapeRedE12__make_binaryNCNvXsA_B6_RINtB6_4NodeBW_dENtNtNtCs2fyPGiZs4Bj_4core3ops5arith3Mul3mul0EBa_
FNDA:13,_RINvMs7_NtNtCsklZzBiyazXI_9qautodiff5graph4tapeINtB6_5__TapeRedE12__make_binaryNCNvXsE_B6_RINtB6_4NodeBW_dENtNtNtCs2fyPGiZs4Bj_4core3ops5arith3Div3div0EBa_
FNDA:33,_RINvMs7_NtNtCsklZzBiyazXI_9qautodiff5graph4tapeINtB6_5__TapeRedE12__make_binaryNCNvXss_B6_RINtB6_4NodeBW_dENtNtNtCs2fyPGiZs4Bj_4core3ops5arith3Add3add0EBa_
FNDA:23,_RINvMs7_NtNtCsklZzBiyazXI_9qautodiff5graph4tapeINtB6_5__TapeRedE12__make_binaryNCNvXsw_B6_RINtB6_4NodeBW_dENtNtNtCs2fyPGiZs4Bj_4core3ops5arith3Sub3sub0EBa_
FNDA:5,_RNvXs8_NtNtCsklZzBiyazXI_9qautodiff5graph4tapeRINtB5_4NodeRedENtNtNtCs2fyPGiZs4Bj_4core3ops5arith3Neg3negB9_
FNDA:5,_RNCNvXs8_NtNtCsklZzBiyazXI_9qautodiff5graph4tapeRINtB7_4NodeRedENtNtNtCs2fyPGiZs4Bj_4core3ops5arith3Neg3neg0Bb_
FNDA:14,_RNvXs9_NtNtCsklZzBiyazXI_9qautodiff5graph4tapeINtB5_4NodeRedENtNtNtCsiuWCqEApz1O_5qmath3num13elementary_fn4Powi4powiB9_
FNDA:14,_RNCNvXs9_NtNtCsklZzBiyazXI_9qautodiff5graph4tapeINtB7_4NodeRedENtNtNtCsiuWCqEApz1O_5qmath3num13elementary_fn4Powi4powi0Bb_
FNDA:1,_RNvXsa_NtNtCsklZzBiyazXI_9qautodiff5graph4tapeINtB5_14__GraphvizGraphRedENtNtCs2fyPGiZs4Bj_4core7default7Default7defaultB9_
FNDA:1,_RNvMsb_NtNtCsklZzBiyazXI_9qautodiff5graph4tapeINtB5_14__GraphvizGraphRedE6__unaryB9_
FNDA:1,_RNvMsb_NtNtCsklZzBiyazXI_9qautodiff5graph4tapeINtB5_14__GraphvizGraphRedE15__binary_partialB9_
FNDA:4,_RNvMsb_NtNtCsklZzBiyazXI_9qautodiff5graph4tapeINtB5_14__GraphvizGraphRedE7__binaryB9_
FNDA:2,_RNvXsc_NtNtCsklZzBiyazXI_9qautodiff5graph4tapeINtB5_14__GraphvizGraphRedEINtB5_9__BackPropB15_dE7__on_varB9_
FNDA:0,_RNvXsc_NtNtCsklZzBiyazXI_9qautodiff5graph4tapeINtB5_14__GraphvizGraphRedEINtB5_9__BackPropB15_dE7__on_negB9_
FNDA:0,_RNvXsc_NtNtCsklZzBiyazXI_9qautodiff5graph4tapeINtB5_14__GraphvizGraphRedEINtB5_9__BackPropB15_dE8__on_addlB9_
FNDA:0,_RNvXsc_NtNtCsklZzBiyazXI_9qautodiff5graph4tapeINtB5_14__GraphvizGraphRedEINtB5_9__BackPropB15_dE8__on_addrB9_
FNDA:0,_RNvXsc_NtNtCsklZzBiyazXI_9qautodiff5graph4tapeINtB5_14__GraphvizGraphRedEINtB5_9__BackPropB15_dE8__on_sublB9_
FNDA:0,_RNvXsc_NtNtCsklZzBiyazXI_9qautodiff5graph4tapeINtB5_14__GraphvizGraphRedEINtB5_9__BackPropB15_dE8__on_subrB9_
FNDA:1,_RNvXsc_NtNtCsklZzBiyazXI_9qautodiff5graph4tapeINtB5_14__GraphvizGraphRedEINtB5_9__BackPropB15_dE8__on_mullB9_
FNDA:0,_RNvXsc_NtNtCsklZzBiyazXI_9qautodiff5graph4tapeINtB5_14__GraphvizGraphRedEINtB5_9__BackPropB15_dE8__on_mulrB9_
FNDA:0,_RNvXsc_NtNtCsklZzBiyazXI_9qautodiff5graph4tapeINtB5_14__GraphvizGraphRedEINtB5_9__BackPropB15_dE8__on_divlB9_
FNDA:0,_RNvXsc_NtNtCsklZzBiyazXI_9qautodiff5graph4tapeINtB5_14__GraphvizGraphRedEINtB5_9__BackPropB15_dE8__on_divrB9_
FNDA:1,_RNvXsc_NtNtCsklZzBiyazXI_9qautodiff5graph4tapeINtB5_14__GraphvizGraphRedEINtB5_9__BackPropB15_dE7__on_expB9_
FNDA:0,_RNvXsc_NtNtCsklZzBiyazXI_9qautodiff5graph4tapeINtB5_14__GraphvizGraphRedEINtB5_9__BackPropB15_dE7__on_logB9_
FNDA:0,_RNvXsc_NtNtCsklZzBiyazXI_9qautodiff5graph4tapeINtB5_14__GraphvizGraphRedEINtB5_9__BackPropB15_dE7__on_erfB9_
FNDA:0,_RNvXsc_NtNtCsklZzBiyazXI_9qautodiff5graph4tapeINtB5_14__GraphvizGraphRedEINtB5_9__BackPropB15_dE8__on_sqrtB9_
FNDA:2,_RNvXsc_NtNtCsklZzBiyazXI_9qautodiff5graph4tapeINtB5_14__GraphvizGraphRedEINtB5_9__BackPropB15_dE7__on_addB9_
FNDA:0,_RNvXsc_NtNtCsklZzBiyazXI_9qautodiff5graph4tapeINtB5_14__GraphvizGraphRedEINtB5_9__BackPropB15_dE7__on_subB9_
FNDA:2,_RNvXsc_NtNtCsklZzBiyazXI_9qautodiff5graph4tapeINtB5_14__GraphvizGraphRedEINtB5_9__BackPropB15_dE7__on_mulB9_
FNDA:0,_RNvXsc_NtNtCsklZzBiyazXI_9qautodiff5graph4tapeINtB5_14__GraphvizGraphRedEINtB5_9__BackPropB15_dE7__on_divB9_
FNDA:1,_RINvMsd_NtNtCsklZzBiyazXI_9qautodiff5graph4tapeINtB6_15GraphvizBuilderRedNvYB16_NtNtCse0qyoMp9HeL_5alloc6string8ToString9to_stringuE20with_value_formatterNCNvNtNtBa_4expr5testss_13test_graphviz0EBa_
FNDA:1,_RINvMse_NtNtCsklZzBiyazXI_9qautodiff5graph4tapeINtB6_15GraphvizBuilderReduuE18with_key_formatterNvYB16_NtNtCse0qyoMp9HeL_5alloc6string8ToString9to_stringEBa_
FNDA:1,_RNvMsf_NtNtCsklZzBiyazXI_9qautodiff5graph4tapeINtB5_15GraphvizBuilderRedNvYB15_NtNtCse0qyoMp9HeL_5alloc6string8ToString9to_stringNCNvNtNtB9_4expr5testss_13test_graphviz0E9with_nameB9_
FNDA:3,_RNvMsf_NtNtCsklZzBiyazXI_9qautodiff5graph4tapeINtB5_15GraphvizBuilderRedNvYB15_NtNtCse0qyoMp9HeL_5alloc6string8ToString9to_stringNCNvNtNtB9_4expr5testss_13test_graphviz0E18with_graph_settingB9_
FNDA:1,_RNvMsf_NtNtCsklZzBiyazXI_9qautodiff5graph4tapeINtB5_15GraphvizBuilderRedNvYB15_NtNtCse0qyoMp9HeL_5alloc6string8ToString9to_stringNCNvNtNtB9_4expr5testss_13test_graphviz0E17with_node_settingB9_
FNDA:1,_RNvMsf_NtNtCsklZzBiyazXI_9qautodiff5graph4tapeINtB5_15GraphvizBuilderRedNvYB15_NtNtCse0qyoMp9HeL_5alloc6string8ToString9to_stringNCNvNtNtB9_4expr5testss_13test_graphviz0E7gen_dotB9_
FNDA:33,_RNvXss_NtNtCsklZzBiyazXI_9qautodiff5graph4tapeRINtB5_4NodeRedENtNtNtCs2fyPGiZs4Bj_4core3ops5arith3Add3addB9_
FNDA:33,_RNCNvXss_NtNtCsklZzBiyazXI_9qautodiff5graph4tapeRINtB7_4NodeRedENtNtNtCs2fyPGiZs4Bj_4core3ops5arith3Add3add0Bb_
FNDA:22,_RNvXst_NtNtCsklZzBiyazXI_9qautodiff5graph4tapeRINtB5_4NodeRedEINtNtNtCs2fyPGiZs4Bj_4core3ops5arith3AddINtB5_6ScalarRdEE3addB9_
FNDA:22,_RNCNvXst_NtNtCsklZzBiyazXI_9qautodiff5graph4tapeRINtB7_4NodeRedEINtNtNtCs2fyPGiZs4Bj_4core3ops5arith3AddINtB7_6ScalarRdEE3add0Bb_
FNDA:21,_RNvXsu_NtNtCsklZzBiyazXI_9qautodiff5graph4tapeINtB5_6ScalardEINtNtNtCs2fyPGiZs4Bj_4core3ops5arith3AddRINtB5_4NodeRedEE3addB9_
FNDA:21,_RNCNvXsu_NtNtCsklZzBiyazXI_9qautodiff5graph4tapeINtB7_6ScalardEINtNtNtCs2fyPGiZs4Bj_4core3ops5arith3AddRINtB7_4NodeRedEE3add0Bb_
FNDA:23,_RNvXsw_NtNtCsklZzBiyazXI_9qautodiff5graph4tapeRINtB5_4NodeRedENtNtNtCs2fyPGiZs4Bj_4core3ops5arith3Sub3subB9_
FNDA:23,_RNCNvXsw_NtNtCsklZzBiyazXI_9qautodiff5graph4tapeRINtB7_4NodeRedENtNtNtCs2fyPGiZs4Bj_4core3ops5arith3Sub3sub0Bb_
FNDA:21,_RNvXsx_NtNtCsklZzBiyazXI_9qautodiff5graph4tapeRINtB5_4NodeRedEINtNtNtCs2fyPGiZs4Bj_4core3ops5arith3SubINtB5_6ScalarRdEE3subB9_
FNDA:21,_RNCNvXsx_NtNtCsklZzBiyazXI_9qautodiff5graph4tapeRINtB7_4NodeRedEINtNtNtCs2fyPGiZs4Bj_4core3ops5arith3SubINtB7_6ScalarRdEE3sub0Bb_
FNDA:21,_RNvXsy_NtNtCsklZzBiyazXI_9qautodiff5graph4tapeINtB5_6ScalardEINtNtNtCs2fyPGiZs4Bj_4core3ops5arith3SubRINtB5_4NodeRedEE3subB9_
FNDA:21,_RNCNvXsy_NtNtCsklZzBiyazXI_9qautodiff5graph4tapeINtB7_6ScalardEINtNtNtCs2fyPGiZs4Bj_4core3ops5arith3SubRINtB7_4NodeRedEE3sub0Bb_
FNDA:40,_RNvXsA_NtNtCsklZzBiyazXI_9qautodiff5graph4tapeRINtB5_4NodeRedENtNtNtCs2fyPGiZs4Bj_4core3ops5arith3Mul3mulB9_
FNDA:40,_RNCNvXsA_NtNtCsklZzBiyazXI_9qautodiff5graph4tapeRINtB7_4NodeRedENtNtNtCs2fyPGiZs4Bj_4core3ops5arith3Mul3mul0Bb_
FNDA:22,_RNvXsB_NtNtCsklZzBiyazXI_9qautodiff5graph4tapeRINtB5_4NodeRedEINtNtNtCs2fyPGiZs4Bj_4core3ops5arith3MulINtB5_6ScalarRdEE3mulB9_
FNDA:22,_RNCNvXsB_NtNtCsklZzBiyazXI_9qautodiff5graph4tapeRINtB7_4NodeRedEINtNtNtCs2fyPGiZs4Bj_4core3ops5arith3MulINtB7_6ScalarRdEE3mul0Bb_
FNDA:21,_RNvXsC_NtNtCsklZzBiyazXI_9qautodiff5graph4tapeINtB5_6ScalardEINtNtNtCs2fyPGiZs4Bj_4core3ops5arith3MulRINtB5_4NodeRedEE3mulB9_
FNDA:21,_RNCNvXsC_NtNtCsklZzBiyazXI_9qautodiff5graph4tapeINtB7_6ScalardEINtNtNtCs2fyPGiZs4Bj_4core3ops5arith3MulRINtB7_4NodeRedEE3mul0Bb_
FNDA:13,_RNvXsE_NtNtCsklZzBiyazXI_9qautodiff5graph4tapeRINtB5_4NodeRedENtNtNtCs2fyPGiZs4Bj_4core3ops5arith3Div3divB9_
FNDA:13,_RNCNvXsE_NtNtCsklZzBiyazXI_9qautodiff5graph4tapeRINtB7_4NodeRedENtNtNtCs2fyPGiZs4Bj_4core3ops5arith3Div3div0Bb_
FNDA:13,_RNvXsF_NtNtCsklZzBiyazXI_9qautodiff5graph4tapeRINtB5_4NodeRedEINtNtNtCs2fyPGiZs4Bj_4core3ops5arith3DivINtB5_6ScalarRdEE3divB9_
FNDA:13,_RNCNvXsF_NtNtCsklZzBiyazXI_9qautodiff5graph4tapeRINtB7_4NodeRedEINtNtNtCs2fyPGiZs4Bj_4core3ops5arith3DivINtB7_6ScalarRdEE3div0Bb_
FNDA:13,_RNvXsG_NtNtCsklZzBiyazXI_9qautodiff5graph4tapeINtB5_6ScalardEINtNtNtCs2fyPGiZs4Bj_4core3ops5arith3DivRINtB5_4NodeRedEE3divB9_
FNDA:13,_RNCNvXsG_NtNtCsklZzBiyazXI_9qautodiff5graph4tapeINtB7_6ScalardEINtNtNtCs2fyPGiZs4Bj_4core3ops5arith3DivRINtB7_4NodeRedEE3div0Bb_
FNDA:8,_RNvXsI_NtNtCsklZzBiyazXI_9qautodiff5graph4tapeINtB5_4NodeRedENtNtNtCsiuWCqEApz1O_5qmath3num13elementary_fn3Exp3expB9_
FNDA:8,_RNCNvXsI_NtNtCsklZzBiyazXI_9qautodiff5graph4tapeINtB7_4NodeRedENtNtNtCsiuWCqEApz1O_5qmath3num13elementary_fn3Exp3exp0Bb_
FNDA:4,_RNvXsJ_NtNtCsklZzBiyazXI_9qautodiff5graph4tapeINtB5_4NodeRedENtNtNtCsiuWCqEApz1O_5qmath3num13elementary_fn3Log3logB9_
FNDA:4,_RNCNvXsJ_NtNtCsklZzBiyazXI_9qautodiff5graph4tapeINtB7_4NodeRedENtNtNtCsiuWCqEApz1O_5qmath3num13elementary_fn3Log3log0Bb_
FNDA:4,_RNvXsK_NtNtCsklZzBiyazXI_9qautodiff5graph4tapeINtB5_4NodeRedENtNtNtCsiuWCqEApz1O_5qmath3num13elementary_fn3Erf3erfB9_
FNDA:4,_RNCNvXsK_NtNtCsklZzBiyazXI_9qautodiff5graph4tapeINtB7_4NodeRedENtNtNtCsiuWCqEApz1O_5qmath3num13elementary_fn3Erf3erf0Bb_
FNDA:4,_RNvXsL_NtNtCsklZzBiyazXI_9qautodiff5graph4tapeINtB5_4NodeRedENtNtNtCsiuWCqEApz1O_5qmath3num13elementary_fn4Sqrt4sqrtB9_
FNDA:4,_RNCNvXsL_NtNtCsklZzBiyazXI_9qautodiff5graph4tapeINtB7_4NodeRedENtNtNtCsiuWCqEApz1O_5qmath3num13elementary_fn4Sqrt4sqrt0Bb_
FNDA:4,_RNvYINtNtNtCsklZzBiyazXI_9qautodiff5graph5grads12__GradCollectdEINtNtB7_4tape9__BackPropRedE7__on_negB9_
FNDA:21,_RNvYINtNtNtCsklZzBiyazXI_9qautodiff5graph5grads12__GradCollectdEINtNtB7_4tape9__BackPropRedE8__on_addlB9_
FNDA:20,_RNvYINtNtNtCsklZzBiyazXI_9qautodiff5graph5grads12__GradCollectdEINtNtB7_4tape9__BackPropRedE8__on_addrB9_
FNDA:20,_RNvYINtNtNtCsklZzBiyazXI_9qautodiff5graph5grads12__GradCollectdEINtNtB7_4tape9__BackPropRedE8__on_sublB9_
FNDA:20,_RNvYINtNtNtCsklZzBiyazXI_9qautodiff5graph5grads12__GradCollectdEINtNtB7_4tape9__BackPropRedE8__on_subrB9_
FNDA:20,_RNvYINtNtNtCsklZzBiyazXI_9qautodiff5graph5grads12__GradCollectdEINtNtB7_4tape9__BackPropRedE8__on_mullB9_
FNDA:20,_RNvYINtNtNtCsklZzBiyazXI_9qautodiff5graph5grads12__GradCollectdEINtNtB7_4tape9__BackPropRedE8__on_mulrB9_
FNDA:12,_RNvYINtNtNtCsklZzBiyazXI_9qautodiff5graph5grads12__GradCollectdEINtNtB7_4tape9__BackPropRedE8__on_divlB9_
FNDA:12,_RNvYINtNtNtCsklZzBiyazXI_9qautodiff5graph5grads12__GradCollectdEINtNtB7_4tape9__BackPropRedE8__on_divrB9_
FNDA:7,_RNvYINtNtNtCsklZzBiyazXI_9qautodiff5graph5grads12__GradCollectdEINtNtB7_4tape9__BackPropRedE7__on_expB9_
FNDA:3,_RNvYINtNtNtCsklZzBiyazXI_9qautodiff5graph5grads12__GradCollectdEINtNtB7_4tape9__BackPropRedE7__on_logB9_
FNDA:3,_RNvYINtNtNtCsklZzBiyazXI_9qautodiff5graph5grads12__GradCollectdEINtNtB7_4tape9__BackPropRedE7__on_erfB9_
FNDA:3,_RNvYINtNtNtCsklZzBiyazXI_9qautodiff5graph5grads12__GradCollectdEINtNtB7_4tape9__BackPropRedE8__on_sqrtB9_
FNDA:13,_RNvYINtNtNtCsklZzBiyazXI_9qautodiff5graph5grads12__GradCollectdEINtNtB7_4tape9__BackPropRedE8__on_powiB9_
FNDA:29,_RNvYINtNtNtCsklZzBiyazXI_9qautodiff5graph5grads12__GradCollectdEINtNtB7_4tape9__BackPropRedE7__on_addB9_
FNDA:21,_RNvYINtNtNtCsklZzBiyazXI_9qautodiff5graph5grads12__GradCollectdEINtNtB7_4tape9__BackPropRedE7__on_subB9_
FNDA:39,_RNvYINtNtNtCsklZzBiyazXI_9qautodiff5graph5grads12__GradCollectdEINtNtB7_4tape9__BackPropRedE7__on_mulB9_
FNDA:12,_RNvYINtNtNtCsklZzBiyazXI_9qautodiff5graph5grads12__GradCollectdEINtNtB7_4tape9__BackPropRedE7__on_divB9_
FNDA:1,_RNvYINtNtNtCsklZzBiyazXI_9qautodiff5graph5grads12__GradCollectdEINtNtB7_4tape9__BackPropRedE14__on_compressedB9_
FNDA:0,_RNvYpINtNtNtCsklZzBiyazXI_9qautodiff5graph4tape9__BackPropppE7__on_varBa_
FNDA:0,_RNvXININtNtCsklZzBiyazXI_9qautodiff5graph4tapesv_0ppEINtB5_6ScalarRpEINtNtNtCs2fyPGiZs4Bj_4core3ops5arith3AddRINtB5_4NodeppEE3addB9_
FNDA:0,_RNCNvXININtNtCsklZzBiyazXI_9qautodiff5graph4tapesv_0ppEINtB7_6ScalarRpEINtNtNtCs2fyPGiZs4Bj_4core3ops5arith3AddRINtB7_4NodeppEE3add0Bb_
FNDA:0,_RNvXININtNtCsklZzBiyazXI_9qautodiff5graph4tapesz_0ppEINtB5_6ScalarRpEINtNtNtCs2fyPGiZs4Bj_4core3ops5arith3SubRINtB5_4NodeppEE3subB9_
FNDA:0,_RNCNvXININtNtCsklZzBiyazXI_9qautodiff5graph4tapesz_0ppEINtB7_6ScalarRpEINtNtNtCs2fyPGiZs4Bj_4core3ops5arith3SubRINtB7_4NodeppEE3sub0Bb_
FNDA:0,_RNvXININtNtCsklZzBiyazXI_9qautodiff5graph4tapesD_0ppEINtB5_6ScalarRpEINtNtNtCs2fyPGiZs4Bj_4core3ops5arith3MulRINtB5_4NodeppEE3mulB9_
FNDA:0,_RNCNvXININtNtCsklZzBiyazXI_9qautodiff5graph4tapesD_0ppEINtB7_6ScalarRpEINtNtNtCs2fyPGiZs4Bj_4core3ops5arith3MulRINtB7_4NodeppEE3mul0Bb_
FNDA:0,_RNvXININtNtCsklZzBiyazXI_9qautodiff5graph4tapesH_0ppEINtB5_6ScalarRpEINtNtNtCs2fyPGiZs4Bj_4core3ops5arith3DivRINtB5_4NodeppEE3divB9_
FNDA:0,_RNCNvXININtNtCsklZzBiyazXI_9qautodiff5graph4tapesH_0ppEINtB7_6ScalarRpEINtNtNtCs2fyPGiZs4Bj_4core3ops5arith3DivRINtB7_4NodeppEE3div0Bb_
FNF:115
FNH:99
DA:46,1029
DA:47,1029
DA:48,742
DA:49,4
DA:50,21
DA:51,20
DA:52,20
DA:53,20
DA:54,21
DA:55,20
DA:56,12
DA:57,12
DA:58,11
DA:59,3
DA:60,3
DA:61,3
DA:62,13
DA:63,36
DA:64,24
DA:65,31
DA:66,12
DA:67,1029
DA:68,1029
DA:69,1029
DA:83,253
DA:84,253
DA:85,253
DA:86,253
DA:87,253
DA:88,253
DA:89,253
DA:94,897
DA:95,897
DA:96,897
DA:104,480
DA:105,480
DA:106,480
DA:109,1
DA:110,1
DA:111,1
DA:112,1
DA:113,1
DA:114,1
DA:117,8
DA:118,8
DA:119,8
DA:122,261
DA:123,261
DA:124,261
DA:125,261
DA:126,261
DA:127,261
DA:128,261
DA:129,261
DA:130,261
DA:131,261
DA:132,261
DA:133,261
DA:134,261
DA:137,6
DA:138,6
DA:139,6
DA:140,6
DA:141,0
DA:143,6
DA:146,1
DA:147,1
DA:148,1
DA:149,1
DA:150,1
DA:151,1
DA:152,2
DA:153,1
DA:154,1
DA:155,1
DA:156,1
DA:157,1
DA:158,1
DA:159,1
DA:162,1
DA:163,1
DA:164,1
DA:165,1
DA:166,1
DA:167,1
DA:168,1
DA:169,1
DA:170,1
DA:171,1
DA:172,1
DA:173,1
DA:174,1
DA:175,1
DA:176,1
DA:177,22
DA:178,10
DA:179,12
DA:180,22
DA:181,1
DA:182,1
DA:183,1
DA:184,11
DA:185,1
DA:186,1
DA:187,1
DA:188,1
DA:189,1
DA:190,1
DA:191,1
DA:192,1
DA:193,1
DA:194,1
DA:195,1
DA:196,1
DA:201,342
DA:202,342
DA:203,342
DA:204,342
DA:205,342
DA:206,341
DA:207,341
DA:208,341
DA:209,341
DA:210,342
DA:222,0
DA:223,0
DA:224,0
DA:225,0
DA:226,0
DA:227,0
DA:228,0
DA:229,0
DA:230,0
DA:231,0
DA:234,4
DA:235,4
DA:236,4
DA:237,4
DA:238,4
DA:239,4
DA:240,4
DA:241,4
DA:242,4
DA:245,21
DA:246,21
DA:247,21
DA:248,21
DA:249,21
DA:250,21
DA:251,21
DA:252,21
DA:253,21
DA:254,21
DA:257,20
DA:258,20
DA:259,20
DA:260,20
DA:261,20
DA:262,20
DA:263,20
DA:264,20
DA:265,20
DA:266,20
DA:269,20
DA:270,20
DA:271,20
DA:272,20
DA:273,20
DA:274,20
DA:275,20
DA:276,20
DA:277,20
DA:278,20
DA:281,20
DA:282,20
DA:283,20
DA:284,20
DA:285,20
DA:286,20
DA:287,20
DA:288,20
DA:289,20
DA:290,20
DA:293,20
DA:294,20
DA:295,20
DA:296,20
DA:297,20
DA:298,20
DA:299,20
DA:300,20
DA:301,20
DA:302,20
DA:305,20
DA:306,20
DA:307,20
DA:308,20
DA:309,20
DA:310,20
DA:311,20
DA:312,20
DA:313,20
DA:314,20
DA:317,12
DA:318,12
DA:319,12
DA:320,12
DA:321,12
DA:322,12
DA:323,12
DA:324,12
DA:325,12
DA:326,12
DA:329,12
DA:330,12
DA:331,12
DA:332,12
DA:333,12
DA:334,12
DA:335,12
DA:336,12
DA:337,12
DA:338,12
DA:341,7
DA:342,7
DA:343,7
DA:344,7
DA:345,7
DA:346,7
DA:347,7
DA:348,7
DA:349,7
DA:352,3
DA:353,3
DA:354,3
DA:355,3
DA:356,3
DA:357,3
DA:358,3
DA:359,3
DA:360,3
DA:363,3
DA:364,3
DA:365,3
DA:366,3
DA:367,3
DA:368,3
DA:369,3
DA:370,3
DA:371,3
DA:374,3
DA:375,3
DA:376,3
DA:377,3
DA:378,3
DA:379,3
DA:380,3
DA:381,3
DA:382,3
DA:385,13
DA:386,13
DA:387,13
DA:388,13
DA:389,13
DA:390,13
DA:391,13
DA:392,13
DA:393,13
DA:394,13
DA:397,29
DA:398,29
DA:399,29
DA:400,29
DA:401,29
DA:402,29
DA:403,29
DA:404,29
DA:405,29
DA:406,29
DA:409,21
DA:410,21
DA:411,21
DA:412,21
DA:413,21
DA:414,21
DA:415,21
DA:416,21
DA:417,21
DA:418,21
DA:421,39
DA:422,39
DA:423,39
DA:424,39
DA:425,39
DA:426,39
DA:427,39
DA:428,39
DA:429,39
DA:430,39
DA:433,12
DA:434,12
DA:435,12
DA:436,12
DA:437,12
DA:438,12
DA:439,12
DA:440,12
DA:441,12
DA:442,12
DA:445,1
DA:446,1
DA:447,1
DA:448,1
DA:449,1
DA:450,1
DA:451,1
DA:452,1
DA:453,1
DA:466,234
DA:467,234
DA:468,234
DA:469,234
DA:470,234
DA:471,234
DA:472,234
DA:473,234
DA:480,262
DA:481,262
DA:482,262
DA:483,262
DA:484,262
DA:485,262
DA:486,262
DA:487,262
DA:488,262
DA:489,262
DA:490,262
DA:491,262
DA:492,262
DA:493,262
DA:494,262
DA:496,914
DA:509,652
DA:510,652
DA:511,27
DA:512,625
DA:513,625
DA:514,625
DA:515,625
DA:516,625
DA:518,339
DA:520,4
DA:521,21
DA:522,20
DA:523,20
DA:524,20
DA:525,21
DA:526,20
DA:527,12
DA:528,12
DA:529,8
DA:530,3
DA:531,3
DA:532,3
DA:533,180
DA:535,31
DA:536,21
DA:537,41
DA:538,105
DA:539,105
DA:540,105
DA:541,105
DA:543,1
DA:544,2
DA:545,2
DA:546,2
DA:550,262
DA:552,262
DA:553,262
DA:554,262
DA:555,262
DA:556,262
DA:557,262
DA:558,262
DA:559,262
DA:560,262
DA:561,262
DA:562,262
DA:563,262
DA:564,262
DA:565,262
DA:566,262
DA:567,262
DA:568,262
DA:569,262
DA:570,262
DA:571,262
DA:572,262
DA:573,262
DA:574,262
DA:575,262
DA:576,262
DA:577,262
DA:578,262
DA:579,262
DA:580,262
DA:581,262
DA:582,262
DA:583,262
DA:584,262
DA:585,262
DA:586,262
DA:587,262
DA:588,262
DA:589,262
DA:590,262
DA:591,262
DA:592,262
DA:593,262
DA:594,262
DA:595,262
DA:596,262
DA:597,262
DA:598,262
DA:599,262
DA:600,262
DA:601,262
DA:602,262
DA:603,262
DA:604,262
DA:605,262
DA:606,262
DA:607,392
DA:608,392
DA:609,392
DA:610,365
DA:611,365
DA:612,392
DA:614,889
DA:615,627
DA:616,627
DA:617,627
DA:619,341
DA:620,341
DA:623,4
DA:624,4
DA:625,4
DA:626,4
DA:628,21
DA:629,21
DA:630,21
DA:631,21
DA:633,20
DA:634,20
DA:635,20
DA:636,20
DA:638,20
DA:639,20
DA:640,20
DA:641,20
DA:643,20
DA:644,20
DA:645,20
DA:646,20
DA:648,21
DA:649,21
DA:650,21
DA:651,21
DA:653,20
DA:654,20
DA:655,20
DA:656,20
DA:658,12
DA:659,12
DA:660,12
DA:661,12
DA:663,12
DA:664,12
DA:665,12
DA:666,12
DA:667,12
DA:670,8
DA:671,8
DA:672,8
DA:673,8
DA:675,3
DA:676,3
DA:677,3
DA:678,3
DA:679,3
DA:681,3
DA:682,3
DA:683,3
DA:684,3
DA:685,3
DA:686,3
DA:687,3
DA:689,3
DA:690,3
DA:691,3
DA:692,3
DA:693,3
DA:695,13
DA:696,13
DA:697,13
DA:698,13
DA:699,13
DA:700,13
DA:703,31
DA:704,31
DA:705,31
DA:706,31
DA:707,31
DA:708,31
DA:710,21
DA:711,21
DA:712,21
DA:713,21
DA:714,21
DA:715,21
DA:717,41
DA:718,41
DA:719,41
DA:720,41
DA:721,41
DA:722,41
DA:723,41
DA:724,41
DA:726,12
DA:727,12
DA:728,12
DA:729,12
DA:730,12
DA:731,12
DA:732,12
DA:733,12
DA:736,1
DA:737,1
DA:738,2
DA:739,2
DA:740,2
DA:741,2
DA:742,2
DA:747,262
DA:748,262
DA:824,234
DA:825,234
DA:826,234
DA:827,234
DA:828,234
DA:829,234
DA:830,234
DA:831,234
DA:836,251
DA:837,251
DA:838,251
DA:843,2287
DA:844,2287
DA:845,2287
DA:846,2287
DA:847,2287
DA:848,2287
DA:849,2287
DA:852,1
DA:853,1
DA:854,1
DA:855,0
DA:857,1
DA:859,342
DA:860,342
DA:861,342
DA:862,342
DA:863,342
DA:864,1
DA:865,341
DA:866,341
DA:867,341
DA:868,341
DA:869,341
DA:870,341
DA:871,341
DA:872,341
DA:873,341
DA:874,341
DA:875,341
DA:876,342
DA:879,644
DA:880,644
DA:881,644
DA:882,7
DA:883,7
DA:884,7
DA:886,637
DA:887,637
DA:889,644
DA:890,644
DA:893,664
DA:894,664
DA:895,664
DA:896,664
DA:898,897
DA:899,897
DA:900,897
DA:901,897
DA:902,897
DA:904,2205
DA:905,1308
DA:906,0
DA:908,1308
DA:909,0
DA:910,1308
DA:911,1308
DA:912,1308
DA:913,664
DA:914,644
DA:915,644
DA:916,644
DA:918,341
DA:919,341
DA:920,341
DA:921,341
DA:924,5
DA:925,22
DA:926,21
DA:927,22
DA:928,13
DA:929,21
DA:930,21
DA:931,21
DA:932,13
DA:933,8
DA:934,4
DA:935,4
DA:936,4
DA:937,193
DA:938,193
DA:939,193
DA:940,193
DA:943,33
DA:944,23
DA:945,40
DA:946,109
DA:947,109
DA:948,109
DA:949,109
DA:950,109
DA:955,1
DA:956,1
DA:957,1
DA:958,1
DA:959,1
DA:962,897
DA:965,193
DA:966,193
DA:967,193
DA:968,193
DA:969,193
DA:970,193
DA:971,193
DA:972,193
DA:973,193
DA:976,109
DA:977,109
DA:978,109
DA:979,109
DA:980,109
DA:981,109
DA:982,109
DA:983,109
DA:984,109
DA:985,109
DA:986,109
DA:1004,5
DA:1005,5
DA:1006,5
DA:1007,5
DA:1008,5
DA:1009,5
DA:1010,5
DA:1011,5
DA:1012,5
DA:1013,5
DA:1025,109
DA:1026,109
DA:1027,0
DA:1028,0
DA:1029,0
DA:1030,0
DA:1031,0
DA:1032,0
DA:1033,109
DA:1034,109
DA:1035,109
DA:1036,109
DA:1037,109
DA:1038,109
DA:1039,109
DA:1040,109
DA:1041,109
DA:1042,109
DA:1043,109
DA:1044,109
DA:1045,109
DA:1054,78
DA:1055,78
DA:1056,78
DA:1057,78
DA:1058,78
DA:1059,78
DA:1060,78
DA:1061,78
DA:1062,78
DA:1063,78
DA:1064,78
DA:1065,78
DA:1066,78
DA:1075,76
DA:1076,76
DA:1077,76
DA:1078,76
DA:1079,76
DA:1080,76
DA:1081,76
DA:1082,76
DA:1083,76
DA:1084,76
DA:1085,76
DA:1094,0
DA:1095,0
DA:1096,0
DA:1097,0
DA:1098,0
DA:1099,0
DA:1100,0
DA:1101,0
DA:1102,0
DA:1103,0
DA:1104,0
DA:1126,20
DA:1127,20
DA:1128,20
DA:1129,20
DA:1130,20
DA:1131,20
DA:1132,20
DA:1133,20
DA:1134,20
DA:1135,20
DA:1152,14
DA:1153,14
DA:1154,14
DA:1155,14
DA:1156,14
DA:1157,14
DA:1158,14
DA:1159,14
DA:1160,14
DA:1161,14
DA:1162,14
DA:1191,1
DA:1192,1
DA:1193,1
DA:1194,1
DA:1195,1
DA:1196,1
DA:1197,1
DA:1201,1
DA:1202,1
DA:1203,1
DA:1204,1
DA:1205,1
DA:1206,1
DA:1207,1
DA:1208,1
DA:1209,1
DA:1210,1
DA:1211,1
DA:1212,1
DA:1213,1
DA:1214,1
DA:1215,1
DA:1216,1
DA:1217,1
DA:1218,1
DA:1219,1
DA:1220,1
DA:1221,1
DA:1222,1
DA:1223,1
DA:1225,1
DA:1226,1
DA:1227,1
DA:1228,1
DA:1229,1
DA:1230,1
DA:1231,1
DA:1232,1
DA:1233,1
DA:1234,1
DA:1235,1
DA:1236,1
DA:1237,1
DA:1238,1
DA:1239,1
DA:1240,1
DA:1241,1
DA:1242,1
DA:1243,1
DA:1244,1
DA:1245,1
DA:1246,1
DA:1247,1
DA:1248,1
DA:1249,1
DA:1250,1
DA:1251,1
DA:1252,1
DA:1253,1
DA:1254,1
DA:1255,1
DA:1256,1
DA:1257,1
DA:1260,4
DA:1261,4
DA:1262,4
DA:1263,4
DA:1264,4
DA:1265,4
DA:1266,4
DA:1267,4
DA:1268,4
DA:1269,4
DA:1270,4
DA:1271,4
DA:1272,4
DA:1273,4
DA:1274,4
DA:1275,4
DA:1276,4
DA:1277,4
DA:1278,4
DA:1279,4
DA:1280,4
DA:1281,4
DA:1282,4
DA:1283,4
DA:1284,4
DA:1285,4
DA:1286,4
DA:1287,4
DA:1288,4
DA:1289,4
DA:1300,2
DA:1301,2
DA:1302,2
DA:1303,2
DA:1304,2
DA:1305,2
DA:1306,2
DA:1307,2
DA:1308,2
DA:1309,2
DA:1310,2
DA:1311,2
DA:1312,2
DA:1313,2
DA:1314,2
DA:1315,2
DA:1318,0
DA:1319,0
DA:1320,0
DA:1321,0
DA:1322,0
DA:1323,0
DA:1324,0
DA:1325,0
DA:1326,0
DA:1327,0
DA:1330,0
DA:1331,0
DA:1332,0
DA:1333,0
DA:1334,0
DA:1335,0
DA:1336,0
DA:1337,0
DA:1338,0
DA:1339,0
DA:1340,0
DA:1341,0
DA:1342,0
DA:1343,0
DA:1344,0
DA:1345,0
DA:1346,0
DA:1347,0
DA:1348,0
DA:1349,0
DA:1352,0
DA:1353,0
DA:1354,0
DA:1355,0
DA:1356,0
DA:1357,0
DA:1358,0
DA:1359,0
DA:1360,0
DA:1361,0
DA:1362,0
DA:1363,0
DA:1364,0
DA:1365,0
DA:1366,0
DA:1367,0
DA:1368,0
DA:1369,0
DA:1370,0
DA:1371,0
DA:1374,0
DA:1375,0
DA:1376,0
DA:1377,0
DA:1378,0
DA:1379,0
DA:1380,0
DA:1381,0
DA:1382,0
DA:1383,0
DA:1384,0
DA:1385,0
DA:1386,0
DA:1387,0
DA:1388,0
DA:1389,0
DA:1390,0
DA:1391,0
DA:1392,0
DA:1393,0
DA:1396,0
DA:1397,0
DA:1398,0
DA:1399,0
DA:1400,0
DA:1401,0
DA:1402,0
DA:1403,0
DA:1404,0
DA:1405,0
DA:1406,0
DA:1407,0
DA:1408,0
DA:1409,0
DA:1410,0
DA:1411,0
DA:1412,0
DA:1413,0
DA:1414,0
DA:1415,0
DA:1418,1
DA:1419,1
DA:1420,1
DA:1421,1
DA:1422,1
DA:1423,1
DA:1424,1
DA:1425,1
DA:1426,1
DA:1427,1
DA:1428,1
DA:1429,1
DA:1430,1
DA:1431,1
DA:1432,1
DA:1433,1
DA:1434,1
DA:1435,1
DA:1436,1
DA:1437,1
DA:1440,0
DA:1441,0
DA:1442,0
DA:1443,0
DA:1444,0
DA:1445,0
DA:1446,0
DA:1447,0
DA:1448,0
DA:1449,0
DA:1450,0
DA:1451,0
DA:1452,0
DA:1453,0
DA:1454,0
DA:1455,0
DA:1456,0
DA:1457,0
DA:1458,0
DA:1459,0
DA:1462,0
DA:1463,0
DA:1464,0
DA:1465,0
DA:1466,0
DA:1467,0
DA:1468,0
DA:1469,0
DA:1470,0
DA:1471,0
DA:1472,0
DA:1473,0
DA:1474,0
DA:1475,0
DA:1476,0
DA:1477,0
DA:1478,0
DA:1479,0
DA:1480,0
DA:1481,0
DA:1484,0
DA:1485,0
DA:1486,0
DA:1487,0
DA:1488,0
DA:1489,0
DA:1490,0
DA:1491,0
DA:1492,0
DA:1493,0
DA:1494,0
DA:1495,0
DA:1496,0
DA:1497,0
DA:1498,0
DA:1499,0
DA:1500,0
DA:1501,0
DA:1502,0
DA:1503,0
DA:1506,1
DA:1507,1
DA:1508,1
DA:1509,1
DA:1510,1
DA:1511,1
DA:1512,1
DA:1513,1
DA:1514,1
DA:1515,1
DA:1518,0
DA:1519,0
DA:1520,0
DA:1521,0
DA:1522,0
DA:1523,0
DA:1524,0
DA:1525,0
DA:1526,0
DA:1527,0
DA:1530,0
DA:1531,0
DA:1532,0
DA:1533,0
DA:1534,0
DA:1535,0
DA:1536,0
DA:1537,0
DA:1538,0
DA:1539,0
DA:1542,0
DA:1543,0
DA:1544,0
DA:1545,0
DA:1546,0
DA:1547,0
DA:1548,0
DA:1549,0
DA:1550,0
DA:1551,0
DA:1554,2
DA:1555,2
DA:1556,2
DA:1557,2
DA:1558,2
DA:1559,2
DA:1560,2
DA:1561,2
DA:1562,2
DA:1563,2
DA:1564,2
DA:1565,2
DA:1566,2
DA:1567,2
DA:1568,2
DA:1569,2
DA:1570,2
DA:1571,2
DA:1572,2
DA:1573,2
DA:1576,0
DA:1577,0
DA:1578,0
DA:1579,0
DA:1580,0
DA:1581,0
DA:1582,0
DA:1583,0
DA:1584,0
DA:1585,0
DA:1586,0
DA:1587,0
DA:1588,0
DA:1589,0
DA:1590,0
DA:1591,0
DA:1592,0
DA:1593,0
DA:1594,0
DA:1595,0
DA:1598,2
DA:1599,2
DA:1600,2
DA:1601,2
DA:1602,2
DA:1603,2
DA:1604,2
DA:1605,2
DA:1606,2
DA:1607,2
DA:1608,2
DA:1609,2
DA:1610,2
DA:1611,2
DA:1612,2
DA:1613,2
DA:1614,2
DA:1615,2
DA:1616,2
DA:1617,2
DA:1620,0
DA:1621,0
DA:1622,0
DA:1623,0
DA:1624,0
DA:1625,0
DA:1626,0
DA:1627,0
DA:1628,0
DA:1629,0
DA:1630,0
DA:1631,0
DA:1632,0
DA:1633,0
DA:1634,0
DA:1635,0
DA:1636,0
DA:1637,0
DA:1638,0
DA:1639,0
DA:1658,1
DA:1659,1
DA:1660,1
DA:1661,1
DA:1662,1
DA:1663,1
DA:1664,1
DA:1665,1
DA:1666,1
DA:1667,1
DA:1668,1
DA:1669,1
DA:1670,1
DA:1671,1
DA:1676,1
DA:1677,1
DA:1678,1
DA:1679,1
DA:1680,1
DA:1681,1
DA:1682,1
DA:1683,1
DA:1684,1
DA:1685,1
DA:1686,1
DA:1687,1
DA:1688,1
DA:1689,1
DA:1695,1
DA:1696,1
DA:1697,1
DA:1698,1
DA:1702,3
DA:1703,3
DA:1704,3
DA:1705,3
DA:1706,3
DA:1710,1
DA:1711,1
DA:1712,1
DA:1713,1
DA:1714,1
DA:1717,1
DA:1718,1
DA:1719,1
DA:1720,1
DA:1721,1
DA:1722,1
DA:1723,1
DA:1724,1
DA:1725,1
DA:1726,1
DA:1727,1
DA:1728,4
DA:1729,3
DA:1730,3
DA:1731,1
DA:1732,1
DA:1733,1
DA:1734,1
DA:1735,2
DA:1736,1
DA:1737,1
DA:1738,1
DA:1739,1
DA:1740,1
DA:1741,1
DA:1742,9
DA:1743,9
DA:1744,1
DA:1745,1
DA:1746,1
DA:1747,1
DA:1748,1
DA:1749,1
DA:1750,1
DA:1751,2
DA:1752,2
DA:1753,2
DA:1754,2
DA:1755,2
DA:1756,2
DA:1757,2
DA:1758,2
DA:1759,6
DA:1760,6
DA:1761,6
DA:1762,6
DA:1763,6
DA:1764,6
DA:1765,6
DA:1766,6
DA:1767,6
DA:1770,1
DA:1771,1
DA:1772,1
DA:1773,1
DA:1774,12
DA:1775,11
DA:1776,10
DA:1777,1
DA:1779,11
DA:1782,1
DA:1783,1
DA:1784,1
DA:1800,1
DA:1801,1
DA:1802,1
DA:1803,1
DA:1804,1
DA:1805,1
DA:1806,1
DA:1807,1
DA:1808,1
DA:1809,1
DA:1810,1
DA:1811,1
DA:1812,1
DA:1813,1
DA:1814,1
DA:1815,1
DA:1816,1
DA:1817,1
DA:1818,1
DA:1819,1
DA:1820,1
DA:1821,1
DA:1822,1
DA:1823,1
DA:1824,1
DA:1825,1
DA:1826,1
DA:1827,1
DA:1830,1
DA:1831,1
DA:1834,1
DA:1835,1
DA:1836,1
DA:1837,1
DA:1838,1
DA:1839,1
DA:1840,1
DA:1841,1
DA:1842,1
DA:1843,1
DA:1844,1
DA:1845,1
DA:1846,1
DA:1847,1
DA:1848,1
DA:1849,1
DA:1850,1
DA:1851,1
DA:1852,1
DA:1853,1
DA:1854,1
DA:1857,1
DA:1858,1
DA:1859,1
DA:1860,1
DA:1861,1
DA:1862,1
DA:1863,1
DA:1864,1
DA:1865,1
DA:1866,1
DA:1867,1
DA:1868,1
DA:1869,1
DA:1870,1
DA:1871,1
DA:1872,1
DA:1873,1
DA:1874,1
DA:1875,1
DA:1876,1
DA:1877,1
DA:1880,1
DA:1881,1
DA:1882,1
DA:1883,1
DA:1884,1
DA:1885,1
DA:1886,1
DA:1887,1
DA:1888,1
DA:1889,1
DA:1890,1
DA:1891,1
DA:1892,1
DA:1893,1
DA:1894,1
DA:1895,1
DA:1896,1
DA:1897,1
DA:1898,1
DA:1899,1
DA:1900,1
DA:1903,1
DA:1904,1
DA:1905,1
DA:1906,1
DA:1907,1
DA:1908,1
DA:1909,1
DA:1910,1
DA:1911,1
DA:1912,1
DA:1913,1
DA:1914,1
DA:1915,1
DA:1916,1
DA:1917,1
DA:1918,1
DA:1919,1
DA:1920,1
DA:1921,1
DA:1922,1
DA:1923,1
DA:1926,1
DA:1927,1
DA:1928,1
DA:1929,1
DA:1930,1
DA:1931,1
DA:1932,1
DA:1933,1
DA:1934,1
DA:1935,1
DA:1936,1
DA:1937,1
DA:1938,1
DA:1939,1
DA:1940,1
DA:1941,1
DA:1942,1
DA:1943,1
DA:1944,1
DA:1945,1
DA:1946,1
DA:1949,1
DA:1950,1
DA:1951,1
DA:1952,1
DA:1953,1
DA:1954,1
DA:1955,1
DA:1956,1
DA:1957,1
DA:1958,1
DA:1959,1
DA:1960,1
DA:1961,1
DA:1962,1
DA:1963,1
DA:1964,1
DA:1965,1
DA:1966,1
DA:1967,1
DA:1968,1
DA:1969,1
DA:1972,1
DA:1973,1
DA:1974,1
DA:1975,1
DA:1976,1
DA:1977,1
DA:1978,1
DA:1979,1
DA:1980,1
DA:1981,1
DA:1982,1
DA:1983,1
DA:1984,1
DA:1985,1
DA:1986,1
DA:1987,1
DA:1988,1
DA:1989,1
DA:1990,1
DA:1991,1
DA:1992,1
DA:1995,1
DA:1996,1
DA:1997,1
DA:1998,1
DA:1999,1
DA:2000,1
DA:2001,1
DA:2002,1
DA:2003,1
DA:2004,1
DA:2005,1
DA:2006,1
DA:2007,1
DA:2008,1
DA:2009,1
DA:2010,1
DA:2011,1
DA:2012,1
DA:2013,1
DA:2014,1
DA:2015,1
DA:2018,1
DA:2019,1
DA:2020,1
DA:2021,1
DA:2022,1
DA:2023,1
DA:2024,1
DA:2025,1
DA:2026,1
DA:2027,1
DA:2028,1
DA:2029,1
DA:2030,1
DA:2031,1
DA:2032,1
DA:2033,1
DA:2034,1
DA:2035,1
DA:2036,1
DA:2037,1
DA:2038,1
DA:2041,1
DA:2042,1
DA:2043,1
DA:2044,1
DA:2045,1
DA:2046,1
DA:2047,1
DA:2048,1
DA:2049,1
DA:2050,1
DA:2051,1
DA:2052,1
DA:2053,1
DA:2054,1
DA:2055,1
DA:2056,1
DA:2057,1
DA:2058,1
DA:2059,1
DA:2060,1
DA:2061,1
DA:2064,1
DA:2065,1
DA:2066,1
DA:2067,1
DA:2068,1
DA:2069,1
DA:2070,1
DA:2071,1
DA:2072,1
DA:2073,1
DA:2074,1
DA:2075,1
DA:2076,1
DA:2077,1
DA:2078,1
DA:2079,1
DA:2080,1
DA:2081,1
DA:2082,1
DA:2083,1
DA:2084,1
DA:2087,1
DA:2088,1
DA:2089,1
DA:2090,1
DA:2091,1
DA:2092,1
DA:2093,1
DA:2094,1
DA:2095,1
DA:2096,1
DA:2097,1
DA:2098,1
DA:2099,1
DA:2100,1
DA:2101,1
DA:2102,1
DA:2103,1
DA:2104,1
DA:2105,1
DA:2106,1
DA:2107,1
DA:2110,1
DA:2111,1
DA:2112,1
DA:2113,1
DA:2114,1
DA:2115,1
DA:2116,1
DA:2117,1
DA:2118,1
DA:2119,1
DA:2120,1
DA:2121,1
DA:2122,1
DA:2123,1
DA:2124,1
DA:2125,1
DA:2126,1
DA:2127,1
DA:2128,1
DA:2129,1
DA:2130,1
DA:2133,1
DA:2134,1
DA:2135,1
DA:2136,1
DA:2137,1
DA:2138,1
DA:2139,1
DA:2140,1
DA:2141,1
DA:2142,1
DA:2143,1
DA:2144,1
DA:2145,1
DA:2146,1
DA:2147,1
DA:2148,1
DA:2149,1
DA:2150,1
DA:2151,1
DA:2152,1
DA:2153,1
DA:2156,1
DA:2157,1
DA:2158,1
DA:2159,1
DA:2160,1
DA:2161,1
DA:2162,1
DA:2163,1
DA:2164,1
DA:2165,1
DA:2166,1
DA:2167,1
DA:2168,1
DA:2169,1
DA:2170,1
DA:2171,1
DA:2172,1
DA:2173,1
DA:2174,1
DA:2175,1
DA:2176,1
DA:2177,1
DA:2178,1
DA:2179,1
DA:2182,1
DA:2183,1
DA:2184,1
DA:2185,1
DA:2186,1
DA:2187,1
DA:2188,1
DA:2189,1
DA:2190,1
DA:2191,1
DA:2192,1
DA:2193,1
DA:2194,1
DA:2195,1
DA:2196,1
DA:2197,1
DA:2198,1
DA:2199,1
DA:2200,1
DA:2201,1
DA:2202,1
DA:2203,1
DA:2204,1
DA:2205,1
DA:2208,1
DA:2209,1
DA:2210,1
DA:2211,1
DA:2212,1
DA:2213,1
DA:2214,1
DA:2215,1
DA:2216,1
DA:2217,1
DA:2218,1
DA:2219,1
DA:2220,1
DA:2221,1
DA:2222,1
DA:2223,1
DA:2224,1
DA:2225,1
DA:2226,1
DA:2227,1
DA:2228,1
DA:2229,1
DA:2230,1
DA:2231,1
DA:2234,1
DA:2235,1
DA:2236,1
DA:2237,1
DA:2238,1
DA:2239,1
DA:2240,1
DA:2241,1
DA:2242,1
DA:2243,1
DA:2244,1
DA:2245,1
DA:2246,1
DA:2247,1
DA:2248,1
DA:2249,1
DA:2250,1
DA:2251,1
DA:2252,1
DA:2253,1
DA:2254,1
DA:2255,1
DA:2256,1
DA:2257,1
DA:2260,1
DA:2261,1
DA:2262,1
DA:2263,1
DA:2264,1
DA:2265,1
DA:2266,1
DA:2267,1
DA:2268,1
DA:2269,1
DA:2270,1
DA:2271,1
DA:2272,1
DA:2273,1
DA:2274,1
DA:2275,1
DA:2276,1
DA:2277,1
DA:2278,1
DA:2279,1
DA:2280,1
DA:2281,1
DA:2282,1
DA:2283,1
DA:2284,1
DA:2285,1
DA:2288,1
DA:2289,1
DA:2290,1
DA:2291,1
DA:2292,1
DA:2293,1
DA:2294,1
DA:2295,1
DA:2296,1
DA:2297,1
DA:2298,1
DA:2300,1
DA:2301,1
DA:2302,1
DA:2303,1
DA:2304,1
DA:2305,1
DA:2306,1
DA:2307,1
DA:2308,1
DA:2309,1
DA:2310,1
DA:2311,1
DA:2312,1
BRF:0
BRH:0
LF:1755
LH:1502
end_of_record
SF:/home/runner/work/qrs/qrs/libs/core/qchrono/src/calendar/calendar_impl.rs
FN:1480,_RNvNtNtNtNtNtNtCs6u9oDspvYRg_7qchrono8calendar13calendar_impl5tests16test_num_bizdays6case_120stt_5_ymd_2021_1_13_s_20end_1_NaiveDate__MIN
FN:1480,_RNvNtNtNtNtNtNtCs6u9oDspvYRg_7qchrono8calendar13calendar_impl5tests16test_num_bizdays6case_120stt_5_ymd_2021_1_13_s_19end_2_ymd_1999_1_1_
FN:1480,_RNvNtNtNtNtNtNtCs6u9oDspvYRg_7qchrono8calendar13calendar_impl5tests16test_num_bizdays6case_120stt_5_ymd_2021_1_13_s_19end_3_ymd_2021_1_1_
FN:1480,_RNvNtNtNtNtNtNtCs6u9oDspvYRg_7qchrono8calendar13calendar_impl5tests16test_num_bizdays6case_120stt_5_ymd_2021_1_13_s_20end_4_ymd_2021_1_10_
FN:1480,_RNvNtNtNtNtNtNtCs6u9oDspvYRg_7qchrono8calendar13calendar_impl5tests16test_num_bizdays6case_120stt_5_ymd_2021_1_13_s_20end_5_ymd_2021_1_13_
FN:1480,_RNvNtNtNtNtNtNtCs6u9oDspvYRg_7qchrono8calendar13calendar_impl5tests16test_num_bizdays6case_120stt_5_ymd_2021_1_13_s_20end_6_ymd_2021_1_20_
FN:1480,_RNvNtNtNtNtNtNtCs6u9oDspvYRg_7qchrono8calendar13calendar_impl5tests16test_num_bizdays6case_120stt_5_ymd_2021_1_13_s_19end_7_ymd_2025_1_1_
FN:1480,_RNvNtNtNtNtNtNtCs6u9oDspvYRg_7qchrono8calendar13calendar_impl5tests16test_num_bizdays6case_120stt_5_ymd_2021_1_13_s_20end_8_NaiveDate__MAX
FN:1480,_RNvNtNtNtNtNtNtCs6u9oDspvYRg_7qchrono8calendar13calendar_impl5tests16test_num_bizdays6case_219stt_3_ymd_2021_1_1_s_20end_1_NaiveDate__MIN
FN:1480,_RNvNtNtNtNtNtNtCs6u9oDspvYRg_7qchrono8calendar13calendar_impl5tests16test_num_bizdays6case_219stt_3_ymd_2021_1_1_s_19end_2_ymd_1999_1_1_
FN:1480,_RNvNtNtNtNtNtNtCs6u9oDspvYRg_7qchrono8calendar13calendar_impl5tests16test_num_bizdays6case_219stt_3_ymd_2021_1_1_s_19end_3_ymd_2021_1_1_
FN:1480,_RNvNtNtNtNtNtNtCs6u9oDspvYRg_7qchrono8calendar13calendar_impl5tests16test_num_bizdays6case_219stt_3_ymd_2021_1_1_s_20end_4_ymd_2021_1_10_
FN:1480,_RNvNtNtNtNtNtNtCs6u9oDspvYRg_7qchrono8calendar13calendar_impl5tests16test_num_bizdays6case_219stt_3_ymd_2021_1_1_s_20end_5_ymd_2021_1_13_
FN:1480,_RNvNtNtNtNtNtNtCs6u9oDspvYRg_7qchrono8calendar13calendar_impl5tests16test_num_bizdays6case_219stt_3_ymd_2021_1_1_s_20end_6_ymd_2021_1_20_
FN:1480,_RNvNtNtNtNtNtNtCs6u9oDspvYRg_7qchrono8calendar13calendar_impl5tests16test_num_bizdays6case_219stt_3_ymd_2021_1_1_s_19end_7_ymd_2025_1_1_
FN:1480,_RNvNtNtNtNtNtNtCs6u9oDspvYRg_7qchrono8calendar13calendar_impl5tests16test_num_bizdays6case_219stt_3_ymd_2021_1_1_s_20end_8_NaiveDate__MAX
FN:1480,_RNvNtNtNtNtNtNtCs6u9oDspvYRg_7qchrono8calendar13calendar_impl5tests16test_num_bizdays6case_220stt_6_ymd_2021_1_20_s_20end_1_NaiveDate__MIN
FN:1480,_RNvNtNtNtNtNtNtCs6u9oDspvYRg_7qchrono8calendar13calendar_impl5tests16test_num_bizdays6case_220stt_6_ymd_2021_1_20_s_19end_2_ymd_1999_1_1_
FN:1480,_RNvNtNtNtNtNtNtCs6u9oDspvYRg_7qchrono8calendar13calendar_impl5tests16test_num_bizdays6case_220stt_6_ymd_2021_1_20_s_19end_3_ymd_2021_1_1_
FN:1480,_RNvNtNtNtNtNtNtCs6u9oDspvYRg_7qchrono8calendar13calendar_impl5tests16test_num_bizdays6case_220stt_6_ymd_2021_1_20_s_20end_4_ymd_2021_1_10_
FN:1480,_RNvNtNtNtNtNtNtCs6u9oDspvYRg_7qchrono8calendar13calendar_impl5tests16test_num_bizdays6case_220stt_6_ymd_2021_1_20_s_20end_5_ymd_2021_1_13_
FN:1480,_RNvNtNtNtNtNtNtCs6u9oDspvYRg_7qchrono8calendar13calendar_impl5tests16test_num_bizdays6case_220stt_6_ymd_2021_1_20_s_20end_6_ymd_2021_1_20_
FN:1480,_RNvNtNtNtNtNtNtCs6u9oDspvYRg_7qchrono8calendar13calendar_impl5tests16test_num_bizdays6case_220stt_6_ymd_2021_1_20_s_19end_7_ymd_2025_1_1_
FN:1480,_RNvNtNtNtNtNtNtCs6u9oDspvYRg_7qchrono8calendar13calendar_impl5tests16test_num_bizdays6case_220stt_6_ymd_2021_1_20_s_20end_8_NaiveDate__MAX
FN:1480,_RNvNtNtNtNtNtNtCs6u9oDspvYRg_7qchrono8calendar13calendar_impl5tests16test_num_bizdays6case_420stt_8_NaiveDate__MAXs_20end_1_NaiveDate__MIN
FN:1480,_RNvNtNtNtNtNtNtCs6u9oDspvYRg_7qchrono8calendar13calendar_impl5tests16test_num_bizdays6case_420stt_8_NaiveDate__MAXs_19end_2_ymd_1999_1_1_
FN:1480,_RNvNtNtNtNtNtNtCs6u9oDspvYRg_7qchrono8calendar13calendar_impl5tests16test_num_bizdays6case_420stt_8_NaiveDate__MAXs_19end_3_ymd_2021_1_1_
FN:1480,_RNvNtNtNtNtNtNtCs6u9oDspvYRg_7qchrono8calendar13calendar_impl5tests16test_num_bizdays6case_420stt_8_NaiveDate__MAXs_20end_4_ymd_2021_1_10_
FN:1480,_RNvNtNtNtNtNtNtCs6u9oDspvYRg_7qchrono8calendar13calendar_impl5tests16test_num_bizdays6case_420stt_8_NaiveDate__MAXs_20end_5_ymd_2021_1_13_
FN:1480,_RNvNtNtNtNtNtNtCs6u9oDspvYRg_7qchrono8calendar13calendar_impl5tests16test_num_bizdays6case_420stt_8_NaiveDate__MAXs_20end_6_ymd_2021_1_20_
FN:1480,_RNvNtNtNtNtNtNtCs6u9oDspvYRg_7qchrono8calendar13calendar_impl5tests16test_num_bizdays6case_420stt_8_NaiveDate__MAXs_19end_7_ymd_2025_1_1_
FN:1480,_RNvNtNtNtNtNtNtCs6u9oDspvYRg_7qchrono8calendar13calendar_impl5tests16test_num_bizdays6case_420stt_8_NaiveDate__MAXs_20end_8_NaiveDate__MAX
FN:1480,_RNvNtNtNtNtNtNtCs6u9oDspvYRg_7qchrono8calendar13calendar_impl5tests16test_num_bizdays6case_119stt_2_ymd_1999_1_1_s_20end_1_NaiveDate__MIN
FN:1480,_RNvNtNtNtNtNtNtCs6u9oDspvYRg_7qchrono8calendar13calendar_impl5tests16test_num_bizdays6case_119stt_2_ymd_1999_1_1_s_19end_2_ymd_1999_1_1_
FN:1480,_RNvNtNtNtNtNtNtCs6u9oDspvYRg_7qchrono8calendar13calendar_impl5tests16test_num_bizdays6case_119stt_2_ymd_1999_1_1_s_19end_3_ymd_2021_1_1_
FN:1480,_RNvNtNtNtNtNtNtCs6u9oDspvYRg_7qchrono8calendar13calendar_impl5tests16test_num_bizdays6case_119stt_2_ymd_1999_1_1_s_20end_4_ymd_2021_1_10_
FN:1480,_RNvNtNtNtNtNtNtCs6u9oDspvYRg_7qchrono8calendar13calendar_impl5tests16test_num_bizdays6case_119stt_2_ymd_1999_1_1_s_20end_5_ymd_2021_1_13_
FN:1480,_RNvNtNtNtNtNtNtCs6u9oDspvYRg_7qchrono8calendar13calendar_impl5tests16test_num_bizdays6case_119stt_2_ymd_1999_1_1_s_20end_6_ymd_2021_1_20_
FN:1480,_RNvNtNtNtNtNtNtCs6u9oDspvYRg_7qchrono8calendar13calendar_impl5tests16test_num_bizdays6case_119stt_2_ymd_1999_1_1_s_19end_7_ymd_2025_1_1_
FN:1480,_RNvNtNtNtNtNtNtCs6u9oDspvYRg_7qchrono8calendar13calendar_impl5tests16test_num_bizdays6case_119stt_2_ymd_1999_1_1_s_20end_8_NaiveDate__MAX
FN:1480,_RNvNtNtNtNtNtNtCs6u9oDspvYRg_7qchrono8calendar13calendar_impl5tests16test_num_bizdays6case_220stt_8_NaiveDate__MAXs_20end_1_NaiveDate__MIN
FN:1480,_RNvNtNtNtNtNtNtCs6u9oDspvYRg_7qchrono8calendar13calendar_impl5tests16test_num_bizdays6case_220stt_8_NaiveDate__MAXs_19end_2_ymd_1999_1_1_
FN:1480,_RNvNtNtNtNtNtNtCs6u9oDspvYRg_7qchrono8calendar13calendar_impl5tests16test_num_bizdays6case_220stt_8_NaiveDate__MAXs_19end_3_ymd_2021_1_1_
FN:1480,_RNvNtNtNtNtNtNtCs6u9oDspvYRg_7qchrono8calendar13calendar_impl5tests16test_num_bizdays6case_220stt_8_NaiveDate__MAXs_20end_4_ymd_2021_1_10_
FN:1480,_RNvNtNtNtNtNtNtCs6u9oDspvYRg_7qchrono8calendar13calendar_impl5tests16test_num_bizdays6case_220stt_8_NaiveDate__MAXs_20end_5_ymd_2021_1_13_
FN:1480,_RNvNtNtNtNtNtNtCs6u9oDspvYRg_7qchrono8calendar13calendar_impl5tests16test_num_bizdays6case_220stt_8_NaiveDate__MAXs_20end_6_ymd_2021_1_20_
FN:1480,_RNvNtNtNtNtNtNtCs6u9oDspvYRg_7qchrono8calendar13calendar_impl5tests16test_num_bizdays6case_220stt_8_NaiveDate__MAXs_19end_7_ymd_2025_1_1_
FN:1480,_RNvNtNtNtNtNtNtCs6u9oDspvYRg_7qchrono8calendar13calendar_impl5tests16test_num_bizdays6case_220stt_8_NaiveDate__MAXs_20end_8_NaiveDate__MAX
FN:1480,_RNvNtNtNtNtNtCs6u9oDspvYRg_7qchrono8calendar13calendar_impl5tests34test_num_bizdays_unbounded_partial6case_1s_18d_1_NaiveDate__MIN
FN:1480,_RNvNtNtNtNtNtCs6u9oDspvYRg_7qchrono8calendar13calendar_impl5tests34test_num_bizdays_unbounded_partial6case_1s_17d_2_ymd_1999_1_1_
FN:1480,_RNvNtNtNtNtNtCs6u9oDspvYRg_7qchrono8calendar13calendar_impl5tests34test_num_bizdays_unbounded_partial6case_1s_17d_3_ymd_2021_1_1_
FN:1480,_RNvNtNtNtNtNtCs6u9oDspvYRg_7qchrono8calendar13calendar_impl5tests34test_num_bizdays_unbounded_partial6case_1s_18d_4_ymd_2021_1_10_
FN:1480,_RNvNtNtNtNtNtCs6u9oDspvYRg_7qchrono8calendar13calendar_impl5tests34test_num_bizdays_unbounded_partial6case_1s_18d_5_ymd_2021_1_13_
FN:1480,_RNvNtNtNtNtNtCs6u9oDspvYRg_7qchrono8calendar13calendar_impl5tests34test_num_bizdays_unbounded_partial6case_1s_18d_6_ymd_2021_1_20_
FN:1480,_RNvNtNtNtNtNtCs6u9oDspvYRg_7qchrono8calendar13calendar_impl5tests34test_num_bizdays_unbounded_partial6case_1s_17d_7_ymd_2025_1_1_
FN:1480,_RNvNtNtNtNtNtCs6u9oDspvYRg_7qchrono8calendar13calendar_impl5tests34test_num_bizdays_unbounded_partial6case_1s_18d_8_NaiveDate__MAX
FN:1480,_RNvNtNtNtNtNtCs6u9oDspvYRg_7qchrono8calendar13calendar_impl5tests34test_num_bizdays_unbounded_partial6case_3s_18d_1_NaiveDate__MIN
FN:1480,_RNvNtNtNtNtNtCs6u9oDspvYRg_7qchrono8calendar13calendar_impl5tests34test_num_bizdays_unbounded_partial6case_3s_17d_2_ymd_1999_1_1_
FN:1480,_RNvNtNtNtNtNtCs6u9oDspvYRg_7qchrono8calendar13calendar_impl5tests34test_num_bizdays_unbounded_partial6case_3s_17d_3_ymd_2021_1_1_
FN:1480,_RNvNtNtNtNtNtCs6u9oDspvYRg_7qchrono8calendar13calendar_impl5tests34test_num_bizdays_unbounded_partial6case_3s_18d_4_ymd_2021_1_10_
FN:1480,_RNvNtNtNtNtNtCs6u9oDspvYRg_7qchrono8calendar13calendar_impl5tests34test_num_bizdays_unbounded_partial6case_3s_18d_5_ymd_2021_1_13_
FN:1480,_RNvNtNtNtNtNtCs6u9oDspvYRg_7qchrono8calendar13calendar_impl5tests34test_num_bizdays_unbounded_partial6case_3s_18d_6_ymd_2021_1_20_
FN:1480,_RNvNtNtNtNtNtCs6u9oDspvYRg_7qchrono8calendar13calendar_impl5tests34test_num_bizdays_unbounded_partial6case_3s_17d_7_ymd_2025_1_1_
FN:1480,_RNvNtNtNtNtNtCs6u9oDspvYRg_7qchrono8calendar13calendar_impl5tests34test_num_bizdays_unbounded_partial6case_3s_18d_8_NaiveDate__MAX
FN:1480,_RNvNtNtNtNtNtNtCs6u9oDspvYRg_7qchrono8calendar13calendar_impl5tests16test_num_bizdays6case_319stt_3_ymd_2021_1_1_s_20end_1_NaiveDate__MIN
FN:1480,_RNvNtNtNtNtNtNtCs6u9oDspvYRg_7qchrono8calendar13calendar_impl5tests16test_num_bizdays6case_319stt_3_ymd_2021_1_1_s_19end_2_ymd_1999_1_1_
FN:1480,_RNvNtNtNtNtNtNtCs6u9oDspvYRg_7qchrono8calendar13calendar_impl5tests16test_num_bizdays6case_319stt_3_ymd_2021_1_1_s_19end_3_ymd_2021_1_1_
FN:1480,_RNvNtNtNtNtNtNtCs6u9oDspvYRg_7qchrono8calendar13calendar_impl5tests16test_num_bizdays6case_319stt_3_ymd_2021_1_1_s_20end_4_ymd_2021_1_10_
FN:1480,_RNvNtNtNtNtNtNtCs6u9oDspvYRg_7qchrono8calendar13calendar_impl5tests16test_num_bizdays6case_319stt_3_ymd_2021_1_1_s_20end_5_ymd_2021_1_13_
FN:1480,_RNvNtNtNtNtNtNtCs6u9oDspvYRg_7qchrono8calendar13calendar_impl5tests16test_num_bizdays6case_319stt_3_ymd_2021_1_1_s_20end_6_ymd_2021_1_20_
FN:1480,_RNvNtNtNtNtNtNtCs6u9oDspvYRg_7qchrono8calendar13calendar_impl5tests16test_num_bizdays6case_319stt_3_ymd_2021_1_1_s_19end_7_ymd_2025_1_1_
FN:1480,_RNvNtNtNtNtNtNtCs6u9oDspvYRg_7qchrono8calendar13calendar_impl5tests16test_num_bizdays6case_319stt_3_ymd_2021_1_1_s_20end_8_NaiveDate__MAX
FN:1480,_RNvNtNtNtNtNtNtCs6u9oDspvYRg_7qchrono8calendar13calendar_impl5tests16test_num_bizdays6case_320stt_4_ymd_2021_1_10_s_20end_1_NaiveDate__MIN
FN:1480,_RNvNtNtNtNtNtNtCs6u9oDspvYRg_7qchrono8calendar13calendar_impl5tests16test_num_bizdays6case_320stt_4_ymd_2021_1_10_s_19end_2_ymd_1999_1_1_
FN:1480,_RNvNtNtNtNtNtNtCs6u9oDspvYRg_7qchrono8calendar13calendar_impl5tests16test_num_bizdays6case_320stt_4_ymd_2021_1_10_s_19end_3_ymd_2021_1_1_
FN:1480,_RNvNtNtNtNtNtNtCs6u9oDspvYRg_7qchrono8calendar13calendar_impl5tests16test_num_bizdays6case_320stt_4_ymd_2021_1_10_s_20end_4_ymd_2021_1_10_
FN:1480,_RNvNtNtNtNtNtNtCs6u9oDspvYRg_7qchrono8calendar13calendar_impl5tests16test_num_bizdays6case_320stt_4_ymd_2021_1_10_s_20end_5_ymd_2021_1_13_
FN:1480,_RNvNtNtNtNtNtNtCs6u9oDspvYRg_7qchrono8calendar13calendar_impl5tests16test_num_bizdays6case_320stt_4_ymd_2021_1_10_s_20end_6_ymd_2021_1_20_
FN:1480,_RNvNtNtNtNtNtNtCs6u9oDspvYRg_7qchrono8calendar13calendar_impl5tests16test_num_bizdays6case_320stt_4_ymd_2021_1_10_s_19end_7_ymd_2025_1_1_
FN:1480,_RNvNtNtNtNtNtNtCs6u9oDspvYRg_7qchrono8calendar13calendar_impl5tests16test_num_bizdays6case_320stt_4_ymd_2021_1_10_s_20end_8_NaiveDate__MAX
FN:1480,_RNvNtNtNtNtNtNtCs6u9oDspvYRg_7qchrono8calendar13calendar_impl5tests16test_num_bizdays6case_320stt_6_ymd_2021_1_20_s_20end_1_NaiveDate__MIN
FN:1480,_RNvNtNtNtNtNtNtCs6u9oDspvYRg_7qchrono8calendar13calendar_impl5tests16test_num_bizdays6case_320stt_6_ymd_2021_1_20_s_19end_2_ymd_1999_1_1_
FN:1480,_RNvNtNtNtNtNtNtCs6u9oDspvYRg_7qchrono8calendar13calendar_impl5tests16test_num_bizdays6case_320stt_6_ymd_2021_1_20_s_19end_3_ymd_2021_1_1_
FN:1480,_RNvNtNtNtNtNtNtCs6u9oDspvYRg_7qchrono8calendar13calendar_impl5tests16test_num_bizdays6case_320stt_6_ymd_2021_1_20_s_20end_4_ymd_2021_1_10_
FN:1480,_RNvNtNtNtNtNtNtCs6u9oDspvYRg_7qchrono8calendar13calendar_impl5tests16test_num_bizdays6case_320stt_6_ymd_2021_1_20_s_20end_5_ymd_2021_1_13_
FN:1480,_RNvNtNtNtNtNtNtCs6u9oDspvYRg_7qchrono8calendar13calendar_impl5tests16test_num_bizdays6case_320stt_6_ymd_2021_1_20_s_20end_6_ymd_2021_1_20_
FN:1480,_RNvNtNtNtNtNtNtCs6u9oDspvYRg_7qchrono8calendar13calendar_impl5tests16test_num_bizdays6case_320stt_6_ymd_2021_1_20_s_19end_7_ymd_2025_1_1_
FN:1480,_RNvNtNtNtNtNtNtCs6u9oDspvYRg_7qchrono8calendar13calendar_impl5tests16test_num_bizdays6case_320stt_6_ymd_2021_1_20_s_20end_8_NaiveDate__MAX
FN:1480,_RNvNtNtNtNtNtNtCs6u9oDspvYRg_7qchrono8calendar13calendar_impl5tests16test_num_bizdays6case_320stt_8_NaiveDate__MAXs_20end_1_NaiveDate__MIN
FN:1480,_RNvNtNtNtNtNtNtCs6u9oDspvYRg_7qchrono8calendar13calendar_impl5tests16test_num_bizdays6case_320stt_8_NaiveDate__MAXs_19end_2_ymd_1999_1_1_
FN:1480,_RNvNtNtNtNtNtNtCs6u9oDspvYRg_7qchrono8calendar13calendar_impl5tests16test_num_bizdays6case_320stt_8_NaiveDate__MAXs_19end_3_ymd_2021_1_1_
FN:1480,_RNvNtNtNtNtNtNtCs6u9oDspvYRg_7qchrono8calendar13calendar_impl5tests16test_num_bizdays6case_320stt_8_NaiveDate__MAXs_20end_4_ymd_2021_1_10_
FN:1480,_RNvNtNtNtNtNtNtCs6u9oDspvYRg_7qchrono8calendar13calendar_impl5tests16test_num_bizdays6case_320stt_8_NaiveDate__MAXs_20end_5_ymd_2021_1_13_
FN:1480,_RNvNtNtNtNtNtNtCs6u9oDspvYRg_7qchrono8calendar13calendar_impl5tests16test_num_bizdays6case_320stt_8_NaiveDate__MAXs_20end_6_ymd_2021_1_20_
FN:1480,_RNvNtNtNtNtNtNtCs6u9oDspvYRg_7qchrono8calendar13calendar_impl5tests16test_num_bizdays6case_320stt_8_NaiveDate__MAXs_19end_7_ymd_2025_1_1_
FN:1480,_RNvNtNtNtNtNtNtCs6u9oDspvYRg_7qchrono8calendar13calendar_impl5tests16test_num_bizdays6case_320stt_8_NaiveDate__MAXs_20end_8_NaiveDate__MAX
FN:900,_RNvNtNtNtCs6u9oDspvYRg_7qchrono8calendar13calendar_impl5tests3ymd
FN:905,_RNvNtNtNtCs6u9oDspvYRg_7qchrono8calendar13calendar_impl5testss_11test_new_ok
FN:918,_RNvNtNtNtCs6u9oDspvYRg_7qchrono8calendar13calendar_impl5testss_15test_new_ok_dup
FN:931,_RNvNtNtNtCs6u9oDspvYRg_7qchrono8calendar13calendar_impl5testss_20test_new_ok_unsorted
FN:944,_RNvNtNtNtCs6u9oDspvYRg_7qchrono8calendar13calendar_impl5testss_29test_new_ng_weekend_extra_hol
FN:957,_RNvNtNtNtCs6u9oDspvYRg_7qchrono8calendar13calendar_impl5testss_64test_new_ok_weekend_extra_hol_with_treat_weekend_as_business_day
FN:970,_RNvNtNtNtCs6u9oDspvYRg_7qchrono8calendar13calendar_impl5testss_28test_new_ng_weekday_extra_bd
FN:983,_RNvNtNtNtCs6u9oDspvYRg_7qchrono8calendar13calendar_impl5testss_27test_new_ng_unsorted_period
FN:996,_RNvNtNtNtCs6u9oDspvYRg_7qchrono8calendar13calendar_impl5testss_55test_new_ng_extra_bd_with_treat_weekend_as_business_day
FN:1009,_RNvNtNtNtCs6u9oDspvYRg_7qchrono8calendar13calendar_impl5testss_14test_serialize
FN:1034,_RNvNtNtNtCs6u9oDspvYRg_7qchrono8calendar13calendar_impl5testss_16test_deserialize
FN:1058,_RNvNtNtNtCs6u9oDspvYRg_7qchrono8calendar13calendar_impl5testss_46test_deserialize_treat_weekend_as_business_day
FN:1082,_RNvNtNtNtCs6u9oDspvYRg_7qchrono8calendar13calendar_impl5testss_24test_of_any_closed_empty
FN:1089,_RNvNtNtNtCs6u9oDspvYRg_7qchrono8calendar13calendar_impl5testss_25test_of_any_closed_single
FN:1105,_RNvNtNtNtCs6u9oDspvYRg_7qchrono8calendar13calendar_impl5testss_55test_of_any_closed_single_treat_weekend_as_business_day
FN:1121,_RNvNtNtNtCs6u9oDspvYRg_7qchrono8calendar13calendar_impl5testss_27test_of_any_closed_multiple
FN:1147,_RNvNtNtNtCs6u9oDspvYRg_7qchrono8calendar13calendar_impl5testss_51test_of_any_closed_multiple_treat_weekend_as_bizday
FN:1173,_RNvNtNtNtCs6u9oDspvYRg_7qchrono8calendar13calendar_impl5testss_55test_of_any_closed_multiple_treat_weekend_as_bizday_all
FN:1199,_RNvNtNtNtCs6u9oDspvYRg_7qchrono8calendar13calendar_impl5testss_24test_of_all_closed_empty
FN:1206,_RNvNtNtNtCs6u9oDspvYRg_7qchrono8calendar13calendar_impl5testss_25test_of_all_closed_single
FN:1222,_RNvNtNtNtCs6u9oDspvYRg_7qchrono8calendar13calendar_impl5testss_55test_of_all_closed_single_treat_weekend_as_business_day
FN:1238,_RNvNtNtNtCs6u9oDspvYRg_7qchrono8calendar13calendar_impl5testss_27test_of_all_closed_multiple
FN:1264,_RNvNtNtNtCs6u9oDspvYRg_7qchrono8calendar13calendar_impl5testss_51test_of_all_closed_multiple_treat_weekend_as_bizday
FN:1290,_RNvNtNtNtCs6u9oDspvYRg_7qchrono8calendar13calendar_impl5testss_17test_valid_period
FN:1303,_RNvNtNtNtCs6u9oDspvYRg_7qchrono8calendar13calendar_impl5testss_13test_validate
FN:1314,_RNvNtNtNtCs6u9oDspvYRg_7qchrono8calendar13calendar_impl5testss_15test_is_holiday
FN:1339,_RNvNtNtNtCs6u9oDspvYRg_7qchrono8calendar13calendar_impl5testss_45test_is_holiday_treat_weekend_as_business_day
FN:1358,_RNvNtNtNtCs6u9oDspvYRg_7qchrono8calendar13calendar_impl5testss_20test_is_business_day
FN:1381,_RNvNtNtNtCs6u9oDspvYRg_7qchrono8calendar13calendar_impl5testss_50test_is_business_day_treat_weekend_as_business_day
FN:1398,_RNvNtNtNtCs6u9oDspvYRg_7qchrono8calendar13calendar_impl5testss_17test_iter_bizdays
FN:1420,_RNvNtNtNtCs6u9oDspvYRg_7qchrono8calendar13calendar_impl5testss_21test_iter_bizdays_rev
FN:1442,_RNvNtNtNtCs6u9oDspvYRg_7qchrono8calendar13calendar_impl5testss_18test_iter_holidays
FN:1461,_RNvNtNtNtCs6u9oDspvYRg_7qchrono8calendar13calendar_impl5testss_22test_iter_holidays_rev
FN:1613,_RNvNtNtNtCs6u9oDspvYRg_7qchrono8calendar13calendar_impl5testss_10test_bitor
FN:1637,_RNvNtNtNtCs6u9oDspvYRg_7qchrono8calendar13calendar_impl5testss_11test_bitand
FN:1480,_RNvNtNtNtCs6u9oDspvYRg_7qchrono8calendar13calendar_impl5tests16test_num_bizdays
FN:1587,_RNCNvNtNtNtCs6u9oDspvYRg_7qchrono8calendar13calendar_impl5tests16test_num_bizdays0B9_
FN:1588,_RNCNvNtNtNtCs6u9oDspvYRg_7qchrono8calendar13calendar_impl5tests16test_num_bizdayss_0B9_
FN:1590,_RNCNvNtNtNtCs6u9oDspvYRg_7qchrono8calendar13calendar_impl5tests16test_num_bizdayss0_0B9_
FN:1590,_RNCNCNvNtNtNtCs6u9oDspvYRg_7qchrono8calendar13calendar_impl5tests16test_num_bizdayss0_00Bb_
FN:1598,_RNCNvNtNtNtCs6u9oDspvYRg_7qchrono8calendar13calendar_impl5tests16test_num_bizdayss1_0B9_
FN:1599,_RNCNvNtNtNtCs6u9oDspvYRg_7qchrono8calendar13calendar_impl5tests16test_num_bizdayss2_0B9_
FN:1601,_RNCNvNtNtNtCs6u9oDspvYRg_7qchrono8calendar13calendar_impl5tests16test_num_bizdayss3_0B9_
FN:1601,_RNCNCNvNtNtNtCs6u9oDspvYRg_7qchrono8calendar13calendar_impl5tests16test_num_bizdayss3_00Bb_
FN:1480,_RNvNtNtNtNtNtNtCs6u9oDspvYRg_7qchrono8calendar13calendar_impl5tests16test_num_bizdays6case_320stt_5_ymd_2021_1_13_s_20end_1_NaiveDate__MIN
FN:1480,_RNvNtNtNtNtNtNtCs6u9oDspvYRg_7qchrono8calendar13calendar_impl5tests16test_num_bizdays6case_320stt_5_ymd_2021_1_13_s_19end_2_ymd_1999_1_1_
FN:1480,_RNvNtNtNtNtNtNtCs6u9oDspvYRg_7qchrono8calendar13calendar_impl5tests16test_num_bizdays6case_320stt_5_ymd_2021_1_13_s_19end_3_ymd_2021_1_1_
FN:1480,_RNvNtNtNtNtNtNtCs6u9oDspvYRg_7qchrono8calendar13calendar_impl5tests16test_num_bizdays6case_320stt_5_ymd_2021_1_13_s_20end_4_ymd_2021_1_10_
FN:1480,_RNvNtNtNtNtNtNtCs6u9oDspvYRg_7qchrono8calendar13calendar_impl5tests16test_num_bizdays6case_320stt_5_ymd_2021_1_13_s_20end_5_ymd_2021_1_13_
FN:1480,_RNvNtNtNtNtNtNtCs6u9oDspvYRg_7qchrono8calendar13calendar_impl5tests16test_num_bizdays6case_320stt_5_ymd_2021_1_13_s_20end_6_ymd_2021_1_20_
FN:1480,_RNvNtNtNtNtNtNtCs6u9oDspvYRg_7qchrono8calendar13calendar_impl5tests16test_num_bizdays6case_320stt_5_ymd_2021_1_13_s_19end_7_ymd_2025_1_1_
FN:1480,_RNvNtNtNtNtNtNtCs6u9oDspvYRg_7qchrono8calendar13calendar_impl5tests16test_num_bizdays6case_320stt_5_ymd_2021_1_13_s_20end_8_NaiveDate__MAX
FN:1480,_RNvNtNtNtCs6u9oDspvYRg_7qchrono8calendar13calendar_impl5tests34test_num_bizdays_unbounded_partial
FN:1480,_RNvNtNtNtNtNtCs6u9oDspvYRg_7qchrono8calendar13calendar_impl5tests34test_num_bizdays_unbounded_partial6case_4s_18d_1_NaiveDate__MIN
FN:1480,_RNvNtNtNtNtNtCs6u9oDspvYRg_7qchrono8calendar13calendar_impl5tests34test_num_bizdays_unbounded_partial6case_4s_17d_2_ymd_1999_1_1_
FN:1480,_RNvNtNtNtNtNtCs6u9oDspvYRg_7qchrono8calendar13calendar_impl5tests34test_num_bizdays_unbounded_partial6case_4s_17d_3_ymd_2021_1_1_
FN:1480,_RNvNtNtNtNtNtCs6u9oDspvYRg_7qchrono8calendar13calendar_impl5tests34test_num_bizdays_unbounded_partial6case_4s_18d_4_ymd_2021_1_10_
FN:1480,_RNvNtNtNtNtNtCs6u9oDspvYRg_7qchrono8calendar13calendar_impl5tests34test_num_bizdays_unbounded_partial6case_4s_18d_5_ymd_2021_1_13_
FN:1480,_RNvNtNtNtNtNtCs6u9oDspvYRg_7qchrono8calendar13calendar_impl5tests34test_num_bizdays_unbounded_partial6case_4s_18d_6_ymd_2021_1_20_
FN:1480,_RNvNtNtNtNtNtCs6u9oDspvYRg_7qchrono8calendar13calendar_impl5tests34test_num_bizdays_unbounded_partial6case_4s_17d_7_ymd_2025_1_1_
FN:1480,_RNvNtNtNtNtNtCs6u9oDspvYRg_7qchrono8calendar13calendar_impl5tests34test_num_bizdays_unbounded_partial6case_4s_18d_8_NaiveDate__MAX
FN:1480,_RNvNtNtNtCs6u9oDspvYRg_7qchrono8calendar13calendar_impl5tests26test_num_bizdays_unbounded
FN:1480,_RNvNtNtNtNtNtNtCs6u9oDspvYRg_7qchrono8calendar13calendar_impl5tests16test_num_bizdays6case_120stt_4_ymd_2021_1_10_s_20end_1_NaiveDate__MIN
FN:1480,_RNvNtNtNtNtNtNtCs6u9oDspvYRg_7qchrono8calendar13calendar_impl5tests16test_num_bizdays6case_120stt_4_ymd_2021_1_10_s_19end_2_ymd_1999_1_1_
FN:1480,_RNvNtNtNtNtNtNtCs6u9oDspvYRg_7qchrono8calendar13calendar_impl5tests16test_num_bizdays6case_120stt_4_ymd_2021_1_10_s_19end_3_ymd_2021_1_1_
FN:1480,_RNvNtNtNtNtNtNtCs6u9oDspvYRg_7qchrono8calendar13calendar_impl5tests16test_num_bizdays6case_120stt_4_ymd_2021_1_10_s_20end_4_ymd_2021_1_10_
FN:1480,_RNvNtNtNtNtNtNtCs6u9oDspvYRg_7qchrono8calendar13calendar_impl5tests16test_num_bizdays6case_120stt_4_ymd_2021_1_10_s_20end_5_ymd_2021_1_13_
FN:1480,_RNvNtNtNtNtNtNtCs6u9oDspvYRg_7qchrono8calendar13calendar_impl5tests16test_num_bizdays6case_120stt_4_ymd_2021_1_10_s_20end_6_ymd_2021_1_20_
FN:1480,_RNvNtNtNtNtNtNtCs6u9oDspvYRg_7qchrono8calendar13calendar_impl5tests16test_num_bizdays6case_120stt_4_ymd_2021_1_10_s_19end_7_ymd_2025_1_1_
FN:1480,_RNvNtNtNtNtNtNtCs6u9oDspvYRg_7qchrono8calendar13calendar_impl5tests16test_num_bizdays6case_120stt_4_ymd_2021_1_10_s_20end_8_NaiveDate__MAX
FN:1480,_RNvNtNtNtNtNtNtCs6u9oDspvYRg_7qchrono8calendar13calendar_impl5tests16test_num_bizdays6case_120stt_8_NaiveDate__MAXs_20end_1_NaiveDate__MIN
FN:1480,_RNvNtNtNtNtNtNtCs6u9oDspvYRg_7qchrono8calendar13calendar_impl5tests16test_num_bizdays6case_120stt_8_NaiveDate__MAXs_19end_2_ymd_1999_1_1_
FN:1480,_RNvNtNtNtNtNtNtCs6u9oDspvYRg_7qchrono8calendar13calendar_impl5tests16test_num_bizdays6case_120stt_8_NaiveDate__MAXs_19end_3_ymd_2021_1_1_
FN:1480,_RNvNtNtNtNtNtNtCs6u9oDspvYRg_7qchrono8calendar13calendar_impl5tests16test_num_bizdays6case_120stt_8_NaiveDate__MAXs_20end_4_ymd_2021_1_10_
FN:1480,_RNvNtNtNtNtNtNtCs6u9oDspvYRg_7qchrono8calendar13calendar_impl5tests16test_num_bizdays6case_120stt_8_NaiveDate__MAXs_20end_5_ymd_2021_1_13_
FN:1480,_RNvNtNtNtNtNtNtCs6u9oDspvYRg_7qchrono8calendar13calendar_impl5tests16test_num_bizdays6case_120stt_8_NaiveDate__MAXs_20end_6_ymd_2021_1_20_
FN:1480,_RNvNtNtNtNtNtNtCs6u9oDspvYRg_7qchrono8calendar13calendar_impl5tests16test_num_bizdays6case_120stt_8_NaiveDate__MAXs_19end_7_ymd_2025_1_1_
FN:1480,_RNvNtNtNtNtNtNtCs6u9oDspvYRg_7qchrono8calendar13calendar_impl5tests16test_num_bizdays6case_120stt_8_NaiveDate__MAXs_20end_8_NaiveDate__MAX
FN:1480,_RNvNtNtNtNtNtNtCs6u9oDspvYRg_7qchrono8calendar13calendar_impl5tests16test_num_bizdays6case_219stt_7_ymd_2025_1_1_s_20end_1_NaiveDate__MIN
FN:1480,_RNvNtNtNtNtNtNtCs6u9oDspvYRg_7qchrono8calendar13calendar_impl5tests16test_num_bizdays6case_219stt_7_ymd_2025_1_1_s_19end_2_ymd_1999_1_1_
FN:1480,_RNvNtNtNtNtNtNtCs6u9oDspvYRg_7qchrono8calendar13calendar_impl5tests16test_num_bizdays6case_219stt_7_ymd_2025_1_1_s_19end_3_ymd_2021_1_1_
FN:1480,_RNvNtNtNtNtNtNtCs6u9oDspvYRg_7qchrono8calendar13calendar_impl5tests16test_num_bizdays6case_219stt_7_ymd_2025_1_1_s_20end_4_ymd_2021_1_10_
FN:1480,_RNvNtNtNtNtNtNtCs6u9oDspvYRg_7qchrono8calendar13calendar_impl5tests16test_num_bizdays6case_219stt_7_ymd_2025_1_1_s_20end_5_ymd_2021_1_13_
FN:1480,_RNvNtNtNtNtNtNtCs6u9oDspvYRg_7qchrono8calendar13calendar_impl5tests16test_num_bizdays6case_219stt_7_ymd_2025_1_1_s_20end_6_ymd_2021_1_20_
FN:1480,_RNvNtNtNtNtNtNtCs6u9oDspvYRg_7qchrono8calendar13calendar_impl5tests16test_num_bizdays6case_219stt_7_ymd_2025_1_1_s_19end_7_ymd_2025_1_1_
FN:1480,_RNvNtNtNtNtNtNtCs6u9oDspvYRg_7qchrono8calendar13calendar_impl5tests16test_num_bizdays6case_219stt_7_ymd_2025_1_1_s_20end_8_NaiveDate__MAX
FN:1480,_RNvNtNtNtNtNtNtCs6u9oDspvYRg_7qchrono8calendar13calendar_impl5tests16test_num_bizdays6case_420stt_5_ymd_2021_1_13_s_20end_1_NaiveDate__MIN
FN:1480,_RNvNtNtNtNtNtNtCs6u9oDspvYRg_7qchrono8calendar13calendar_impl5tests16test_num_bizdays6case_420stt_5_ymd_2021_1_13_s_19end_2_ymd_1999_1_1_
FN:1480,_RNvNtNtNtNtNtNtCs6u9oDspvYRg_7qchrono8calendar13calendar_impl5tests16test_num_bizdays6case_420stt_5_ymd_2021_1_13_s_19end_3_ymd_2021_1_1_
FN:1480,_RNvNtNtNtNtNtNtCs6u9oDspvYRg_7qchrono8calendar13calendar_impl5tests16test_num_bizdays6case_420stt_5_ymd_2021_1_13_s_20end_4_ymd_2021_1_10_
FN:1480,_RNvNtNtNtNtNtNtCs6u9oDspvYRg_7qchrono8calendar13calendar_impl5tests16test_num_bizdays6case_420stt_5_ymd_2021_1_13_s_20end_5_ymd_2021_1_13_
FN:1480,_RNvNtNtNtNtNtNtCs6u9oDspvYRg_7qchrono8calendar13calendar_impl5tests16test_num_bizdays6case_420stt_5_ymd_2021_1_13_s_20end_6_ymd_2021_1_20_
FN:1480,_RNvNtNtNtNtNtNtCs6u9oDspvYRg_7qchrono8calendar13calendar_impl5tests16test_num_bizdays6case_420stt_5_ymd_2021_1_13_s_19end_7_ymd_2025_1_1_
FN:1480,_RNvNtNtNtNtNtNtCs6u9oDspvYRg_7qchrono8calendar13calendar_impl5tests16test_num_bizdays6case_420stt_5_ymd_2021_1_13_s_20end_8_NaiveDate__MAX
FN:1480,_RNvNtNtNtNtNtNtCs6u9oDspvYRg_7qchrono8calendar13calendar_impl5tests16test_num_bizdays6case_120stt_1_NaiveDate__MINs_20end_1_NaiveDate__MIN
FN:1480,_RNvNtNtNtNtNtNtCs6u9oDspvYRg_7qchrono8calendar13calendar_impl5tests16test_num_bizdays6case_120stt_1_NaiveDate__MINs_19end_2_ymd_1999_1_1_
FN:1480,_RNvNtNtNtNtNtNtCs6u9oDspvYRg_7qchrono8calendar13calendar_impl5tests16test_num_bizdays6case_120stt_1_NaiveDate__MINs_19end_3_ymd_2021_1_1_
FN:1480,_RNvNtNtNtNtNtNtCs6u9oDspvYRg_7qchrono8calendar13calendar_impl5tests16test_num_bizdays6case_120stt_1_NaiveDate__MINs_20end_4_ymd_2021_1_10_
FN:1480,_RNvNtNtNtNtNtNtCs6u9oDspvYRg_7qchrono8calendar13calendar_impl5tests16test_num_bizdays6case_120stt_1_NaiveDate__MINs_20end_5_ymd_2021_1_13_
FN:1480,_RNvNtNtNtNtNtNtCs6u9oDspvYRg_7qchrono8calendar13calendar_impl5tests16test_num_bizdays6case_120stt_1_NaiveDate__MINs_20end_6_ymd_2021_1_20_
FN:1480,_RNvNtNtNtNtNtNtCs6u9oDspvYRg_7qchrono8calendar13calendar_impl5tests16test_num_bizdays6case_120stt_1_NaiveDate__MINs_19end_7_ymd_2025_1_1_
FN:1480,_RNvNtNtNtNtNtNtCs6u9oDspvYRg_7qchrono8calendar13calendar_impl5tests16test_num_bizdays6case_120stt_1_NaiveDate__MINs_20end_8_NaiveDate__MAX
FN:1480,_RNvNtNtNtNtNtNtCs6u9oDspvYRg_7qchrono8calendar13calendar_impl5tests16test_num_bizdays6case_119stt_3_ymd_2021_1_1_s_20end_1_NaiveDate__MIN
FN:1480,_RNvNtNtNtNtNtNtCs6u9oDspvYRg_7qchrono8calendar13calendar_impl5tests16test_num_bizdays6case_119stt_3_ymd_2021_1_1_s_19end_2_ymd_1999_1_1_
FN:1480,_RNvNtNtNtNtNtNtCs6u9oDspvYRg_7qchrono8calendar13calendar_impl5tests16test_num_bizdays6case_119stt_3_ymd_2021_1_1_s_19end_3_ymd_2021_1_1_
FN:1480,_RNvNtNtNtNtNtNtCs6u9oDspvYRg_7qchrono8calendar13calendar_impl5tests16test_num_bizdays6case_119stt_3_ymd_2021_1_1_s_20end_4_ymd_2021_1_10_
FN:1480,_RNvNtNtNtNtNtNtCs6u9oDspvYRg_7qchrono8calendar13calendar_impl5tests16test_num_bizdays6case_119stt_3_ymd_2021_1_1_s_20end_5_ymd_2021_1_13_
FN:1480,_RNvNtNtNtNtNtNtCs6u9oDspvYRg_7qchrono8calendar13calendar_impl5tests16test_num_bizdays6case_119stt_3_ymd_2021_1_1_s_20end_6_ymd_2021_1_20_
FN:1480,_RNvNtNtNtNtNtNtCs6u9oDspvYRg_7qchrono8calendar13calendar_impl5tests16test_num_bizdays6case_119stt_3_ymd_2021_1_1_s_19end_7_ymd_2025_1_1_
FN:1480,_RNvNtNtNtNtNtNtCs6u9oDspvYRg_7qchrono8calendar13calendar_impl5tests16test_num_bizdays6case_119stt_3_ymd_2021_1_1_s_20end_8_NaiveDate__MAX
FN:1480,_RNvNtNtNtNtNtNtCs6u9oDspvYRg_7qchrono8calendar13calendar_impl5tests16test_num_bizdays6case_420stt_1_NaiveDate__MINs_20end_1_NaiveDate__MIN
FN:1480,_RNvNtNtNtNtNtNtCs6u9oDspvYRg_7qchrono8calendar13calendar_impl5tests16test_num_bizdays6case_420stt_1_NaiveDate__MINs_19end_2_ymd_1999_1_1_
FN:1480,_RNvNtNtNtNtNtNtCs6u9oDspvYRg_7qchrono8calendar13calendar_impl5tests16test_num_bizdays6case_420stt_1_NaiveDate__MINs_19end_3_ymd_2021_1_1_
FN:1480,_RNvNtNtNtNtNtNtCs6u9oDspvYRg_7qchrono8calendar13calendar_impl5tests16test_num_bizdays6case_420stt_1_NaiveDate__MINs_20end_4_ymd_2021_1_10_
FN:1480,_RNvNtNtNtNtNtNtCs6u9oDspvYRg_7qchrono8calendar13calendar_impl5tests16test_num_bizdays6case_420stt_1_NaiveDate__MINs_20end_5_ymd_2021_1_13_
FN:1480,_RNvNtNtNtNtNtNtCs6u9oDspvYRg_7qchrono8calendar13calendar_impl5tests16test_num_bizdays6case_420stt_1_NaiveDate__MINs_20end_6_ymd_2021_1_20_
FN:1480,_RNvNtNtNtNtNtNtCs6u9oDspvYRg_7qchrono8calendar13calendar_impl5tests16test_num_bizdays6case_420stt_1_NaiveDate__MINs_19end_7_ymd_2025_1_1_
FN:1480,_RNvNtNtNtNtNtNtCs6u9oDspvYRg_7qchrono8calendar13calendar_impl5tests16test_num_bizdays6case_420stt_1_NaiveDate__MINs_20end_8_NaiveDate__MAX
FN:1480,_RNvNtNtNtNtNtCs6u9oDspvYRg_7qchrono8calendar13calendar_impl5tests34test_num_bizdays_unbounded_partial6case_2s_18d_1_NaiveDate__MIN
FN:1480,_RNvNtNtNtNtNtCs6u9oDspvYRg_7qchrono8calendar13calendar_impl5tests34test_num_bizdays_unbounded_partial6case_2s_17d_2_ymd_1999_1_1_
FN:1480,_RNvNtNtNtNtNtCs6u9oDspvYRg_7qchrono8calendar13calendar_impl5tests34test_num_bizdays_unbounded_partial6case_2s_17d_3_ymd_2021_1_1_
FN:1480,_RNvNtNtNtNtNtCs6u9oDspvYRg_7qchrono8calendar13calendar_impl5tests34test_num_bizdays_unbounded_partial6case_2s_18d_4_ymd_2021_1_10_
FN:1480,_RNvNtNtNtNtNtCs6u9oDspvYRg_7qchrono8calendar13calendar_impl5tests34test_num_bizdays_unbounded_partial6case_2s_18d_5_ymd_2021_1_13_
FN:1480,_RNvNtNtNtNtNtCs6u9oDspvYRg_7qchrono8calendar13calendar_impl5tests34test_num_bizdays_unbounded_partial6case_2s_18d_6_ymd_2021_1_20_
FN:1480,_RNvNtNtNtNtNtCs6u9oDspvYRg_7qchrono8calendar13calendar_impl5tests34test_num_bizdays_unbounded_partial6case_2s_17d_7_ymd_2025_1_1_
FN:1480,_RNvNtNtNtNtNtCs6u9oDspvYRg_7qchrono8calendar13calendar_impl5tests34test_num_bizdays_unbounded_partial6case_2s_18d_8_NaiveDate__MAX
FN:1480,_RNvNtNtNtNtNtNtCs6u9oDspvYRg_7qchrono8calendar13calendar_impl5tests16test_num_bizdays6case_120stt_6_ymd_2021_1_20_s_20end_1_NaiveDate__MIN
FN:1480,_RNvNtNtNtNtNtNtCs6u9oDspvYRg_7qchrono8calendar13calendar_impl5tests16test_num_bizdays6case_120stt_6_ymd_2021_1_20_s_19end_2_ymd_1999_1_1_
FN:1480,_RNvNtNtNtNtNtNtCs6u9oDspvYRg_7qchrono8calendar13calendar_impl5tests16test_num_bizdays6case_120stt_6_ymd_2021_1_20_s_19end_3_ymd_2021_1_1_
FN:1480,_RNvNtNtNtNtNtNtCs6u9oDspvYRg_7qchrono8calendar13calendar_impl5tests16test_num_bizdays6case_120stt_6_ymd_2021_1_20_s_20end_4_ymd_2021_1_10_
FN:1480,_RNvNtNtNtNtNtNtCs6u9oDspvYRg_7qchrono8calendar13calendar_impl5tests16test_num_bizdays6case_120stt_6_ymd_2021_1_20_s_20end_5_ymd_2021_1_13_
FN:1480,_RNvNtNtNtNtNtNtCs6u9oDspvYRg_7qchrono8calendar13calendar_impl5tests16test_num_bizdays6case_120stt_6_ymd_2021_1_20_s_20end_6_ymd_2021_1_20_
FN:1480,_RNvNtNtNtNtNtNtCs6u9oDspvYRg_7qchrono8calendar13calendar_impl5tests16test_num_bizdays6case_120stt_6_ymd_2021_1_20_s_19end_7_ymd_2025_1_1_
FN:1480,_RNvNtNtNtNtNtNtCs6u9oDspvYRg_7qchrono8calendar13calendar_impl5tests16test_num_bizdays6case_120stt_6_ymd_2021_1_20_s_20end_8_NaiveDate__MAX
FN:1480,_RNvNtNtNtNtNtNtCs6u9oDspvYRg_7qchrono8calendar13calendar_impl5tests16test_num_bizdays6case_219stt_2_ymd_1999_1_1_s_20end_1_NaiveDate__MIN
FN:1480,_RNvNtNtNtNtNtNtCs6u9oDspvYRg_7qchrono8calendar13calendar_impl5tests16test_num_bizdays6case_219stt_2_ymd_1999_1_1_s_19end_2_ymd_1999_1_1_
FN:1480,_RNvNtNtNtNtNtNtCs6u9oDspvYRg_7qchrono8calendar13calendar_impl5tests16test_num_bizdays6case_219stt_2_ymd_1999_1_1_s_19end_3_ymd_2021_1_1_
FN:1480,_RNvNtNtNtNtNtNtCs6u9oDspvYRg_7qchrono8calendar13calendar_impl5tests16test_num_bizdays6case_219stt_2_ymd_1999_1_1_s_20end_4_ymd_2021_1_10_
FN:1480,_RNvNtNtNtNtNtNtCs6u9oDspvYRg_7qchrono8calendar13calendar_impl5tests16test_num_bizdays6case_219stt_2_ymd_1999_1_1_s_20end_5_ymd_2021_1_13_
FN:1480,_RNvNtNtNtNtNtNtCs6u9oDspvYRg_7qchrono8calendar13calendar_impl5tests16test_num_bizdays6case_219stt_2_ymd_1999_1_1_s_20end_6_ymd_2021_1_20_
FN:1480,_RNvNtNtNtNtNtNtCs6u9oDspvYRg_7qchrono8calendar13calendar_impl5tests16test_num_bizdays6case_219stt_2_ymd_1999_1_1_s_19end_7_ymd_2025_1_1_
FN:1480,_RNvNtNtNtNtNtNtCs6u9oDspvYRg_7qchrono8calendar13calendar_impl5tests16test_num_bizdays6case_219stt_2_ymd_1999_1_1_s_20end_8_NaiveDate__MAX
FN:1480,_RNvNtNtNtNtNtNtCs6u9oDspvYRg_7qchrono8calendar13calendar_impl5tests16test_num_bizdays6case_220stt_4_ymd_2021_1_10_s_20end_1_NaiveDate__MIN
FN:1480,_RNvNtNtNtNtNtNtCs6u9oDspvYRg_7qchrono8calendar13calendar_impl5tests16test_num_bizdays6case_220stt_4_ymd_2021_1_10_s_19end_2_ymd_1999_1_1_
FN:1480,_RNvNtNtNtNtNtNtCs6u9oDspvYRg_7qchrono8calendar13calendar_impl5tests16test_num_bizdays6case_220stt_4_ymd_2021_1_10_s_19end_3_ymd_2021_1_1_
FN:1480,_RNvNtNtNtNtNtNtCs6u9oDspvYRg_7qchrono8calendar13calendar_impl5tests16test_num_bizdays6case_220stt_4_ymd_2021_1_10_s_20end_4_ymd_2021_1_10_
FN:1480,_RNvNtNtNtNtNtNtCs6u9oDspvYRg_7qchrono8calendar13calendar_impl5tests16test_num_bizdays6case_220stt_4_ymd_2021_1_10_s_20end_5_ymd_2021_1_13_
FN:1480,_RNvNtNtNtNtNtNtCs6u9oDspvYRg_7qchrono8calendar13calendar_impl5tests16test_num_bizdays6case_220stt_4_ymd_2021_1_10_s_20end_6_ymd_2021_1_20_
FN:1480,_RNvNtNtNtNtNtNtCs6u9oDspvYRg_7qchrono8calendar13calendar_impl5tests16test_num_bizdays6case_220stt_4_ymd_2021_1_10_s_19end_7_ymd_2025_1_1_
FN:1480,_RNvNtNtNtNtNtNtCs6u9oDspvYRg_7qchrono8calendar13calendar_impl5tests16test_num_bizdays6case_220stt_4_ymd_2021_1_10_s_20end_8_NaiveDate__MAX
FN:1480,_RNvNtNtNtNtNtNtCs6u9oDspvYRg_7qchrono8calendar13calendar_impl5tests16test_num_bizdays6case_419stt_2_ymd_1999_1_1_s_20end_1_NaiveDate__MIN
FN:1480,_RNvNtNtNtNtNtNtCs6u9oDspvYRg_7qchrono8calendar13calendar_impl5tests16test_num_bizdays6case_419stt_2_ymd_1999_1_1_s_19end_2_ymd_1999_1_1_
FN:1480,_RNvNtNtNtNtNtNtCs6u9oDspvYRg_7qchrono8calendar13calendar_impl5tests16test_num_bizdays6case_419stt_2_ymd_1999_1_1_s_19end_3_ymd_2021_1_1_
FN:1480,_RNvNtNtNtNtNtNtCs6u9oDspvYRg_7qchrono8calendar13calendar_impl5tests16test_num_bizdays6case_419stt_2_ymd_1999_1_1_s_20end_4_ymd_2021_1_10_
FN:1480,_RNvNtNtNtNtNtNtCs6u9oDspvYRg_7qchrono8calendar13calendar_impl5tests16test_num_bizdays6case_419stt_2_ymd_1999_1_1_s_20end_5_ymd_2021_1_13_
FN:1480,_RNvNtNtNtNtNtNtCs6u9oDspvYRg_7qchrono8calendar13calendar_impl5tests16test_num_bizdays6case_419stt_2_ymd_1999_1_1_s_20end_6_ymd_2021_1_20_
FN:1480,_RNvNtNtNtNtNtNtCs6u9oDspvYRg_7qchrono8calendar13calendar_impl5tests16test_num_bizdays6case_419stt_2_ymd_1999_1_1_s_19end_7_ymd_2025_1_1_
FN:1480,_RNvNtNtNtNtNtNtCs6u9oDspvYRg_7qchrono8calendar13calendar_impl5tests16test_num_bizdays6case_419stt_2_ymd_1999_1_1_s_20end_8_NaiveDate__MAX
FN:1480,_RNvNtNtNtNtNtNtCs6u9oDspvYRg_7qchrono8calendar13calendar_impl5tests16test_num_bizdays6case_319stt_2_ymd_1999_1_1_s_20end_1_NaiveDate__MIN
FN:1480,_RNvNtNtNtNtNtNtCs6u9oDspvYRg_7qchrono8calendar13calendar_impl5tests16test_num_bizdays6case_319stt_2_ymd_1999_1_1_s_19end_2_ymd_1999_1_1_
FN:1480,_RNvNtNtNtNtNtNtCs6u9oDspvYRg_7qchrono8calendar13calendar_impl5tests16test_num_bizdays6case_319stt_2_ymd_1999_1_1_s_19end_3_ymd_2021_1_1_
FN:1480,_RNvNtNtNtNtNtNtCs6u9oDspvYRg_7qchrono8calendar13calendar_impl5tests16test_num_bizdays6case_319stt_2_ymd_1999_1_1_s_20end_4_ymd_2021_1_10_
FN:1480,_RNvNtNtNtNtNtNtCs6u9oDspvYRg_7qchrono8calendar13calendar_impl5tests16test_num_bizdays6case_319stt_2_ymd_1999_1_1_s_20end_5_ymd_2021_1_13_
FN:1480,_RNvNtNtNtNtNtNtCs6u9oDspvYRg_7qchrono8calendar13calendar_impl5tests16test_num_bizdays6case_319stt_2_ymd_1999_1_1_s_20end_6_ymd_2021_1_20_
FN:1480,_RNvNtNtNtNtNtNtCs6u9oDspvYRg_7qchrono8calendar13calendar_impl5tests16test_num_bizdays6case_319stt_2_ymd_1999_1_1_s_19end_7_ymd_2025_1_1_
FN:1480,_RNvNtNtNtNtNtNtCs6u9oDspvYRg_7qchrono8calendar13calendar_impl5tests16test_num_bizdays6case_319stt_2_ymd_1999_1_1_s_20end_8_NaiveDate__MAX
FN:1480,_RNvNtNtNtNtNtNtCs6u9oDspvYRg_7qchrono8calendar13calendar_impl5tests16test_num_bizdays6case_319stt_7_ymd_2025_1_1_s_20end_1_NaiveDate__MIN
FN:1480,_RNvNtNtNtNtNtNtCs6u9oDspvYRg_7qchrono8calendar13calendar_impl5tests16test_num_bizdays6case_319stt_7_ymd_2025_1_1_s_19end_2_ymd_1999_1_1_
FN:1480,_RNvNtNtNtNtNtNtCs6u9oDspvYRg_7qchrono8calendar13calendar_impl5tests16test_num_bizdays6case_319stt_7_ymd_2025_1_1_s_19end_3_ymd_2021_1_1_
FN:1480,_RNvNtNtNtNtNtNtCs6u9oDspvYRg_7qchrono8calendar13calendar_impl5tests16test_num_bizdays6case_319stt_7_ymd_2025_1_1_s_20end_4_ymd_2021_1_10_
FN:1480,_RNvNtNtNtNtNtNtCs6u9oDspvYRg_7qchrono8calendar13calendar_impl5tests16test_num_bizdays6case_319stt_7_ymd_2025_1_1_s_20end_5_ymd_2021_1_13_
FN:1480,_RNvNtNtNtNtNtNtCs6u9oDspvYRg_7qchrono8calendar13calendar_impl5tests16test_num_bizdays6case_319stt_7_ymd_2025_1_1_s_20end_6_ymd_2021_1_20_
FN:1480,_RNvNtNtNtNtNtNtCs6u9oDspvYRg_7qchrono8calendar13calendar_impl5tests16test_num_bizdays6case_319stt_7_ymd_2025_1_1_s_19end_7_ymd_2025_1_1_
FN:1480,_RNvNtNtNtNtNtNtCs6u9oDspvYRg_7qchrono8calendar13calendar_impl5tests16test_num_bizdays6case_319stt_7_ymd_2025_1_1_s_20end_8_NaiveDate__MAX
FN:1480,_RNvNtNtNtNtNtNtCs6u9oDspvYRg_7qchrono8calendar13calendar_impl5tests16test_num_bizdays6case_419stt_3_ymd_2021_1_1_s_20end_1_NaiveDate__MIN
FN:1480,_RNvNtNtNtNtNtNtCs6u9oDspvYRg_7qchrono8calendar13calendar_impl5tests16test_num_bizdays6case_419stt_3_ymd_2021_1_1_s_19end_2_ymd_1999_1_1_
FN:1480,_RNvNtNtNtNtNtNtCs6u9oDspvYRg_7qchrono8calendar13calendar_impl5tests16test_num_bizdays6case_419stt_3_ymd_2021_1_1_s_19end_3_ymd_2021_1_1_
FN:1480,_RNvNtNtNtNtNtNtCs6u9oDspvYRg_7qchrono8calendar13calendar_impl5tests16test_num_bizdays6case_419stt_3_ymd_2021_1_1_s_20end_4_ymd_2021_1_10_
FN:1480,_RNvNtNtNtNtNtNtCs6u9oDspvYRg_7qchrono8calendar13calendar_impl5tests16test_num_bizdays6case_419stt_3_ymd_2021_1_1_s_20end_5_ymd_2021_1_13_
FN:1480,_RNvNtNtNtNtNtNtCs6u9oDspvYRg_7qchrono8calendar13calendar_impl5tests16test_num_bizdays6case_419stt_3_ymd_2021_1_1_s_20end_6_ymd_2021_1_20_
FN:1480,_RNvNtNtNtNtNtNtCs6u9oDspvYRg_7qchrono8calendar13calendar_impl5tests16test_num_bizdays6case_419stt_3_ymd_2021_1_1_s_19end_7_ymd_2025_1_1_
FN:1480,_RNvNtNtNtNtNtNtCs6u9oDspvYRg_7qchrono8calendar13calendar_impl5tests16test_num_bizdays6case_419stt_3_ymd_2021_1_1_s_20end_8_NaiveDate__MAX
FN:1480,_RNvNtNtNtNtNtNtCs6u9oDspvYRg_7qchrono8calendar13calendar_impl5tests16test_num_bizdays6case_420stt_4_ymd_2021_1_10_s_20end_1_NaiveDate__MIN
FN:1480,_RNvNtNtNtNtNtNtCs6u9oDspvYRg_7qchrono8calendar13calendar_impl5tests16test_num_bizdays6case_420stt_4_ymd_2021_1_10_s_19end_2_ymd_1999_1_1_
FN:1480,_RNvNtNtNtNtNtNtCs6u9oDspvYRg_7qchrono8calendar13calendar_impl5tests16test_num_bizdays6case_420stt_4_ymd_2021_1_10_s_19end_3_ymd_2021_1_1_
FN:1480,_RNvNtNtNtNtNtNtCs6u9oDspvYRg_7qchrono8calendar13calendar_impl5tests16test_num_bizdays6case_420stt_4_ymd_2021_1_10_s_20end_4_ymd_2021_1_10_
FN:1480,_RNvNtNtNtNtNtNtCs6u9oDspvYRg_7qchrono8calendar13calendar_impl5tests16test_num_bizdays6case_420stt_4_ymd_2021_1_10_s_20end_5_ymd_2021_1_13_
FN:1480,_RNvNtNtNtNtNtNtCs6u9oDspvYRg_7qchrono8calendar13calendar_impl5tests16test_num_bizdays6case_420stt_4_ymd_2021_1_10_s_20end_6_ymd_2021_1_20_
FN:1480,_RNvNtNtNtNtNtNtCs6u9oDspvYRg_7qchrono8calendar13calendar_impl5tests16test_num_bizdays6case_420stt_4_ymd_2021_1_10_s_19end_7_ymd_2025_1_1_
FN:1480,_RNvNtNtNtNtNtNtCs6u9oDspvYRg_7qchrono8calendar13calendar_impl5tests16test_num_bizdays6case_420stt_4_ymd_2021_1_10_s_20end_8_NaiveDate__MAX
FN:1480,_RNvNtNtNtNtNtNtCs6u9oDspvYRg_7qchrono8calendar13calendar_impl5tests16test_num_bizdays6case_420stt_6_ymd_2021_1_20_s_20end_1_NaiveDate__MIN
FN:1480,_RNvNtNtNtNtNtNtCs6u9oDspvYRg_7qchrono8calendar13calendar_impl5tests16test_num_bizdays6case_420stt_6_ymd_2021_1_20_s_19end_2_ymd_1999_1_1_
FN:1480,_RNvNtNtNtNtNtNtCs6u9oDspvYRg_7qchrono8calendar13calendar_impl5tests16test_num_bizdays6case_420stt_6_ymd_2021_1_20_s_19end_3_ymd_2021_1_1_
FN:1480,_RNvNtNtNtNtNtNtCs6u9oDspvYRg_7qchrono8calendar13calendar_impl5tests16test_num_bizdays6case_420stt_6_ymd_2021_1_20_s_20end_4_ymd_2021_1_10_
FN:1480,_RNvNtNtNtNtNtNtCs6u9oDspvYRg_7qchrono8calendar13calendar_impl5tests16test_num_bizdays6case_420stt_6_ymd_2021_1_20_s_20end_5_ymd_2021_1_13_
FN:1480,_RNvNtNtNtNtNtNtCs6u9oDspvYRg_7qchrono8calendar13calendar_impl5tests16test_num_bizdays6case_420stt_6_ymd_2021_1_20_s_20end_6_ymd_2021_1_20_
FN:1480,_RNvNtNtNtNtNtNtCs6u9oDspvYRg_7qchrono8calendar13calendar_impl5tests16test_num_bizdays6case_420stt_6_ymd_2021_1_20_s_19end_7_ymd_2025_1_1_
FN:1480,_RNvNtNtNtNtNtNtCs6u9oDspvYRg_7qchrono8calendar13calendar_impl5tests16test_num_bizdays6case_420stt_6_ymd_2021_1_20_s_20end_8_NaiveDate__MAX
FN:1480,_RNvNtNtNtNtNtNtCs6u9oDspvYRg_7qchrono8calendar13calendar_impl5tests16test_num_bizdays6case_419stt_7_ymd_2025_1_1_s_20end_1_NaiveDate__MIN
FN:1480,_RNvNtNtNtNtNtNtCs6u9oDspvYRg_7qchrono8calendar13calendar_impl5tests16test_num_bizdays6case_419stt_7_ymd_2025_1_1_s_19end_2_ymd_1999_1_1_
FN:1480,_RNvNtNtNtNtNtNtCs6u9oDspvYRg_7qchrono8calendar13calendar_impl5tests16test_num_bizdays6case_419stt_7_ymd_2025_1_1_s_19end_3_ymd_2021_1_1_
FN:1480,_RNvNtNtNtNtNtNtCs6u9oDspvYRg_7qchrono8calendar13calendar_impl5tests16test_num_bizdays6case_419stt_7_ymd_2025_1_1_s_20end_4_ymd_2021_1_10_
FN:1480,_RNvNtNtNtNtNtNtCs6u9oDspvYRg_7qchrono8calendar13calendar_impl5tests16test_num_bizdays6case_419stt_7_ymd_2025_1_1_s_20end_5_ymd_2021_1_13_
FN:1480,_RNvNtNtNtNtNtNtCs6u9oDspvYRg_7qchrono8calendar13calendar_impl5tests16test_num_bizdays6case_419stt_7_ymd_2025_1_1_s_20end_6_ymd_2021_1_20_
FN:1480,_RNvNtNtNtNtNtNtCs6u9oDspvYRg_7qchrono8calendar13calendar_impl5tests16test_num_bizdays6case_419stt_7_ymd_2025_1_1_s_19end_7_ymd_2025_1_1_
FN:1480,_RNvNtNtNtNtNtNtCs6u9oDspvYRg_7qchrono8calendar13calendar_impl5tests16test_num_bizdays6case_419stt_7_ymd_2025_1_1_s_20end_8_NaiveDate__MAX
FN:1480,_RNvNtNtNtNtCs6u9oDspvYRg_7qchrono8calendar13calendar_impl5tests26test_num_bizdays_unboundeds_6case_1
FN:1480,_RNvNtNtNtNtCs6u9oDspvYRg_7qchrono8calendar13calendar_impl5tests26test_num_bizdays_unboundeds_6case_2
FN:1480,_RNvNtNtNtNtCs6u9oDspvYRg_7qchrono8calendar13calendar_impl5tests26test_num_bizdays_unboundeds_6case_3
FN:1480,_RNvNtNtNtNtCs6u9oDspvYRg_7qchrono8calendar13calendar_impl5tests26test_num_bizdays_unboundeds_6case_4
FN:1480,_RNvNtNtNtNtNtNtCs6u9oDspvYRg_7qchrono8calendar13calendar_impl5tests16test_num_bizdays6case_119stt_7_ymd_2025_1_1_s_20end_1_NaiveDate__MIN
FN:1480,_RNvNtNtNtNtNtNtCs6u9oDspvYRg_7qchrono8calendar13calendar_impl5tests16test_num_bizdays6case_119stt_7_ymd_2025_1_1_s_19end_2_ymd_1999_1_1_
FN:1480,_RNvNtNtNtNtNtNtCs6u9oDspvYRg_7qchrono8calendar13calendar_impl5tests16test_num_bizdays6case_119stt_7_ymd_2025_1_1_s_19end_3_ymd_2021_1_1_
FN:1480,_RNvNtNtNtNtNtNtCs6u9oDspvYRg_7qchrono8calendar13calendar_impl5tests16test_num_bizdays6case_119stt_7_ymd_2025_1_1_s_20end_4_ymd_2021_1_10_
FN:1480,_RNvNtNtNtNtNtNtCs6u9oDspvYRg_7qchrono8calendar13calendar_impl5tests16test_num_bizdays6case_119stt_7_ymd_2025_1_1_s_20end_5_ymd_2021_1_13_
FN:1480,_RNvNtNtNtNtNtNtCs6u9oDspvYRg_7qchrono8calendar13calendar_impl5tests16test_num_bizdays6case_119stt_7_ymd_2025_1_1_s_20end_6_ymd_2021_1_20_
FN:1480,_RNvNtNtNtNtNtNtCs6u9oDspvYRg_7qchrono8calendar13calendar_impl5tests16test_num_bizdays6case_119stt_7_ymd_2025_1_1_s_19end_7_ymd_2025_1_1_
FN:1480,_RNvNtNtNtNtNtNtCs6u9oDspvYRg_7qchrono8calendar13calendar_impl5tests16test_num_bizdays6case_119stt_7_ymd_2025_1_1_s_20end_8_NaiveDate__MAX
FN:1480,_RNvNtNtNtNtNtNtCs6u9oDspvYRg_7qchrono8calendar13calendar_impl5tests16test_num_bizdays6case_220stt_1_NaiveDate__MINs_20end_1_NaiveDate__MIN
FN:1480,_RNvNtNtNtNtNtNtCs6u9oDspvYRg_7qchrono8calendar13calendar_impl5tests16test_num_bizdays6case_220stt_1_NaiveDate__MINs_19end_2_ymd_1999_1_1_
FN:1480,_RNvNtNtNtNtNtNtCs6u9oDspvYRg_7qchrono8calendar13calendar_impl5tests16test_num_bizdays6case_220stt_1_NaiveDate__MINs_19end_3_ymd_2021_1_1_
FN:1480,_RNvNtNtNtNtNtNtCs6u9oDspvYRg_7qchrono8calendar13calendar_impl5tests16test_num_bizdays6case_220stt_1_NaiveDate__MINs_20end_4_ymd_2021_1_10_
FN:1480,_RNvNtNtNtNtNtNtCs6u9oDspvYRg_7qchrono8calendar13calendar_impl5tests16test_num_bizdays6case_220stt_1_NaiveDate__MINs_20end_5_ymd_2021_1_13_
FN:1480,_RNvNtNtNtNtNtNtCs6u9oDspvYRg_7qchrono8calendar13calendar_impl5tests16test_num_bizdays6case_220stt_1_NaiveDate__MINs_20end_6_ymd_2021_1_20_
FN:1480,_RNvNtNtNtNtNtNtCs6u9oDspvYRg_7qchrono8calendar13calendar_impl5tests16test_num_bizdays6case_220stt_1_NaiveDate__MINs_19end_7_ymd_2025_1_1_
FN:1480,_RNvNtNtNtNtNtNtCs6u9oDspvYRg_7qchrono8calendar13calendar_impl5tests16test_num_bizdays6case_220stt_1_NaiveDate__MINs_20end_8_NaiveDate__MAX
FN:1480,_RNvNtNtNtNtNtNtCs6u9oDspvYRg_7qchrono8calendar13calendar_impl5tests16test_num_bizdays6case_220stt_5_ymd_2021_1_13_s_20end_1_NaiveDate__MIN
FN:1480,_RNvNtNtNtNtNtNtCs6u9oDspvYRg_7qchrono8calendar13calendar_impl5tests16test_num_bizdays6case_220stt_5_ymd_2021_1_13_s_19end_2_ymd_1999_1_1_
FN:1480,_RNvNtNtNtNtNtNtCs6u9oDspvYRg_7qchrono8calendar13calendar_impl5tests16test_num_bizdays6case_220stt_5_ymd_2021_1_13_s_19end_3_ymd_2021_1_1_
FN:1480,_RNvNtNtNtNtNtNtCs6u9oDspvYRg_7qchrono8calendar13calendar_impl5tests16test_num_bizdays6case_220stt_5_ymd_2021_1_13_s_20end_4_ymd_2021_1_10_
FN:1480,_RNvNtNtNtNtNtNtCs6u9oDspvYRg_7qchrono8calendar13calendar_impl5tests16test_num_bizdays6case_220stt_5_ymd_2021_1_13_s_20end_5_ymd_2021_1_13_
FN:1480,_RNvNtNtNtNtNtNtCs6u9oDspvYRg_7qchrono8calendar13calendar_impl5tests16test_num_bizdays6case_220stt_5_ymd_2021_1_13_s_20end_6_ymd_2021_1_20_
FN:1480,_RNvNtNtNtNtNtNtCs6u9oDspvYRg_7qchrono8calendar13calendar_impl5tests16test_num_bizdays6case_220stt_5_ymd_2021_1_13_s_19end_7_ymd_2025_1_1_
FN:1480,_RNvNtNtNtNtNtNtCs6u9oDspvYRg_7qchrono8calendar13calendar_impl5tests16test_num_bizdays6case_220stt_5_ymd_2021_1_13_s_20end_8_NaiveDate__MAX
FN:1480,_RNvNtNtNtNtNtNtCs6u9oDspvYRg_7qchrono8calendar13calendar_impl5tests16test_num_bizdays6case_320stt_1_NaiveDate__MINs_20end_1_NaiveDate__MIN
FN:1480,_RNvNtNtNtNtNtNtCs6u9oDspvYRg_7qchrono8calendar13calendar_impl5tests16test_num_bizdays6case_320stt_1_NaiveDate__MINs_19end_2_ymd_1999_1_1_
FN:1480,_RNvNtNtNtNtNtNtCs6u9oDspvYRg_7qchrono8calendar13calendar_impl5tests16test_num_bizdays6case_320stt_1_NaiveDate__MINs_19end_3_ymd_2021_1_1_
FN:1480,_RNvNtNtNtNtNtNtCs6u9oDspvYRg_7qchrono8calendar13calendar_impl5tests16test_num_bizdays6case_320stt_1_NaiveDate__MINs_20end_4_ymd_2021_1_10_
FN:1480,_RNvNtNtNtNtNtNtCs6u9oDspvYRg_7qchrono8calendar13calendar_impl5tests16test_num_bizdays6case_320stt_1_NaiveDate__MINs_20end_5_ymd_2021_1_13_
FN:1480,_RNvNtNtNtNtNtNtCs6u9oDspvYRg_7qchrono8calendar13calendar_impl5tests16test_num_bizdays6case_320stt_1_NaiveDate__MINs_20end_6_ymd_2021_1_20_
FN:1480,_RNvNtNtNtNtNtNtCs6u9oDspvYRg_7qchrono8calendar13calendar_impl5tests16test_num_bizdays6case_320stt_1_NaiveDate__MINs_19end_7_ymd_2025_1_1_
FN:1480,_RNvNtNtNtNtNtNtCs6u9oDspvYRg_7qchrono8calendar13calendar_impl5tests16test_num_bizdays6case_320stt_1_NaiveDate__MINs_20end_8_NaiveDate__MAX
FN:42,_RINvXNtNtCs6u9oDspvYRg_7qchrono8calendar13calendar_implNtB3_13__CalendarDataNtNtCshDylzWGrM8d_5serde2de11Deserialize11deserializeNtNtCsjMEqcGD1gYq_10serde_json5value5ValueEB7_
FN:71,_RNvMs_NtNtCs6u9oDspvYRg_7qchrono8calendar13calendar_implNtB4_13__CalendarData3new
FN:232,_RINvXs0_NtNtCs6u9oDspvYRg_7qchrono8calendar13calendar_implNtB6_8CalendarNtNtCshDylzWGrM8d_5serde3ser9Serialize9serializeNtNtNtCsjMEqcGD1gYq_10serde_json5value3ser10SerializerEBa_
FN:242,_RINvXs1_NtNtCs6u9oDspvYRg_7qchrono8calendar13calendar_implNtB6_8CalendarNtNtCshDylzWGrM8d_5serde2de11Deserialize11deserializeNtNtCsjMEqcGD1gYq_10serde_json5value5ValueEBa_
FN:267,_RNvMs3_NtNtCs6u9oDspvYRg_7qchrono8calendar13calendar_implNtB5_8Calendar4__new
FN:287,_RNvMs3_NtNtCs6u9oDspvYRg_7qchrono8calendar13calendar_implNtB5_8Calendar7builderB9_
FN:302,_RINvMs3_NtNtCs6u9oDspvYRg_7qchrono8calendar13calendar_implNtB6_8Calendar13any_closed_ofABU_j0_EBa_
FN:302,_RINvMs3_NtNtCs6u9oDspvYRg_7qchrono8calendar13calendar_implNtB6_8Calendar13any_closed_ofABU_j1_EBa_
FN:302,_RINvMs3_NtNtCs6u9oDspvYRg_7qchrono8calendar13calendar_implNtB6_8Calendar13any_closed_ofABU_j2_EBa_
FN:302,_RINvMs3_NtNtCs6u9oDspvYRg_7qchrono8calendar13calendar_implNtB6_8Calendar13any_closed_ofINtCs1TWK2DdqTCU_8smallvec8SmallVecABU_j5_EEBa_
FN:325,_RNCINvMs3_NtNtCs6u9oDspvYRg_7qchrono8calendar13calendar_implNtB8_8Calendar13any_closed_ofABW_j0_E0Bc_
FN:325,_RNCINvMs3_NtNtCs6u9oDspvYRg_7qchrono8calendar13calendar_implNtB8_8Calendar13any_closed_ofABW_j1_E0Bc_
FN:325,_RNCINvMs3_NtNtCs6u9oDspvYRg_7qchrono8calendar13calendar_implNtB8_8Calendar13any_closed_ofABW_j2_E0Bc_
FN:325,_RNCINvMs3_NtNtCs6u9oDspvYRg_7qchrono8calendar13calendar_implNtB8_8Calendar13any_closed_ofINtCs1TWK2DdqTCU_8smallvec8SmallVecABW_j5_EE0Bc_
FN:360,_RINvMs3_NtNtCs6u9oDspvYRg_7qchrono8calendar13calendar_implNtB6_8Calendar13all_closed_ofABU_j0_EBa_
FN:360,_RINvMs3_NtNtCs6u9oDspvYRg_7qchrono8calendar13calendar_implNtB6_8Calendar13all_closed_ofABU_j1_EBa_
FN:360,_RINvMs3_NtNtCs6u9oDspvYRg_7qchrono8calendar13calendar_implNtB6_8Calendar13all_closed_ofABU_j2_EBa_
FN:360,_RINvMs3_NtNtCs6u9oDspvYRg_7qchrono8calendar13calendar_implNtB6_8Calendar13all_closed_ofINtCs1TWK2DdqTCU_8smallvec8SmallVecABU_j5_EEBa_
FN:384,_RNCINvMs3_NtNtCs6u9oDspvYRg_7qchrono8calendar13calendar_implNtB8_8Calendar13all_closed_ofABW_j0_E0Bc_
FN:384,_RNCINvMs3_NtNtCs6u9oDspvYRg_7qchrono8calendar13calendar_implNtB8_8Calendar13all_closed_ofABW_j1_E0Bc_
FN:384,_RNCINvMs3_NtNtCs6u9oDspvYRg_7qchrono8calendar13calendar_implNtB8_8Calendar13all_closed_ofABW_j2_E0Bc_
FN:384,_RNCINvMs3_NtNtCs6u9oDspvYRg_7qchrono8calendar13calendar_implNtB8_8Calendar13all_closed_ofINtCs1TWK2DdqTCU_8smallvec8SmallVecABW_j5_EE0Bc_
FN:424,_RNvMs4_NtNtCs6u9oDspvYRg_7qchrono8calendar13calendar_implNtB5_8Calendar12valid_periodB9_
FN:429,_RNvMs4_NtNtCs6u9oDspvYRg_7qchrono8calendar13calendar_implNtB5_8Calendar8validateB9_
FN:442,_RNvMs4_NtNtCs6u9oDspvYRg_7qchrono8calendar13calendar_implNtB5_8Calendar14extra_holidaysB9_
FN:448,_RNvMs4_NtNtCs6u9oDspvYRg_7qchrono8calendar13calendar_implNtB5_8Calendar13extra_bizdaysB9_
FN:454,_RNvMs4_NtNtCs6u9oDspvYRg_7qchrono8calendar13calendar_implNtB5_8Calendar23treat_weekend_as_bizdayB9_
FN:490,_RINvMs4_NtNtCs6u9oDspvYRg_7qchrono8calendar13calendar_implNtB6_8Calendar11num_bizdaysINtNtNtCs2fyPGiZs4Bj_4core3ops5range14RangeInclusiveNtNtNtCs9T1gxOhu6ob_6chrono5naive4date9NaiveDateEEBa_
FN:490,_RINvMs4_NtNtCs6u9oDspvYRg_7qchrono8calendar13calendar_implNtB6_8Calendar11num_bizdaysINtNtNtCs2fyPGiZs4Bj_4core3ops5range16RangeToInclusiveNtNtNtCs9T1gxOhu6ob_6chrono5naive4date9NaiveDateEEBa_
FN:490,_RINvMs4_NtNtCs6u9oDspvYRg_7qchrono8calendar13calendar_implNtB6_8Calendar11num_bizdaysINtNtNtCs2fyPGiZs4Bj_4core3ops5range5RangeNtNtNtCs9T1gxOhu6ob_6chrono5naive4date9NaiveDateEEBa_
FN:490,_RINvMs4_NtNtCs6u9oDspvYRg_7qchrono8calendar13calendar_implNtB6_8Calendar11num_bizdaysINtNtNtCs2fyPGiZs4Bj_4core3ops5range7RangeToNtNtNtCs9T1gxOhu6ob_6chrono5naive4date9NaiveDateEEBa_
FN:490,_RINvMs4_NtNtCs6u9oDspvYRg_7qchrono8calendar13calendar_implNtB6_8Calendar11num_bizdaysINtNtNtCs2fyPGiZs4Bj_4core3ops5range9RangeFromNtNtNtCs9T1gxOhu6ob_6chrono5naive4date9NaiveDateEEBa_
FN:490,_RINvMs4_NtNtCs6u9oDspvYRg_7qchrono8calendar13calendar_implNtB6_8Calendar11num_bizdaysNtNtNtCs2fyPGiZs4Bj_4core3ops5range9RangeFullEBa_
FN:513,_RNCINvMs4_NtNtCs6u9oDspvYRg_7qchrono8calendar13calendar_implNtB8_8Calendar11num_bizdaysINtNtNtCs2fyPGiZs4Bj_4core3ops5range14RangeInclusiveNtNtNtCs9T1gxOhu6ob_6chrono5naive4date9NaiveDateEE0Bc_
FN:513,_RNCINvMs4_NtNtCs6u9oDspvYRg_7qchrono8calendar13calendar_implNtB8_8Calendar11num_bizdaysINtNtNtCs2fyPGiZs4Bj_4core3ops5range16RangeToInclusiveNtNtNtCs9T1gxOhu6ob_6chrono5naive4date9NaiveDateEE0Bc_
FN:513,_RNCINvMs4_NtNtCs6u9oDspvYRg_7qchrono8calendar13calendar_implNtB8_8Calendar11num_bizdaysINtNtNtCs2fyPGiZs4Bj_4core3ops5range5RangeNtNtNtCs9T1gxOhu6ob_6chrono5naive4date9NaiveDateEE0Bc_
FN:513,_RNCINvMs4_NtNtCs6u9oDspvYRg_7qchrono8calendar13calendar_implNtB8_8Calendar11num_bizdaysINtNtNtCs2fyPGiZs4Bj_4core3ops5range7RangeToNtNtNtCs9T1gxOhu6ob_6chrono5naive4date9NaiveDateEE0Bc_
FN:513,_RNCINvMs4_NtNtCs6u9oDspvYRg_7qchrono8calendar13calendar_implNtB8_8Calendar11num_bizdaysINtNtNtCs2fyPGiZs4Bj_4core3ops5range9RangeFromNtNtNtCs9T1gxOhu6ob_6chrono5naive4date9NaiveDateEE0Bc_
FN:513,_RNCINvMs4_NtNtCs6u9oDspvYRg_7qchrono8calendar13calendar_implNtB8_8Calendar11num_bizdaysNtNtNtCs2fyPGiZs4Bj_4core3ops5range9RangeFullE0Bc_
FN:526,_RNCINvMs4_NtNtCs6u9oDspvYRg_7qchrono8calendar13calendar_implNtB8_8Calendar11num_bizdaysINtNtNtCs2fyPGiZs4Bj_4core3ops5range14RangeInclusiveNtNtNtCs9T1gxOhu6ob_6chrono5naive4date9NaiveDateEEs_0Bc_
FN:526,_RNCINvMs4_NtNtCs6u9oDspvYRg_7qchrono8calendar13calendar_implNtB8_8Calendar11num_bizdaysINtNtNtCs2fyPGiZs4Bj_4core3ops5range16RangeToInclusiveNtNtNtCs9T1gxOhu6ob_6chrono5naive4date9NaiveDateEEs_0Bc_
FN:526,_RNCINvMs4_NtNtCs6u9oDspvYRg_7qchrono8calendar13calendar_implNtB8_8Calendar11num_bizdaysINtNtNtCs2fyPGiZs4Bj_4core3ops5range5RangeNtNtNtCs9T1gxOhu6ob_6chrono5naive4date9NaiveDateEEs_0Bc_
FN:526,_RNCINvMs4_NtNtCs6u9oDspvYRg_7qchrono8calendar13calendar_implNtB8_8Calendar11num_bizdaysINtNtNtCs2fyPGiZs4Bj_4core3ops5range7RangeToNtNtNtCs9T1gxOhu6ob_6chrono5naive4date9NaiveDateEEs_0Bc_
FN:526,_RNCINvMs4_NtNtCs6u9oDspvYRg_7qchrono8calendar13calendar_implNtB8_8Calendar11num_bizdaysINtNtNtCs2fyPGiZs4Bj_4core3ops5range9RangeFromNtNtNtCs9T1gxOhu6ob_6chrono5naive4date9NaiveDateEEs_0Bc_
FN:526,_RNCINvMs4_NtNtCs6u9oDspvYRg_7qchrono8calendar13calendar_implNtB8_8Calendar11num_bizdaysNtNtNtCs2fyPGiZs4Bj_4core3ops5range9RangeFullEs_0Bc_
FN:531,_RNCINvMs4_NtNtCs6u9oDspvYRg_7qchrono8calendar13calendar_implNtB8_8Calendar11num_bizdaysINtNtNtCs2fyPGiZs4Bj_4core3ops5range14RangeInclusiveNtNtNtCs9T1gxOhu6ob_6chrono5naive4date9NaiveDateEEs0_0Bc_
FN:531,_RNCINvMs4_NtNtCs6u9oDspvYRg_7qchrono8calendar13calendar_implNtB8_8Calendar11num_bizdaysINtNtNtCs2fyPGiZs4Bj_4core3ops5range16RangeToInclusiveNtNtNtCs9T1gxOhu6ob_6chrono5naive4date9NaiveDateEEs0_0Bc_
FN:531,_RNCINvMs4_NtNtCs6u9oDspvYRg_7qchrono8calendar13calendar_implNtB8_8Calendar11num_bizdaysINtNtNtCs2fyPGiZs4Bj_4core3ops5range5RangeNtNtNtCs9T1gxOhu6ob_6chrono5naive4date9NaiveDateEEs0_0Bc_
FN:531,_RNCINvMs4_NtNtCs6u9oDspvYRg_7qchrono8calendar13calendar_implNtB8_8Calendar11num_bizdaysINtNtNtCs2fyPGiZs4Bj_4core3ops5range7RangeToNtNtNtCs9T1gxOhu6ob_6chrono5naive4date9NaiveDateEEs0_0Bc_
FN:531,_RNCINvMs4_NtNtCs6u9oDspvYRg_7qchrono8calendar13calendar_implNtB8_8Calendar11num_bizdaysINtNtNtCs2fyPGiZs4Bj_4core3ops5range9RangeFromNtNtNtCs9T1gxOhu6ob_6chrono5naive4date9NaiveDateEEs0_0Bc_
FN:531,_RNCINvMs4_NtNtCs6u9oDspvYRg_7qchrono8calendar13calendar_implNtB8_8Calendar11num_bizdaysNtNtNtCs2fyPGiZs4Bj_4core3ops5range9RangeFullEs0_0Bc_
FN:542,_RNCINvMs4_NtNtCs6u9oDspvYRg_7qchrono8calendar13calendar_implNtB8_8Calendar11num_bizdaysINtNtNtCs2fyPGiZs4Bj_4core3ops5range14RangeInclusiveNtNtNtCs9T1gxOhu6ob_6chrono5naive4date9NaiveDateEEs1_0Bc_
FN:542,_RNCINvMs4_NtNtCs6u9oDspvYRg_7qchrono8calendar13calendar_implNtB8_8Calendar11num_bizdaysINtNtNtCs2fyPGiZs4Bj_4core3ops5range16RangeToInclusiveNtNtNtCs9T1gxOhu6ob_6chrono5naive4date9NaiveDateEEs1_0Bc_
FN:542,_RNCINvMs4_NtNtCs6u9oDspvYRg_7qchrono8calendar13calendar_implNtB8_8Calendar11num_bizdaysINtNtNtCs2fyPGiZs4Bj_4core3ops5range5RangeNtNtNtCs9T1gxOhu6ob_6chrono5naive4date9NaiveDateEEs1_0Bc_
FN:542,_RNCINvMs4_NtNtCs6u9oDspvYRg_7qchrono8calendar13calendar_implNtB8_8Calendar11num_bizdaysINtNtNtCs2fyPGiZs4Bj_4core3ops5range7RangeToNtNtNtCs9T1gxOhu6ob_6chrono5naive4date9NaiveDateEEs1_0Bc_
FN:542,_RNCINvMs4_NtNtCs6u9oDspvYRg_7qchrono8calendar13calendar_implNtB8_8Calendar11num_bizdaysINtNtNtCs2fyPGiZs4Bj_4core3ops5range9RangeFromNtNtNtCs9T1gxOhu6ob_6chrono5naive4date9NaiveDateEEs1_0Bc_
FN:542,_RNCINvMs4_NtNtCs6u9oDspvYRg_7qchrono8calendar13calendar_implNtB8_8Calendar11num_bizdaysNtNtNtCs2fyPGiZs4Bj_4core3ops5range9RangeFullEs1_0Bc_
FN:543,_RNCINvMs4_NtNtCs6u9oDspvYRg_7qchrono8calendar13calendar_implNtB8_8Calendar11num_bizdaysINtNtNtCs2fyPGiZs4Bj_4core3ops5range14RangeInclusiveNtNtNtCs9T1gxOhu6ob_6chrono5naive4date9NaiveDateEEs2_0Bc_
FN:543,_RNCINvMs4_NtNtCs6u9oDspvYRg_7qchrono8calendar13calendar_implNtB8_8Calendar11num_bizdaysINtNtNtCs2fyPGiZs4Bj_4core3ops5range16RangeToInclusiveNtNtNtCs9T1gxOhu6ob_6chrono5naive4date9NaiveDateEEs2_0Bc_
FN:543,_RNCINvMs4_NtNtCs6u9oDspvYRg_7qchrono8calendar13calendar_implNtB8_8Calendar11num_bizdaysINtNtNtCs2fyPGiZs4Bj_4core3ops5range5RangeNtNtNtCs9T1gxOhu6ob_6chrono5naive4date9NaiveDateEEs2_0Bc_
FN:543,_RNCINvMs4_NtNtCs6u9oDspvYRg_7qchrono8calendar13calendar_implNtB8_8Calendar11num_bizdaysINtNtNtCs2fyPGiZs4Bj_4core3ops5range7RangeToNtNtNtCs9T1gxOhu6ob_6chrono5naive4date9NaiveDateEEs2_0Bc_
FN:543,_RNCINvMs4_NtNtCs6u9oDspvYRg_7qchrono8calendar13calendar_implNtB8_8Calendar11num_bizdaysINtNtNtCs2fyPGiZs4Bj_4core3ops5range9RangeFromNtNtNtCs9T1gxOhu6ob_6chrono5naive4date9NaiveDateEEs2_0Bc_
FN:543,_RNCINvMs4_NtNtCs6u9oDspvYRg_7qchrono8calendar13calendar_implNtB8_8Calendar11num_bizdaysNtNtNtCs2fyPGiZs4Bj_4core3ops5range9RangeFullEs2_0Bc_
FN:549,_RNCINvMs4_NtNtCs6u9oDspvYRg_7qchrono8calendar13calendar_implNtB8_8Calendar11num_bizdaysINtNtNtCs2fyPGiZs4Bj_4core3ops5range14RangeInclusiveNtNtNtCs9T1gxOhu6ob_6chrono5naive4date9NaiveDateEEs3_0Bc_
FN:549,_RNCINvMs4_NtNtCs6u9oDspvYRg_7qchrono8calendar13calendar_implNtB8_8Calendar11num_bizdaysINtNtNtCs2fyPGiZs4Bj_4core3ops5range16RangeToInclusiveNtNtNtCs9T1gxOhu6ob_6chrono5naive4date9NaiveDateEEs3_0Bc_
FN:549,_RNCINvMs4_NtNtCs6u9oDspvYRg_7qchrono8calendar13calendar_implNtB8_8Calendar11num_bizdaysINtNtNtCs2fyPGiZs4Bj_4core3ops5range5RangeNtNtNtCs9T1gxOhu6ob_6chrono5naive4date9NaiveDateEEs3_0Bc_
FN:549,_RNCINvMs4_NtNtCs6u9oDspvYRg_7qchrono8calendar13calendar_implNtB8_8Calendar11num_bizdaysINtNtNtCs2fyPGiZs4Bj_4core3ops5range7RangeToNtNtNtCs9T1gxOhu6ob_6chrono5naive4date9NaiveDateEEs3_0Bc_
FN:549,_RNCINvMs4_NtNtCs6u9oDspvYRg_7qchrono8calendar13calendar_implNtB8_8Calendar11num_bizdaysINtNtNtCs2fyPGiZs4Bj_4core3ops5range9RangeFromNtNtNtCs9T1gxOhu6ob_6chrono5naive4date9NaiveDateEEs3_0Bc_
FN:549,_RNCINvMs4_NtNtCs6u9oDspvYRg_7qchrono8calendar13calendar_implNtB8_8Calendar11num_bizdaysNtNtNtCs2fyPGiZs4Bj_4core3ops5range9RangeFullEs3_0Bc_
FN:550,_RNCINvMs4_NtNtCs6u9oDspvYRg_7qchrono8calendar13calendar_implNtB8_8Calendar11num_bizdaysINtNtNtCs2fyPGiZs4Bj_4core3ops5range14RangeInclusiveNtNtNtCs9T1gxOhu6ob_6chrono5naive4date9NaiveDateEEs4_0Bc_
FN:550,_RNCINvMs4_NtNtCs6u9oDspvYRg_7qchrono8calendar13calendar_implNtB8_8Calendar11num_bizdaysINtNtNtCs2fyPGiZs4Bj_4core3ops5range16RangeToInclusiveNtNtNtCs9T1gxOhu6ob_6chrono5naive4date9NaiveDateEEs4_0Bc_
FN:550,_RNCINvMs4_NtNtCs6u9oDspvYRg_7qchrono8calendar13calendar_implNtB8_8Calendar11num_bizdaysINtNtNtCs2fyPGiZs4Bj_4core3ops5range5RangeNtNtNtCs9T1gxOhu6ob_6chrono5naive4date9NaiveDateEEs4_0Bc_
FN:550,_RNCINvMs4_NtNtCs6u9oDspvYRg_7qchrono8calendar13calendar_implNtB8_8Calendar11num_bizdaysINtNtNtCs2fyPGiZs4Bj_4core3ops5range7RangeToNtNtNtCs9T1gxOhu6ob_6chrono5naive4date9NaiveDateEEs4_0Bc_
FN:550,_RNCINvMs4_NtNtCs6u9oDspvYRg_7qchrono8calendar13calendar_implNtB8_8Calendar11num_bizdaysINtNtNtCs2fyPGiZs4Bj_4core3ops5range9RangeFromNtNtNtCs9T1gxOhu6ob_6chrono5naive4date9NaiveDateEEs4_0Bc_
FN:550,_RNCINvMs4_NtNtCs6u9oDspvYRg_7qchrono8calendar13calendar_implNtB8_8Calendar11num_bizdaysNtNtNtCs2fyPGiZs4Bj_4core3ops5range9RangeFullEs4_0Bc_
FN:554,_RNCINvMs4_NtNtCs6u9oDspvYRg_7qchrono8calendar13calendar_implNtB8_8Calendar11num_bizdaysINtNtNtCs2fyPGiZs4Bj_4core3ops5range14RangeInclusiveNtNtNtCs9T1gxOhu6ob_6chrono5naive4date9NaiveDateEEs5_0Bc_
FN:554,_RNCINvMs4_NtNtCs6u9oDspvYRg_7qchrono8calendar13calendar_implNtB8_8Calendar11num_bizdaysINtNtNtCs2fyPGiZs4Bj_4core3ops5range16RangeToInclusiveNtNtNtCs9T1gxOhu6ob_6chrono5naive4date9NaiveDateEEs5_0Bc_
FN:554,_RNCINvMs4_NtNtCs6u9oDspvYRg_7qchrono8calendar13calendar_implNtB8_8Calendar11num_bizdaysINtNtNtCs2fyPGiZs4Bj_4core3ops5range5RangeNtNtNtCs9T1gxOhu6ob_6chrono5naive4date9NaiveDateEEs5_0Bc_
FN:554,_RNCINvMs4_NtNtCs6u9oDspvYRg_7qchrono8calendar13calendar_implNtB8_8Calendar11num_bizdaysINtNtNtCs2fyPGiZs4Bj_4core3ops5range7RangeToNtNtNtCs9T1gxOhu6ob_6chrono5naive4date9NaiveDateEEs5_0Bc_
FN:554,_RNCINvMs4_NtNtCs6u9oDspvYRg_7qchrono8calendar13calendar_implNtB8_8Calendar11num_bizdaysINtNtNtCs2fyPGiZs4Bj_4core3ops5range9RangeFromNtNtNtCs9T1gxOhu6ob_6chrono5naive4date9NaiveDateEEs5_0Bc_
FN:554,_RNCINvMs4_NtNtCs6u9oDspvYRg_7qchrono8calendar13calendar_implNtB8_8Calendar11num_bizdaysNtNtNtCs2fyPGiZs4Bj_4core3ops5range9RangeFullEs5_0Bc_
FN:555,_RNCINvMs4_NtNtCs6u9oDspvYRg_7qchrono8calendar13calendar_implNtB8_8Calendar11num_bizdaysINtNtNtCs2fyPGiZs4Bj_4core3ops5range14RangeInclusiveNtNtNtCs9T1gxOhu6ob_6chrono5naive4date9NaiveDateEEs6_0Bc_
FN:555,_RNCINvMs4_NtNtCs6u9oDspvYRg_7qchrono8calendar13calendar_implNtB8_8Calendar11num_bizdaysINtNtNtCs2fyPGiZs4Bj_4core3ops5range16RangeToInclusiveNtNtNtCs9T1gxOhu6ob_6chrono5naive4date9NaiveDateEEs6_0Bc_
FN:555,_RNCINvMs4_NtNtCs6u9oDspvYRg_7qchrono8calendar13calendar_implNtB8_8Calendar11num_bizdaysINtNtNtCs2fyPGiZs4Bj_4core3ops5range5RangeNtNtNtCs9T1gxOhu6ob_6chrono5naive4date9NaiveDateEEs6_0Bc_
FN:555,_RNCINvMs4_NtNtCs6u9oDspvYRg_7qchrono8calendar13calendar_implNtB8_8Calendar11num_bizdaysINtNtNtCs2fyPGiZs4Bj_4core3ops5range7RangeToNtNtNtCs9T1gxOhu6ob_6chrono5naive4date9NaiveDateEEs6_0Bc_
FN:555,_RNCINvMs4_NtNtCs6u9oDspvYRg_7qchrono8calendar13calendar_implNtB8_8Calendar11num_bizdaysINtNtNtCs2fyPGiZs4Bj_4core3ops5range9RangeFromNtNtNtCs9T1gxOhu6ob_6chrono5naive4date9NaiveDateEEs6_0Bc_
FN:555,_RNCINvMs4_NtNtCs6u9oDspvYRg_7qchrono8calendar13calendar_implNtB8_8Calendar11num_bizdaysNtNtNtCs2fyPGiZs4Bj_4core3ops5range9RangeFullEs6_0Bc_
FN:575,_RNvMs4_NtNtCs6u9oDspvYRg_7qchrono8calendar13calendar_implNtB5_8Calendar10is_holidayB9_
FN:591,_RNvMs4_NtNtCs6u9oDspvYRg_7qchrono8calendar13calendar_implNtB5_8Calendar9is_bizdayB9_
FN:634,_RNvMs4_NtNtCs6u9oDspvYRg_7qchrono8calendar13calendar_implNtB5_8Calendar12iter_bizdaysB9_
FN:643,_RNCNvMs4_NtNtCs6u9oDspvYRg_7qchrono8calendar13calendar_implNtB7_8Calendar12iter_bizdays0Bb_
FN:675,_RNvMs4_NtNtCs6u9oDspvYRg_7qchrono8calendar13calendar_implNtB5_8Calendar13iter_holidaysB9_
FN:684,_RNCNvMs4_NtNtCs6u9oDspvYRg_7qchrono8calendar13calendar_implNtB7_8Calendar13iter_holidays0Bb_
FN:694,_RNvXs5_NtNtCs6u9oDspvYRg_7qchrono8calendar13calendar_implNtB5_8CalendarNtNtNtCs2fyPGiZs4Bj_4core3ops3bit6BitAnd6bitand
FN:702,_RNvXs6_NtNtCs6u9oDspvYRg_7qchrono8calendar13calendar_implNtB5_8CalendarNtNtNtCs2fyPGiZs4Bj_4core3ops3bit5BitOr5bitor
FN:720,_RNvXs7_NtNtCs6u9oDspvYRg_7qchrono8calendar13calendar_implNtB5_12DateIteratorNtNtNtNtCs2fyPGiZs4Bj_4core4iter6traits8iterator8Iterator4nextB9_
FN:731,_RNvXs8_NtNtCs6u9oDspvYRg_7qchrono8calendar13calendar_implNtB5_12DateIteratorNtNtNtNtCs2fyPGiZs4Bj_4core4iter6traits12double_ended19DoubleEndedIterator9next_backB9_
FN:787,_RNvXs9_NtNtCs6u9oDspvYRg_7qchrono8calendar13calendar_implNtB5_15CalendarBuilderNtNtCs2fyPGiZs4Bj_4core7default7Default7defaultB9_
FN:799,_RNvMsa_NtNtCs6u9oDspvYRg_7qchrono8calendar13calendar_implNtB5_15CalendarBuilder3new
FN:808,_RNvMsb_NtNtCs6u9oDspvYRg_7qchrono8calendar13calendar_implINtB5_15CalendarBuilderuuNtNtNtCs9T1gxOhu6ob_6chrono5naive4date9NaiveDateE19with_extra_holidaysB9_
FN:826,_RNvMsc_NtNtCs6u9oDspvYRg_7qchrono8calendar13calendar_implINtB5_15CalendarBuilderINtNtCse0qyoMp9HeL_5alloc3vec3VecNtNtNtCs9T1gxOhu6ob_6chrono5naive4date9NaiveDateEuB1N_E24with_extra_business_daysB9_
FN:845,_RNvMsd_NtNtCs6u9oDspvYRg_7qchrono8calendar13calendar_implNtB5_15CalendarBuilder17with_valid_periodB9_
FN:883,_RNvMsf_NtNtCs6u9oDspvYRg_7qchrono8calendar13calendar_implINtB5_15CalendarBuilderINtNtCse0qyoMp9HeL_5alloc3vec3VecNtNtNtCs9T1gxOhu6ob_6chrono5naive4date9NaiveDateEB1g_B1N_E5build
FN:46,_RINvXNvXNvNvXNtNtCs6u9oDspvYRg_7qchrono8calendar13calendar_implNtBb_13__CalendarDataNtNtCshDylzWGrM8d_5serde2de11Deserialize11deserialize1__NtB8_5__DataB1k_11deserializeNtB3_14___FieldVisitorNtB1m_7Visitor9visit_strNtNtCsjMEqcGD1gYq_10serde_json5error5ErrorEBf_
FN:46,_RINvXs_NvXNvNvXNtNtCs6u9oDspvYRg_7qchrono8calendar13calendar_implNtBd_13__CalendarDataNtNtCshDylzWGrM8d_5serde2de11Deserialize11deserialize1__NtBa_5__DataB1m_11deserializeNtB5_7___FieldB1m_11deserializeNtNtNtCsjMEqcGD1gYq_10serde_json5value2de18MapKeyDeserializerEBh_
FN:46,_RNvXs0_NvXNvNvXNtNtCs6u9oDspvYRg_7qchrono8calendar13calendar_implNtBd_13__CalendarDataNtNtCshDylzWGrM8d_5serde2de11Deserialize11deserialize1__NtBa_5__DataB1m_11deserializeNtB5_9___VisitorNtB1o_7Visitor9expecting
FN:46,_RINvXs0_NvXNvNvXNtNtCs6u9oDspvYRg_7qchrono8calendar13calendar_implNtBe_13__CalendarDataNtNtCshDylzWGrM8d_5serde2de11Deserialize11deserialize1__NtBb_5__DataB1n_11deserializeNtB6_9___VisitorNtB1p_7Visitor9visit_seqQNtNtNtCsjMEqcGD1gYq_10serde_json5value2de15SeqDeserializerEBi_
FN:46,_RINvXs0_NvXNvNvXNtNtCs6u9oDspvYRg_7qchrono8calendar13calendar_implNtBe_13__CalendarDataNtNtCshDylzWGrM8d_5serde2de11Deserialize11deserialize1__NtBb_5__DataB1n_11deserializeNtB6_9___VisitorNtB1p_7Visitor9visit_mapQNtNtNtCsjMEqcGD1gYq_10serde_json5value2de15MapDeserializerEBi_
FN:99,_RNCNvMs_NtNtCs6u9oDspvYRg_7qchrono8calendar13calendar_implNtB6_13__CalendarData3new0Ba_
FN:106,_RNCNvMs_NtNtCs6u9oDspvYRg_7qchrono8calendar13calendar_implNtB6_13__CalendarData3news_0Ba_
FN:14,_RNCNvXNvNtNtCs6u9oDspvYRg_7qchrono8calendar13calendar_impls_1__NtB6_13__CalendarDataNtCsfZgeB9GPpUp_8schemars10JsonSchema11json_schema0Ba_
FN:46,_RNvXNvXNvNvXNtNtCs6u9oDspvYRg_7qchrono8calendar13calendar_implNtBa_13__CalendarDataNtNtCshDylzWGrM8d_5serde2de11Deserialize11deserialize1__NtB7_5__DataB1j_11deserializeNtB2_14___FieldVisitorNtB1l_7Visitor9expecting
FN:46,_RINvXNvXNvNvXNtNtCs6u9oDspvYRg_7qchrono8calendar13calendar_implNtBb_13__CalendarDataNtNtCshDylzWGrM8d_5serde2de11Deserialize11deserialize1__NtB8_5__DataB1k_11deserializeNtB3_14___FieldVisitorNtB1m_7Visitor9visit_u64pEBf_
FN:46,_RINvXNvXNvNvXNtNtCs6u9oDspvYRg_7qchrono8calendar13calendar_implNtBb_13__CalendarDataNtNtCshDylzWGrM8d_5serde2de11Deserialize11deserialize1__NtB8_5__DataB1k_11deserializeNtB3_14___FieldVisitorNtB1m_7Visitor11visit_bytespEBf_
FN:122,_RNvXsr_NtNtCs6u9oDspvYRg_7qchrono8calendar13calendar_implNtB5_13CalendarErrorNtNtCs2fyPGiZs4Bj_4core3fmt7Display3fmt
FN:252,_RNvXs2_NtNtCs6u9oDspvYRg_7qchrono8calendar13calendar_implNtB5_8CalendarNtCsfZgeB9GPpUp_8schemars10JsonSchema11schema_name
FN:255,_RNvXs2_NtNtCs6u9oDspvYRg_7qchrono8calendar13calendar_implNtB5_8CalendarNtCsfZgeB9GPpUp_8schemars10JsonSchema9schema_id
FN:258,_RNvXs2_NtNtCs6u9oDspvYRg_7qchrono8calendar13calendar_implNtB5_8CalendarNtCsfZgeB9GPpUp_8schemars10JsonSchema11json_schema
FN:864,_RNvMse_NtNtCs6u9oDspvYRg_7qchrono8calendar13calendar_implINtB5_15CalendarBuilderpupE23treat_weekend_as_bizdayB9_
FN:490,_RINvMs4_NtNtCs2bSmrEEol5z_7qchrono8calendar13calendar_implNtB6_8Calendar11num_bizdaysINtNtNtCs2fyPGiZs4Bj_4core3ops5range5RangeRNtNtNtCs9T1gxOhu6ob_6chrono5naive4date9NaiveDateEECslNfvs0bCstK_8qfincore
FN:513,_RNCINvMs4_NtNtCs2bSmrEEol5z_7qchrono8calendar13calendar_implNtB8_8Calendar11num_bizdaysINtNtNtCs2fyPGiZs4Bj_4core3ops5range5RangeRNtNtNtCs9T1gxOhu6ob_6chrono5naive4date9NaiveDateEE0CslNfvs0bCstK_8qfincore
FN:531,_RNCINvMs4_NtNtCs2bSmrEEol5z_7qchrono8calendar13calendar_implNtB8_8Calendar11num_bizdaysINtNtNtCs2fyPGiZs4Bj_4core3ops5range5RangeRNtNtNtCs9T1gxOhu6ob_6chrono5naive4date9NaiveDateEEs0_0CslNfvs0bCstK_8qfincore
FN:542,_RNCINvMs4_NtNtCs2bSmrEEol5z_7qchrono8calendar13calendar_implNtB8_8Calendar11num_bizdaysINtNtNtCs2fyPGiZs4Bj_4core3ops5range5RangeRNtNtNtCs9T1gxOhu6ob_6chrono5naive4date9NaiveDateEEs1_0CslNfvs0bCstK_8qfincore
FN:543,_RNCINvMs4_NtNtCs2bSmrEEol5z_7qchrono8calendar13calendar_implNtB8_8Calendar11num_bizdaysINtNtNtCs2fyPGiZs4Bj_4core3ops5range5RangeRNtNtNtCs9T1gxOhu6ob_6chrono5naive4date9NaiveDateEEs2_0CslNfvs0bCstK_8qfincore
FN:549,_RNCINvMs4_NtNtCs2bSmrEEol5z_7qchrono8calendar13calendar_implNtB8_8Calendar11num_bizdaysINtNtNtCs2fyPGiZs4Bj_4core3ops5range5RangeRNtNtNtCs9T1gxOhu6ob_6chrono5naive4date9NaiveDateEEs3_0CslNfvs0bCstK_8qfincore
FN:550,_RNCINvMs4_NtNtCs2bSmrEEol5z_7qchrono8calendar13calendar_implNtB8_8Calendar11num_bizdaysINtNtNtCs2fyPGiZs4Bj_4core3ops5range5RangeRNtNtNtCs9T1gxOhu6ob_6chrono5naive4date9NaiveDateEEs4_0CslNfvs0bCstK_8qfincore
FN:554,_RNCINvMs4_NtNtCs2bSmrEEol5z_7qchrono8calendar13calendar_implNtB8_8Calendar11num_bizdaysINtNtNtCs2fyPGiZs4Bj_4core3ops5range5RangeRNtNtNtCs9T1gxOhu6ob_6chrono5naive4date9NaiveDateEEs5_0CslNfvs0bCstK_8qfincore
FN:555,_RNCINvMs4_NtNtCs2bSmrEEol5z_7qchrono8calendar13calendar_implNtB8_8Calendar11num_bizdaysINtNtNtCs2fyPGiZs4Bj_4core3ops5range5RangeRNtNtNtCs9T1gxOhu6ob_6chrono5naive4date9NaiveDateEEs6_0CslNfvs0bCstK_8qfincore
FN:526,_RNCINvMs4_NtNtCs2bSmrEEol5z_7qchrono8calendar13calendar_implNtB8_8Calendar11num_bizdaysINtNtNtCs2fyPGiZs4Bj_4core3ops5range5RangeRNtNtNtCs9T1gxOhu6ob_6chrono5naive4date9NaiveDateEEs_0CslNfvs0bCstK_8qfincore
FN:287,_RNvMs3_NtNtCs2bSmrEEol5z_7qchrono8calendar13calendar_implNtB5_8Calendar7builderCslNfvs0bCstK_8qfincore
FN:424,_RNvMs4_NtNtCs2bSmrEEol5z_7qchrono8calendar13calendar_implNtB5_8Calendar12valid_periodCslNfvs0bCstK_8qfincore
FN:448,_RNvMs4_NtNtCs2bSmrEEol5z_7qchrono8calendar13calendar_implNtB5_8Calendar13extra_bizdaysCslNfvs0bCstK_8qfincore
FN:442,_RNvMs4_NtNtCs2bSmrEEol5z_7qchrono8calendar13calendar_implNtB5_8Calendar14extra_holidaysCslNfvs0bCstK_8qfincore
FN:454,_RNvMs4_NtNtCs2bSmrEEol5z_7qchrono8calendar13calendar_implNtB5_8Calendar23treat_weekend_as_bizdayCslNfvs0bCstK_8qfincore
FN:429,_RNvMs4_NtNtCs2bSmrEEol5z_7qchrono8calendar13calendar_implNtB5_8Calendar8validateCslNfvs0bCstK_8qfincore
FN:808,_RNvMsb_NtNtCs2bSmrEEol5z_7qchrono8calendar13calendar_implINtB5_15CalendarBuilderuINtNtCse0qyoMp9HeL_5alloc3vec3VecNtNtNtCs9T1gxOhu6ob_6chrono5naive4date9NaiveDateEB1O_E19with_extra_holidaysCslNfvs0bCstK_8qfincore
FN:808,_RNvMsb_NtNtCs2bSmrEEol5z_7qchrono8calendar13calendar_implINtB5_15CalendarBuilderuINtNtCse0qyoMp9HeL_5alloc3vec3VecNtNtNtCs9T1gxOhu6ob_6chrono5naive4date9NaiveDateEE19with_extra_holidaysCslNfvs0bCstK_8qfincore
FN:826,_RNvMsc_NtNtCs2bSmrEEol5z_7qchrono8calendar13calendar_implINtB5_15CalendarBuilderuuNtNtNtCs9T1gxOhu6ob_6chrono5naive4date9NaiveDateE24with_extra_business_daysCslNfvs0bCstK_8qfincore
FN:826,_RNvMsc_NtNtCs2bSmrEEol5z_7qchrono8calendar13calendar_implNtB5_15CalendarBuilder24with_extra_business_daysCslNfvs0bCstK_8qfincore
FN:845,_RNvMsd_NtNtCs2bSmrEEol5z_7qchrono8calendar13calendar_implINtB5_15CalendarBuilderINtNtCse0qyoMp9HeL_5alloc3vec3VecNtNtNtCs9T1gxOhu6ob_6chrono5naive4date9NaiveDateEB1g_E17with_valid_periodCslNfvs0bCstK_8qfincore
FN:845,_RNvMsd_NtNtCs2bSmrEEol5z_7qchrono8calendar13calendar_implNtB5_15CalendarBuilder17with_valid_periodCslNfvs0bCstK_8qfincore
FN:71,_RNvMs_NtNtCs2bSmrEEol5z_7qchrono8calendar13calendar_implNtB4_13__CalendarData3new
FN:252,_RNvXs2_NtNtCs2bSmrEEol5z_7qchrono8calendar13calendar_implNtB5_8CalendarNtCsfZgeB9GPpUp_8schemars10JsonSchema11schema_name
FN:255,_RNvXs2_NtNtCs2bSmrEEol5z_7qchrono8calendar13calendar_implNtB5_8CalendarNtCsfZgeB9GPpUp_8schemars10JsonSchema9schema_id
FN:258,_RNvXs2_NtNtCs2bSmrEEol5z_7qchrono8calendar13calendar_implNtB5_8CalendarNtCsfZgeB9GPpUp_8schemars10JsonSchema11json_schema
FN:267,_RNvMs3_NtNtCs2bSmrEEol5z_7qchrono8calendar13calendar_implNtB5_8Calendar4__new
FN:302,_RINvMs3_NtNtCs2bSmrEEol5z_7qchrono8calendar13calendar_implNtB6_8Calendar13any_closed_ofABU_j2_EBa_
FN:302,_RINvMs3_NtNtCs2bSmrEEol5z_7qchrono8calendar13calendar_implNtB6_8Calendar13any_closed_ofINtCs1TWK2DdqTCU_8smallvec8SmallVecABU_j5_EEBa_
FN:325,_RNCINvMs3_NtNtCs2bSmrEEol5z_7qchrono8calendar13calendar_implNtB8_8Calendar13any_closed_ofABW_j2_E0Bc_
FN:325,_RNCINvMs3_NtNtCs2bSmrEEol5z_7qchrono8calendar13calendar_implNtB8_8Calendar13any_closed_ofINtCs1TWK2DdqTCU_8smallvec8SmallVecABW_j5_EE0Bc_
FN:360,_RINvMs3_NtNtCs2bSmrEEol5z_7qchrono8calendar13calendar_implNtB6_8Calendar13all_closed_ofABU_j2_EBa_
FN:360,_RINvMs3_NtNtCs2bSmrEEol5z_7qchrono8calendar13calendar_implNtB6_8Calendar13all_closed_ofINtCs1TWK2DdqTCU_8smallvec8SmallVecABU_j5_EEBa_
FN:384,_RNCINvMs3_NtNtCs2bSmrEEol5z_7qchrono8calendar13calendar_implNtB8_8Calendar13all_closed_ofABW_j2_E0Bc_
FN:384,_RNCINvMs3_NtNtCs2bSmrEEol5z_7qchrono8calendar13calendar_implNtB8_8Calendar13all_closed_ofINtCs1TWK2DdqTCU_8smallvec8SmallVecABW_j5_EE0Bc_
FN:424,_RNvMs4_NtNtCs2bSmrEEol5z_7qchrono8calendar13calendar_implNtB5_8Calendar12valid_periodB9_
FN:429,_RNvMs4_NtNtCs2bSmrEEol5z_7qchrono8calendar13calendar_implNtB5_8Calendar8validateB9_
FN:454,_RNvMs4_NtNtCs2bSmrEEol5z_7qchrono8calendar13calendar_implNtB5_8Calendar23treat_weekend_as_bizdayB9_
FN:591,_RNvMs4_NtNtCs2bSmrEEol5z_7qchrono8calendar13calendar_implNtB5_8Calendar9is_bizdayB9_
FN:634,_RNvMs4_NtNtCs2bSmrEEol5z_7qchrono8calendar13calendar_implNtB5_8Calendar12iter_bizdaysB9_
FN:643,_RNCNvMs4_NtNtCs2bSmrEEol5z_7qchrono8calendar13calendar_implNtB7_8Calendar12iter_bizdays0Bb_
FN:694,_RNvXs5_NtNtCs2bSmrEEol5z_7qchrono8calendar13calendar_implNtB5_8CalendarNtNtNtCs2fyPGiZs4Bj_4core3ops3bit6BitAnd6bitand
FN:702,_RNvXs6_NtNtCs2bSmrEEol5z_7qchrono8calendar13calendar_implNtB5_8CalendarNtNtNtCs2fyPGiZs4Bj_4core3ops3bit5BitOr5bitor
FN:720,_RNvXs7_NtNtCs2bSmrEEol5z_7qchrono8calendar13calendar_implNtB5_12DateIteratorNtNtNtNtCs2fyPGiZs4Bj_4core4iter6traits8iterator8Iterator4nextB9_
FN:731,_RNvXs8_NtNtCs2bSmrEEol5z_7qchrono8calendar13calendar_implNtB5_12DateIteratorNtNtNtNtCs2fyPGiZs4Bj_4core4iter6traits12double_ended19DoubleEndedIterator9next_backB9_
FN:787,_RNvXs9_NtNtCs2bSmrEEol5z_7qchrono8calendar13calendar_implNtB5_15CalendarBuilderNtNtCs2fyPGiZs4Bj_4core7default7Default7defaultB9_
FN:799,_RNvMsa_NtNtCs2bSmrEEol5z_7qchrono8calendar13calendar_implNtB5_15CalendarBuilder3new
FN:883,_RNvMsf_NtNtCs2bSmrEEol5z_7qchrono8calendar13calendar_implINtB5_15CalendarBuilderINtNtCse0qyoMp9HeL_5alloc3vec3VecNtNtNtCs9T1gxOhu6ob_6chrono5naive4date9NaiveDateEB1g_B1N_E5build
FN:14,_RNCNvXNvNtNtCs2bSmrEEol5z_7qchrono8calendar13calendar_impls_1__NtB6_13__CalendarDataNtCsfZgeB9GPpUp_8schemars10JsonSchema11json_schema0Ba_
FN:46,_RNvXNvXNvNvXNtNtCs2bSmrEEol5z_7qchrono8calendar13calendar_implNtBa_13__CalendarDataNtNtCshDylzWGrM8d_5serde2de11Deserialize11deserialize1__NtB7_5__DataB1j_11deserializeNtB2_14___FieldVisitorNtB1l_7Visitor9expecting
FN:46,_RNvXs0_NvXNvNvXNtNtCs2bSmrEEol5z_7qchrono8calendar13calendar_implNtBd_13__CalendarDataNtNtCshDylzWGrM8d_5serde2de11Deserialize11deserialize1__NtBa_5__DataB1m_11deserializeNtB5_9___VisitorNtB1o_7Visitor9expecting
FN:99,_RNCNvMs_NtNtCs2bSmrEEol5z_7qchrono8calendar13calendar_implNtB6_13__CalendarData3new0Ba_
FN:106,_RNCNvMs_NtNtCs2bSmrEEol5z_7qchrono8calendar13calendar_implNtB6_13__CalendarData3news_0Ba_
FN:122,_RNvXsr_NtNtCs2bSmrEEol5z_7qchrono8calendar13calendar_implNtB5_13CalendarErrorNtNtCs2fyPGiZs4Bj_4core3fmt7Display3fmt
FN:42,_RINvXNtNtCs2bSmrEEol5z_7qchrono8calendar13calendar_implNtB3_13__CalendarDataNtNtCshDylzWGrM8d_5serde2de11Deserialize11deserializepEB7_
FN:46,_RINvXNvXNvNvXNtNtCs2bSmrEEol5z_7qchrono8calendar13calendar_implNtBb_13__CalendarDataNtNtCshDylzWGrM8d_5serde2de11Deserialize11deserialize1__NtB8_5__DataB1k_11deserializeNtB3_14___FieldVisitorNtB1m_7Visitor9visit_u64pEBf_
FN:46,_RINvXNvXNvNvXNtNtCs2bSmrEEol5z_7qchrono8calendar13calendar_implNtBb_13__CalendarDataNtNtCshDylzWGrM8d_5serde2de11Deserialize11deserialize1__NtB8_5__DataB1k_11deserializeNtB3_14___FieldVisitorNtB1m_7Visitor9visit_strpEBf_
FN:46,_RINvXNvXNvNvXNtNtCs2bSmrEEol5z_7qchrono8calendar13calendar_implNtBb_13__CalendarDataNtNtCshDylzWGrM8d_5serde2de11Deserialize11deserialize1__NtB8_5__DataB1k_11deserializeNtB3_14___FieldVisitorNtB1m_7Visitor11visit_bytespEBf_
FN:46,_RINvXs_NvXNvNvXNtNtCs2bSmrEEol5z_7qchrono8calendar13calendar_implNtBd_13__CalendarDataNtNtCshDylzWGrM8d_5serde2de11Deserialize11deserialize1__NtBa_5__DataB1m_11deserializeNtB5_7___FieldB1m_11deserializepEBh_
FN:46,_RINvXs0_NvXNvNvXNtNtCs2bSmrEEol5z_7qchrono8calendar13calendar_implNtBe_13__CalendarDataNtNtCshDylzWGrM8d_5serde2de11Deserialize11deserialize1__NtBb_5__DataB1n_11deserializeNtB6_9___VisitorNtB1p_7Visitor9visit_seqpEBi_
FN:46,_RINvXs0_NvXNvNvXNtNtCs2bSmrEEol5z_7qchrono8calendar13calendar_implNtBe_13__CalendarDataNtNtCshDylzWGrM8d_5serde2de11Deserialize11deserialize1__NtBb_5__DataB1n_11deserializeNtB6_9___VisitorNtB1p_7Visitor9visit_mappEBi_
FN:232,_RINvXs0_NtNtCs2bSmrEEol5z_7qchrono8calendar13calendar_implNtB6_8CalendarNtNtCshDylzWGrM8d_5serde3ser9Serialize9serializepEBa_
FN:242,_RINvXs1_NtNtCs2bSmrEEol5z_7qchrono8calendar13calendar_implNtB6_8CalendarNtNtCshDylzWGrM8d_5serde2de11Deserialize11deserializepEBa_
FN:287,_RNvMs3_NtNtCs2bSmrEEol5z_7qchrono8calendar13calendar_implNtB5_8Calendar7builderB9_
FN:442,_RNvMs4_NtNtCs2bSmrEEol5z_7qchrono8calendar13calendar_implNtB5_8Calendar14extra_holidaysB9_
FN:448,_RNvMs4_NtNtCs2bSmrEEol5z_7qchrono8calendar13calendar_implNtB5_8Calendar13extra_bizdaysB9_
FN:490,_RINvMs4_NtNtCs2bSmrEEol5z_7qchrono8calendar13calendar_implNtB6_8Calendar11num_bizdayspEBa_
FN:513,_RNCINvMs4_NtNtCs2bSmrEEol5z_7qchrono8calendar13calendar_implNtB8_8Calendar11num_bizdayspE0Bc_
FN:526,_RNCINvMs4_NtNtCs2bSmrEEol5z_7qchrono8calendar13calendar_implNtB8_8Calendar11num_bizdayspEs_0Bc_
FN:531,_RNCINvMs4_NtNtCs2bSmrEEol5z_7qchrono8calendar13calendar_implNtB8_8Calendar11num_bizdayspEs0_0Bc_
FN:542,_RNCINvMs4_NtNtCs2bSmrEEol5z_7qchrono8calendar13calendar_implNtB8_8Calendar11num_bizdayspEs1_0Bc_
FN:543,_RNCINvMs4_NtNtCs2bSmrEEol5z_7qchrono8calendar13calendar_implNtB8_8Calendar11num_bizdayspEs2_0Bc_
FN:549,_RNCINvMs4_NtNtCs2bSmrEEol5z_7qchrono8calendar13calendar_implNtB8_8Calendar11num_bizdayspEs3_0Bc_
FN:550,_RNCINvMs4_NtNtCs2bSmrEEol5z_7qchrono8calendar13calendar_implNtB8_8Calendar11num_bizdayspEs4_0Bc_
FN:554,_RNCINvMs4_NtNtCs2bSmrEEol5z_7qchrono8calendar13calendar_implNtB8_8Calendar11num_bizdayspEs5_0Bc_
FN:555,_RNCINvMs4_NtNtCs2bSmrEEol5z_7qchrono8calendar13calendar_implNtB8_8Calendar11num_bizdayspEs6_0Bc_
FN:575,_RNvMs4_NtNtCs2bSmrEEol5z_7qchrono8calendar13calendar_implNtB5_8Calendar10is_holidayB9_
FN:675,_RNvMs4_NtNtCs2bSmrEEol5z_7qchrono8calendar13calendar_implNtB5_8Calendar13iter_holidaysB9_
FN:684,_RNCNvMs4_NtNtCs2bSmrEEol5z_7qchrono8calendar13calendar_implNtB7_8Calendar13iter_holidays0Bb_
FN:808,_RNvMsb_NtNtCs2bSmrEEol5z_7qchrono8calendar13calendar_implINtB5_15CalendarBuilderuppE19with_extra_holidaysB9_
FN:826,_RNvMsc_NtNtCs2bSmrEEol5z_7qchrono8calendar13calendar_implINtB5_15CalendarBuilderpupE24with_extra_business_daysB9_
FN:845,_RNvMsd_NtNtCs2bSmrEEol5z_7qchrono8calendar13calendar_implINtB5_15CalendarBuilderppE17with_valid_periodB9_
FN:864,_RNvMse_NtNtCs2bSmrEEol5z_7qchrono8calendar13calendar_implINtB5_15CalendarBuilderpupE23treat_weekend_as_bizdayB9_
FN:287,_RNvMs3_NtNtCs2bSmrEEol5z_7qchrono8calendar13calendar_implNtB5_8Calendar7builderCsg8mytIw4ZXd_6qmodel
FN:808,_RNvMsb_NtNtCs2bSmrEEol5z_7qchrono8calendar13calendar_implINtB5_15CalendarBuilderuINtNtCse0qyoMp9HeL_5alloc3vec3VecNtNtNtCs9T1gxOhu6ob_6chrono5naive4date9NaiveDateEE19with_extra_holidaysCsg8mytIw4ZXd_6qmodel
FN:826,_RNvMsc_NtNtCs2bSmrEEol5z_7qchrono8calendar13calendar_implNtB5_15CalendarBuilder24with_extra_business_daysCsg8mytIw4ZXd_6qmodel
FN:845,_RNvMsd_NtNtCs2bSmrEEol5z_7qchrono8calendar13calendar_implINtB5_15CalendarBuilderINtNtCse0qyoMp9HeL_5alloc3vec3VecNtNtNtCs9T1gxOhu6ob_6chrono5naive4date9NaiveDateEB1g_E17with_valid_periodCsg8mytIw4ZXd_6qmodel
FN:634,_RNvMs4_NtNtCs2bSmrEEol5z_7qchrono8calendar13calendar_implNtB5_8Calendar12iter_bizdaysCs4yCwz0hjEDq_8qfincore
FNDA:1,_RNvNtNtNtNtNtNtCs6u9oDspvYRg_7qchrono8calendar13calendar_impl5tests16test_num_bizdays6case_120stt_5_ymd_2021_1_13_s_20end_1_NaiveDate__MIN
FNDA:1,_RNvNtNtNtNtNtNtCs6u9oDspvYRg_7qchrono8calendar13calendar_impl5tests16test_num_bizdays6case_120stt_5_ymd_2021_1_13_s_19end_2_ymd_1999_1_1_
FNDA:1,_RNvNtNtNtNtNtNtCs6u9oDspvYRg_7qchrono8calendar13calendar_impl5tests16test_num_bizdays6case_120stt_5_ymd_2021_1_13_s_19end_3_ymd_2021_1_1_
FNDA:1,_RNvNtNtNtNtNtNtCs6u9oDspvYRg_7qchrono8calendar13calendar_impl5tests16test_num_bizdays6case_120stt_5_ymd_2021_1_13_s_20end_4_ymd_2021_1_10_
FNDA:1,_RNvNtNtNtNtNtNtCs6u9oDspvYRg_7qchrono8calendar13calendar_impl5tests16test_num_bizdays6case_120stt_5_ymd_2021_1_13_s_20end_5_ymd_2021_1_13_
FNDA:1,_RNvNtNtNtNtNtNtCs6u9oDspvYRg_7qchrono8calendar13calendar_impl5tests16test_num_bizdays6case_120stt_5_ymd_2021_1_13_s_20end_6_ymd_2021_1_20_
FNDA:1,_RNvNtNtNtNtNtNtCs6u9oDspvYRg_7qchrono8calendar13calendar_impl5tests16test_num_bizdays6case_120stt_5_ymd_2021_1_13_s_19end_7_ymd_2025_1_1_
FNDA:1,_RNvNtNtNtNtNtNtCs6u9oDspvYRg_7qchrono8calendar13calendar_impl5tests16test_num_bizdays6case_120stt_5_ymd_2021_1_13_s_20end_8_NaiveDate__MAX
FNDA:1,_RNvNtNtNtNtNtNtCs6u9oDspvYRg_7qchrono8calendar13calendar_impl5tests16test_num_bizdays6case_219stt_3_ymd_2021_1_1_s_20end_1_NaiveDate__MIN
FNDA:1,_RNvNtNtNtNtNtNtCs6u9oDspvYRg_7qchrono8calendar13calendar_impl5tests16test_num_bizdays6case_219stt_3_ymd_2021_1_1_s_19end_2_ymd_1999_1_1_
FNDA:1,_RNvNtNtNtNtNtNtCs6u9oDspvYRg_7qchrono8calendar13calendar_impl5tests16test_num_bizdays6case_219stt_3_ymd_2021_1_1_s_19end_3_ymd_2021_1_1_
FNDA:1,_RNvNtNtNtNtNtNtCs6u9oDspvYRg_7qchrono8calendar13calendar_impl5tests16test_num_bizdays6case_219stt_3_ymd_2021_1_1_s_20end_4_ymd_2021_1_10_
FNDA:1,_RNvNtNtNtNtNtNtCs6u9oDspvYRg_7qchrono8calendar13calendar_impl5tests16test_num_bizdays6case_219stt_3_ymd_2021_1_1_s_20end_5_ymd_2021_1_13_
FNDA:1,_RNvNtNtNtNtNtNtCs6u9oDspvYRg_7qchrono8calendar13calendar_impl5tests16test_num_bizdays6case_219stt_3_ymd_2021_1_1_s_20end_6_ymd_2021_1_20_
FNDA:1,_RNvNtNtNtNtNtNtCs6u9oDspvYRg_7qchrono8calendar13calendar_impl5tests16test_num_bizdays6case_219stt_3_ymd_2021_1_1_s_19end_7_ymd_2025_1_1_
FNDA:1,_RNvNtNtNtNtNtNtCs6u9oDspvYRg_7qchrono8calendar13calendar_impl5tests16test_num_bizdays6case_219stt_3_ymd_2021_1_1_s_20end_8_NaiveDate__MAX
FNDA:1,_RNvNtNtNtNtNtNtCs6u9oDspvYRg_7qchrono8calendar13calendar_impl5tests16test_num_bizdays6case_220stt_6_ymd_2021_1_20_s_20end_1_NaiveDate__MIN
FNDA:1,_RNvNtNtNtNtNtNtCs6u9oDspvYRg_7qchrono8calendar13calendar_impl5tests16test_num_bizdays6case_220stt_6_ymd_2021_1_20_s_19end_2_ymd_1999_1_1_
FNDA:1,_RNvNtNtNtNtNtNtCs6u9oDspvYRg_7qchrono8calendar13calendar_impl5tests16test_num_bizdays6case_220stt_6_ymd_2021_1_20_s_19end_3_ymd_2021_1_1_
FNDA:1,_RNvNtNtNtNtNtNtCs6u9oDspvYRg_7qchrono8calendar13calendar_impl5tests16test_num_bizdays6case_220stt_6_ymd_2021_1_20_s_20end_4_ymd_2021_1_10_
FNDA:1,_RNvNtNtNtNtNtNtCs6u9oDspvYRg_7qchrono8calendar13calendar_impl5tests16test_num_bizdays6case_220stt_6_ymd_2021_1_20_s_20end_5_ymd_2021_1_13_
FNDA:1,_RNvNtNtNtNtNtNtCs6u9oDspvYRg_7qchrono8calendar13calendar_impl5tests16test_num_bizdays6case_220stt_6_ymd_2021_1_20_s_20end_6_ymd_2021_1_20_
FNDA:1,_RNvNtNtNtNtNtNtCs6u9oDspvYRg_7qchrono8calendar13calendar_impl5tests16test_num_bizdays6case_220stt_6_ymd_2021_1_20_s_19end_7_ymd_2025_1_1_
FNDA:1,_RNvNtNtNtNtNtNtCs6u9oDspvYRg_7qchrono8calendar13calendar_impl5tests16test_num_bizdays6case_220stt_6_ymd_2021_1_20_s_20end_8_NaiveDate__MAX
FNDA:1,_RNvNtNtNtNtNtNtCs6u9oDspvYRg_7qchrono8calendar13calendar_impl5tests16test_num_bizdays6case_420stt_8_NaiveDate__MAXs_20end_1_NaiveDate__MIN
FNDA:1,_RNvNtNtNtNtNtNtCs6u9oDspvYRg_7qchrono8calendar13calendar_impl5tests16test_num_bizdays6case_420stt_8_NaiveDate__MAXs_19end_2_ymd_1999_1_1_
FNDA:1,_RNvNtNtNtNtNtNtCs6u9oDspvYRg_7qchrono8calendar13calendar_impl5tests16test_num_bizdays6case_420stt_8_NaiveDate__MAXs_19end_3_ymd_2021_1_1_
FNDA:1,_RNvNtNtNtNtNtNtCs6u9oDspvYRg_7qchrono8calendar13calendar_impl5tests16test_num_bizdays6case_420stt_8_NaiveDate__MAXs_20end_4_ymd_2021_1_10_
FNDA:1,_RNvNtNtNtNtNtNtCs6u9oDspvYRg_7qchrono8calendar13calendar_impl5tests16test_num_bizdays6case_420stt_8_NaiveDate__MAXs_20end_5_ymd_2021_1_13_
FNDA:1,_RNvNtNtNtNtNtNtCs6u9oDspvYRg_7qchrono8calendar13calendar_impl5tests16test_num_bizdays6case_420stt_8_NaiveDate__MAXs_20end_6_ymd_2021_1_20_
FNDA:1,_RNvNtNtNtNtNtNtCs6u9oDspvYRg_7qchrono8calendar13calendar_impl5tests16test_num_bizdays6case_420stt_8_NaiveDate__MAXs_19end_7_ymd_2025_1_1_
FNDA:1,_RNvNtNtNtNtNtNtCs6u9oDspvYRg_7qchrono8calendar13calendar_impl5tests16test_num_bizdays6case_420stt_8_NaiveDate__MAXs_20end_8_NaiveDate__MAX
FNDA:1,_RNvNtNtNtNtNtNtCs6u9oDspvYRg_7qchrono8calendar13calendar_impl5tests16test_num_bizdays6case_119stt_2_ymd_1999_1_1_s_20end_1_NaiveDate__MIN
FNDA:1,_RNvNtNtNtNtNtNtCs6u9oDspvYRg_7qchrono8calendar13calendar_impl5tests16test_num_bizdays6case_119stt_2_ymd_1999_1_1_s_19end_2_ymd_1999_1_1_
FNDA:1,_RNvNtNtNtNtNtNtCs6u9oDspvYRg_7qchrono8calendar13calendar_impl5tests16test_num_bizdays6case_119stt_2_ymd_1999_1_1_s_19end_3_ymd_2021_1_1_
FNDA:1,_RNvNtNtNtNtNtNtCs6u9oDspvYRg_7qchrono8calendar13calendar_impl5tests16test_num_bizdays6case_119stt_2_ymd_1999_1_1_s_20end_4_ymd_2021_1_10_
FNDA:1,_RNvNtNtNtNtNtNtCs6u9oDspvYRg_7qchrono8calendar13calendar_impl5tests16test_num_bizdays6case_119stt_2_ymd_1999_1_1_s_20end_5_ymd_2021_1_13_
FNDA:1,_RNvNtNtNtNtNtNtCs6u9oDspvYRg_7qchrono8calendar13calendar_impl5tests16test_num_bizdays6case_119stt_2_ymd_1999_1_1_s_20end_6_ymd_2021_1_20_
FNDA:1,_RNvNtNtNtNtNtNtCs6u9oDspvYRg_7qchrono8calendar13calendar_impl5tests16test_num_bizdays6case_119stt_2_ymd_1999_1_1_s_19end_7_ymd_2025_1_1_
FNDA:1,_RNvNtNtNtNtNtNtCs6u9oDspvYRg_7qchrono8calendar13calendar_impl5tests16test_num_bizdays6case_119stt_2_ymd_1999_1_1_s_20end_8_NaiveDate__MAX
FNDA:1,_RNvNtNtNtNtNtNtCs6u9oDspvYRg_7qchrono8calendar13calendar_impl5tests16test_num_bizdays6case_220stt_8_NaiveDate__MAXs_20end_1_NaiveDate__MIN
FNDA:1,_RNvNtNtNtNtNtNtCs6u9oDspvYRg_7qchrono8calendar13calendar_impl5tests16test_num_bizdays6case_220stt_8_NaiveDate__MAXs_19end_2_ymd_1999_1_1_
FNDA:1,_RNvNtNtNtNtNtNtCs6u9oDspvYRg_7qchrono8calendar13calendar_impl5tests16test_num_bizdays6case_220stt_8_NaiveDate__MAXs_19end_3_ymd_2021_1_1_
FNDA:1,_RNvNtNtNtNtNtNtCs6u9oDspvYRg_7qchrono8calendar13calendar_impl5tests16test_num_bizdays6case_220stt_8_NaiveDate__MAXs_20end_4_ymd_2021_1_10_
FNDA:1,_RNvNtNtNtNtNtNtCs6u9oDspvYRg_7qchrono8calendar13calendar_impl5tests16test_num_bizdays6case_220stt_8_NaiveDate__MAXs_20end_5_ymd_2021_1_13_
FNDA:1,_RNvNtNtNtNtNtNtCs6u9oDspvYRg_7qchrono8calendar13calendar_impl5tests16test_num_bizdays6case_220stt_8_NaiveDate__MAXs_20end_6_ymd_2021_1_20_
FNDA:1,_RNvNtNtNtNtNtNtCs6u9oDspvYRg_7qchrono8calendar13calendar_impl5tests16test_num_bizdays6case_220stt_8_NaiveDate__MAXs_19end_7_ymd_2025_1_1_
FNDA:1,_RNvNtNtNtNtNtNtCs6u9oDspvYRg_7qchrono8calendar13calendar_impl5tests16test_num_bizdays6case_220stt_8_NaiveDate__MAXs_20end_8_NaiveDate__MAX
FNDA:1,_RNvNtNtNtNtNtCs6u9oDspvYRg_7qchrono8calendar13calendar_impl5tests34test_num_bizdays_unbounded_partial6case_1s_18d_1_NaiveDate__MIN
FNDA:1,_RNvNtNtNtNtNtCs6u9oDspvYRg_7qchrono8calendar13calendar_impl5tests34test_num_bizdays_unbounded_partial6case_1s_17d_2_ymd_1999_1_1_
FNDA:1,_RNvNtNtNtNtNtCs6u9oDspvYRg_7qchrono8calendar13calendar_impl5tests34test_num_bizdays_unbounded_partial6case_1s_17d_3_ymd_2021_1_1_
FNDA:1,_RNvNtNtNtNtNtCs6u9oDspvYRg_7qchrono8calendar13calendar_impl5tests34test_num_bizdays_unbounded_partial6case_1s_18d_4_ymd_2021_1_10_
FNDA:1,_RNvNtNtNtNtNtCs6u9oDspvYRg_7qchrono8calendar13calendar_impl5tests34test_num_bizdays_unbounded_partial6case_1s_18d_5_ymd_2021_1_13_
FNDA:1,_RNvNtNtNtNtNtCs6u9oDspvYRg_7qchrono8calendar13calendar_impl5tests34test_num_bizdays_unbounded_partial6case_1s_18d_6_ymd_2021_1_20_
FNDA:1,_RNvNtNtNtNtNtCs6u9oDspvYRg_7qchrono8calendar13calendar_impl5tests34test_num_bizdays_unbounded_partial6case_1s_17d_7_ymd_2025_1_1_
FNDA:1,_RNvNtNtNtNtNtCs6u9oDspvYRg_7qchrono8calendar13calendar_impl5tests34test_num_bizdays_unbounded_partial6case_1s_18d_8_NaiveDate__MAX
FNDA:1,_RNvNtNtNtNtNtCs6u9oDspvYRg_7qchrono8calendar13calendar_impl5tests34test_num_bizdays_unbounded_partial6case_3s_18d_1_NaiveDate__MIN
FNDA:1,_RNvNtNtNtNtNtCs6u9oDspvYRg_7qchrono8calendar13calendar_impl5tests34test_num_bizdays_unbounded_partial6case_3s_17d_2_ymd_1999_1_1_
FNDA:1,_RNvNtNtNtNtNtCs6u9oDspvYRg_7qchrono8calendar13calendar_impl5tests34test_num_bizdays_unbounded_partial6case_3s_17d_3_ymd_2021_1_1_
FNDA:1,_RNvNtNtNtNtNtCs6u9oDspvYRg_7qchrono8calendar13calendar_impl5tests34test_num_bizdays_unbounded_partial6case_3s_18d_4_ymd_2021_1_10_
FNDA:1,_RNvNtNtNtNtNtCs6u9oDspvYRg_7qchrono8calendar13calendar_impl5tests34test_num_bizdays_unbounded_partial6case_3s_18d_5_ymd_2021_1_13_
FNDA:1,_RNvNtNtNtNtNtCs6u9oDspvYRg_7qchrono8calendar13calendar_impl5tests34test_num_bizdays_unbounded_partial6case_3s_18d_6_ymd_2021_1_20_
FNDA:1,_RNvNtNtNtNtNtCs6u9oDspvYRg_7qchrono8calendar13calendar_impl5tests34test_num_bizdays_unbounded_partial6case_3s_17d_7_ymd_2025_1_1_
FNDA:1,_RNvNtNtNtNtNtCs6u9oDspvYRg_7qchrono8calendar13calendar_impl5tests34test_num_bizdays_unbounded_partial6case_3s_18d_8_NaiveDate__MAX
FNDA:1,_RNvNtNtNtNtNtNtCs6u9oDspvYRg_7qchrono8calendar13calendar_impl5tests16test_num_bizdays6case_319stt_3_ymd_2021_1_1_s_20end_1_NaiveDate__MIN
FNDA:1,_RNvNtNtNtNtNtNtCs6u9oDspvYRg_7qchrono8calendar13calendar_impl5tests16test_num_bizdays6case_319stt_3_ymd_2021_1_1_s_19end_2_ymd_1999_1_1_
FNDA:1,_RNvNtNtNtNtNtNtCs6u9oDspvYRg_7qchrono8calendar13calendar_impl5tests16test_num_bizdays6case_319stt_3_ymd_2021_1_1_s_19end_3_ymd_2021_1_1_
FNDA:1,_RNvNtNtNtNtNtNtCs6u9oDspvYRg_7qchrono8calendar13calendar_impl5tests16test_num_bizdays6case_319stt_3_ymd_2021_1_1_s_20end_4_ymd_2021_1_10_
FNDA:1,_RNvNtNtNtNtNtNtCs6u9oDspvYRg_7qchrono8calendar13calendar_impl5tests16test_num_bizdays6case_319stt_3_ymd_2021_1_1_s_20end_5_ymd_2021_1_13_
FNDA:1,_RNvNtNtNtNtNtNtCs6u9oDspvYRg_7qchrono8calendar13calendar_impl5tests16test_num_bizdays6case_319stt_3_ymd_2021_1_1_s_20end_6_ymd_2021_1_20_
FNDA:1,_RNvNtNtNtNtNtNtCs6u9oDspvYRg_7qchrono8calendar13calendar_impl5tests16test_num_bizdays6case_319stt_3_ymd_2021_1_1_s_19end_7_ymd_2025_1_1_
FNDA:1,_RNvNtNtNtNtNtNtCs6u9oDspvYRg_7qchrono8calendar13calendar_impl5tests16test_num_bizdays6case_319stt_3_ymd_2021_1_1_s_20end_8_NaiveDate__MAX
FNDA:1,_RNvNtNtNtNtNtNtCs6u9oDspvYRg_7qchrono8calendar13calendar_impl5tests16test_num_bizdays6case_320stt_4_ymd_2021_1_10_s_20end_1_NaiveDate__MIN
FNDA:1,_RNvNtNtNtNtNtNtCs6u9oDspvYRg_7qchrono8calendar13calendar_impl5tests16test_num_bizdays6case_320stt_4_ymd_2021_1_10_s_19end_2_ymd_1999_1_1_
FNDA:1,_RNvNtNtNtNtNtNtCs6u9oDspvYRg_7qchrono8calendar13calendar_impl5tests16test_num_bizdays6case_320stt_4_ymd_2021_1_10_s_19end_3_ymd_2021_1_1_
FNDA:1,_RNvNtNtNtNtNtNtCs6u9oDspvYRg_7qchrono8calendar13calendar_impl5tests16test_num_bizdays6case_320stt_4_ymd_2021_1_10_s_20end_4_ymd_2021_1_10_
FNDA:1,_RNvNtNtNtNtNtNtCs6u9oDspvYRg_7qchrono8calendar13calendar_impl5tests16test_num_bizdays6case_320stt_4_ymd_2021_1_10_s_20end_5_ymd_2021_1_13_
FNDA:1,_RNvNtNtNtNtNtNtCs6u9oDspvYRg_7qchrono8calendar13calendar_impl5tests16test_num_bizdays6case_320stt_4_ymd_2021_1_10_s_20end_6_ymd_2021_1_20_
FNDA:1,_RNvNtNtNtNtNtNtCs6u9oDspvYRg_7qchrono8calendar13calendar_impl5tests16test_num_bizdays6case_320stt_4_ymd_2021_1_10_s_19end_7_ymd_2025_1_1_
FNDA:1,_RNvNtNtNtNtNtNtCs6u9oDspvYRg_7qchrono8calendar13calendar_impl5tests16test_num_bizdays6case_320stt_4_ymd_2021_1_10_s_20end_8_NaiveDate__MAX
FNDA:1,_RNvNtNtNtNtNtNtCs6u9oDspvYRg_7qchrono8calendar13calendar_impl5tests16test_num_bizdays6case_320stt_6_ymd_2021_1_20_s_20end_1_NaiveDate__MIN
FNDA:1,_RNvNtNtNtNtNtNtCs6u9oDspvYRg_7qchrono8calendar13calendar_impl5tests16test_num_bizdays6case_320stt_6_ymd_2021_1_20_s_19end_2_ymd_1999_1_1_
FNDA:1,_RNvNtNtNtNtNtNtCs6u9oDspvYRg_7qchrono8calendar13calendar_impl5tests16test_num_bizdays6case_320stt_6_ymd_2021_1_20_s_19end_3_ymd_2021_1_1_
FNDA:1,_RNvNtNtNtNtNtNtCs6u9oDspvYRg_7qchrono8calendar13calendar_impl5tests16test_num_bizdays6case_320stt_6_ymd_2021_1_20_s_20end_4_ymd_2021_1_10_
FNDA:1,_RNvNtNtNtNtNtNtCs6u9oDspvYRg_7qchrono8calendar13calendar_impl5tests16test_num_bizdays6case_320stt_6_ymd_2021_1_20_s_20end_5_ymd_2021_1_13_
FNDA:1,_RNvNtNtNtNtNtNtCs6u9oDspvYRg_7qchrono8calendar13calendar_impl5tests16test_num_bizdays6case_320stt_6_ymd_2021_1_20_s_20end_6_ymd_2021_1_20_
FNDA:1,_RNvNtNtNtNtNtNtCs6u9oDspvYRg_7qchrono8calendar13calendar_impl5tests16test_num_bizdays6case_320stt_6_ymd_2021_1_20_s_19end_7_ymd_2025_1_1_
FNDA:1,_RNvNtNtNtNtNtNtCs6u9oDspvYRg_7qchrono8calendar13calendar_impl5tests16test_num_bizdays6case_320stt_6_ymd_2021_1_20_s_20end_8_NaiveDate__MAX
FNDA:1,_RNvNtNtNtNtNtNtCs6u9oDspvYRg_7qchrono8calendar13calendar_impl5tests16test_num_bizdays6case_320stt_8_NaiveDate__MAXs_20end_1_NaiveDate__MIN
FNDA:1,_RNvNtNtNtNtNtNtCs6u9oDspvYRg_7qchrono8calendar13calendar_impl5tests16test_num_bizdays6case_320stt_8_NaiveDate__MAXs_19end_2_ymd_1999_1_1_
FNDA:1,_RNvNtNtNtNtNtNtCs6u9oDspvYRg_7qchrono8calendar13calendar_impl5tests16test_num_bizdays6case_320stt_8_NaiveDate__MAXs_19end_3_ymd_2021_1_1_
FNDA:1,_RNvNtNtNtNtNtNtCs6u9oDspvYRg_7qchrono8calendar13calendar_impl5tests16test_num_bizdays6case_320stt_8_NaiveDate__MAXs_20end_4_ymd_2021_1_10_
FNDA:1,_RNvNtNtNtNtNtNtCs6u9oDspvYRg_7qchrono8calendar13calendar_impl5tests16test_num_bizdays6case_320stt_8_NaiveDate__MAXs_20end_5_ymd_2021_1_13_
FNDA:1,_RNvNtNtNtNtNtNtCs6u9oDspvYRg_7qchrono8calendar13calendar_impl5tests16test_num_bizdays6case_320stt_8_NaiveDate__MAXs_20end_6_ymd_2021_1_20_
FNDA:1,_RNvNtNtNtNtNtNtCs6u9oDspvYRg_7qchrono8calendar13calendar_impl5tests16test_num_bizdays6case_320stt_8_NaiveDate__MAXs_19end_7_ymd_2025_1_1_
FNDA:1,_RNvNtNtNtNtNtNtCs6u9oDspvYRg_7qchrono8calendar13calendar_impl5tests16test_num_bizdays6case_320stt_8_NaiveDate__MAXs_20end_8_NaiveDate__MAX
FNDA:1215,_RNvNtNtNtCs6u9oDspvYRg_7qchrono8calendar13calendar_impl5tests3ymd
FNDA:1,_RNvNtNtNtCs6u9oDspvYRg_7qchrono8calendar13calendar_impl5testss_11test_new_ok
FNDA:1,_RNvNtNtNtCs6u9oDspvYRg_7qchrono8calendar13calendar_impl5testss_15test_new_ok_dup
FNDA:1,_RNvNtNtNtCs6u9oDspvYRg_7qchrono8calendar13calendar_impl5testss_20test_new_ok_unsorted
FNDA:1,_RNvNtNtNtCs6u9oDspvYRg_7qchrono8calendar13calendar_impl5testss_29test_new_ng_weekend_extra_hol
FNDA:1,_RNvNtNtNtCs6u9oDspvYRg_7qchrono8calendar13calendar_impl5testss_64test_new_ok_weekend_extra_hol_with_treat_weekend_as_business_day
FNDA:1,_RNvNtNtNtCs6u9oDspvYRg_7qchrono8calendar13calendar_impl5testss_28test_new_ng_weekday_extra_bd
FNDA:1,_RNvNtNtNtCs6u9oDspvYRg_7qchrono8calendar13calendar_impl5testss_27test_new_ng_unsorted_period
FNDA:1,_RNvNtNtNtCs6u9oDspvYRg_7qchrono8calendar13calendar_impl5testss_55test_new_ng_extra_bd_with_treat_weekend_as_business_day
FNDA:1,_RNvNtNtNtCs6u9oDspvYRg_7qchrono8calendar13calendar_impl5testss_14test_serialize
FNDA:1,_RNvNtNtNtCs6u9oDspvYRg_7qchrono8calendar13calendar_impl5testss_16test_deserialize
FNDA:1,_RNvNtNtNtCs6u9oDspvYRg_7qchrono8calendar13calendar_impl5testss_46test_deserialize_treat_weekend_as_business_day
FNDA:1,_RNvNtNtNtCs6u9oDspvYRg_7qchrono8calendar13calendar_impl5testss_24test_of_any_closed_empty
FNDA:1,_RNvNtNtNtCs6u9oDspvYRg_7qchrono8calendar13calendar_impl5testss_25test_of_any_closed_single
FNDA:1,_RNvNtNtNtCs6u9oDspvYRg_7qchrono8calendar13calendar_impl5testss_55test_of_any_closed_single_treat_weekend_as_business_day
FNDA:1,_RNvNtNtNtCs6u9oDspvYRg_7qchrono8calendar13calendar_impl5testss_27test_of_any_closed_multiple
FNDA:1,_RNvNtNtNtCs6u9oDspvYRg_7qchrono8calendar13calendar_impl5testss_51test_of_any_closed_multiple_treat_weekend_as_bizday
FNDA:1,_RNvNtNtNtCs6u9oDspvYRg_7qchrono8calendar13calendar_impl5testss_55test_of_any_closed_multiple_treat_weekend_as_bizday_all
FNDA:1,_RNvNtNtNtCs6u9oDspvYRg_7qchrono8calendar13calendar_impl5testss_24test_of_all_closed_empty
FNDA:1,_RNvNtNtNtCs6u9oDspvYRg_7qchrono8calendar13calendar_impl5testss_25test_of_all_closed_single
FNDA:1,_RNvNtNtNtCs6u9oDspvYRg_7qchrono8calendar13calendar_impl5testss_55test_of_all_closed_single_treat_weekend_as_business_day
FNDA:1,_RNvNtNtNtCs6u9oDspvYRg_7qchrono8calendar13calendar_impl5testss_27test_of_all_closed_multiple
FNDA:1,_RNvNtNtNtCs6u9oDspvYRg_7qchrono8calendar13calendar_impl5testss_51test_of_all_closed_multiple_treat_weekend_as_bizday
FNDA:1,_RNvNtNtNtCs6u9oDspvYRg_7qchrono8calendar13calendar_impl5testss_17test_valid_period
FNDA:1,_RNvNtNtNtCs6u9oDspvYRg_7qchrono8calendar13calendar_impl5testss_13test_validate
FNDA:1,_RNvNtNtNtCs6u9oDspvYRg_7qchrono8calendar13calendar_impl5testss_15test_is_holiday
FNDA:1,_RNvNtNtNtCs6u9oDspvYRg_7qchrono8calendar13calendar_impl5testss_45test_is_holiday_treat_weekend_as_business_day
FNDA:1,_RNvNtNtNtCs6u9oDspvYRg_7qchrono8calendar13calendar_impl5testss_20test_is_business_day
FNDA:1,_RNvNtNtNtCs6u9oDspvYRg_7qchrono8calendar13calendar_impl5testss_50test_is_business_day_treat_weekend_as_business_day
FNDA:1,_RNvNtNtNtCs6u9oDspvYRg_7qchrono8calendar13calendar_impl5testss_17test_iter_bizdays
FNDA:1,_RNvNtNtNtCs6u9oDspvYRg_7qchrono8calendar13calendar_impl5testss_21test_iter_bizdays_rev
FNDA:1,_RNvNtNtNtCs6u9oDspvYRg_7qchrono8calendar13calendar_impl5testss_18test_iter_holidays
FNDA:1,_RNvNtNtNtCs6u9oDspvYRg_7qchrono8calendar13calendar_impl5testss_22test_iter_holidays_rev
FNDA:1,_RNvNtNtNtCs6u9oDspvYRg_7qchrono8calendar13calendar_impl5testss_10test_bitor
FNDA:1,_RNvNtNtNtCs6u9oDspvYRg_7qchrono8calendar13calendar_impl5testss_11test_bitand
FNDA:256,_RNvNtNtNtCs6u9oDspvYRg_7qchrono8calendar13calendar_impl5tests16test_num_bizdays
FNDA:1014,_RNCNvNtNtNtCs6u9oDspvYRg_7qchrono8calendar13calendar_impl5tests16test_num_bizdays0B9_
FNDA:900,_RNCNvNtNtNtCs6u9oDspvYRg_7qchrono8calendar13calendar_impl5tests16test_num_bizdayss_0B9_
FNDA:146,_RNCNvNtNtNtCs6u9oDspvYRg_7qchrono8calendar13calendar_impl5tests16test_num_bizdayss0_0B9_
FNDA:18,_RNCNCNvNtNtNtCs6u9oDspvYRg_7qchrono8calendar13calendar_impl5tests16test_num_bizdayss0_00Bb_
FNDA:1017,_RNCNvNtNtNtCs6u9oDspvYRg_7qchrono8calendar13calendar_impl5tests16test_num_bizdayss1_0B9_
FNDA:930,_RNCNvNtNtNtCs6u9oDspvYRg_7qchrono8calendar13calendar_impl5tests16test_num_bizdayss2_0B9_
FNDA:115,_RNCNvNtNtNtCs6u9oDspvYRg_7qchrono8calendar13calendar_impl5tests16test_num_bizdayss3_0B9_
FNDA:3,_RNCNCNvNtNtNtCs6u9oDspvYRg_7qchrono8calendar13calendar_impl5tests16test_num_bizdayss3_00Bb_
FNDA:1,_RNvNtNtNtNtNtNtCs6u9oDspvYRg_7qchrono8calendar13calendar_impl5tests16test_num_bizdays6case_320stt_5_ymd_2021_1_13_s_20end_1_NaiveDate__MIN
FNDA:1,_RNvNtNtNtNtNtNtCs6u9oDspvYRg_7qchrono8calendar13calendar_impl5tests16test_num_bizdays6case_320stt_5_ymd_2021_1_13_s_19end_2_ymd_1999_1_1_
FNDA:1,_RNvNtNtNtNtNtNtCs6u9oDspvYRg_7qchrono8calendar13calendar_impl5tests16test_num_bizdays6case_320stt_5_ymd_2021_1_13_s_19end_3_ymd_2021_1_1_
FNDA:1,_RNvNtNtNtNtNtNtCs6u9oDspvYRg_7qchrono8calendar13calendar_impl5tests16test_num_bizdays6case_320stt_5_ymd_2021_1_13_s_20end_4_ymd_2021_1_10_
FNDA:1,_RNvNtNtNtNtNtNtCs6u9oDspvYRg_7qchrono8calendar13calendar_impl5tests16test_num_bizdays6case_320stt_5_ymd_2021_1_13_s_20end_5_ymd_2021_1_13_
FNDA:1,_RNvNtNtNtNtNtNtCs6u9oDspvYRg_7qchrono8calendar13calendar_impl5tests16test_num_bizdays6case_320stt_5_ymd_2021_1_13_s_20end_6_ymd_2021_1_20_
FNDA:1,_RNvNtNtNtNtNtNtCs6u9oDspvYRg_7qchrono8calendar13calendar_impl5tests16test_num_bizdays6case_320stt_5_ymd_2021_1_13_s_19end_7_ymd_2025_1_1_
FNDA:1,_RNvNtNtNtNtNtNtCs6u9oDspvYRg_7qchrono8calendar13calendar_impl5tests16test_num_bizdays6case_320stt_5_ymd_2021_1_13_s_20end_8_NaiveDate__MAX
FNDA:32,_RNvNtNtNtCs6u9oDspvYRg_7qchrono8calendar13calendar_impl5tests34test_num_bizdays_unbounded_partial
FNDA:1,_RNvNtNtNtNtNtCs6u9oDspvYRg_7qchrono8calendar13calendar_impl5tests34test_num_bizdays_unbounded_partial6case_4s_18d_1_NaiveDate__MIN
FNDA:1,_RNvNtNtNtNtNtCs6u9oDspvYRg_7qchrono8calendar13calendar_impl5tests34test_num_bizdays_unbounded_partial6case_4s_17d_2_ymd_1999_1_1_
FNDA:1,_RNvNtNtNtNtNtCs6u9oDspvYRg_7qchrono8calendar13calendar_impl5tests34test_num_bizdays_unbounded_partial6case_4s_17d_3_ymd_2021_1_1_
FNDA:1,_RNvNtNtNtNtNtCs6u9oDspvYRg_7qchrono8calendar13calendar_impl5tests34test_num_bizdays_unbounded_partial6case_4s_18d_4_ymd_2021_1_10_
FNDA:1,_RNvNtNtNtNtNtCs6u9oDspvYRg_7qchrono8calendar13calendar_impl5tests34test_num_bizdays_unbounded_partial6case_4s_18d_5_ymd_2021_1_13_
FNDA:1,_RNvNtNtNtNtNtCs6u9oDspvYRg_7qchrono8calendar13calendar_impl5tests34test_num_bizdays_unbounded_partial6case_4s_18d_6_ymd_2021_1_20_
FNDA:1,_RNvNtNtNtNtNtCs6u9oDspvYRg_7qchrono8calendar13calendar_impl5tests34test_num_bizdays_unbounded_partial6case_4s_17d_7_ymd_2025_1_1_
FNDA:1,_RNvNtNtNtNtNtCs6u9oDspvYRg_7qchrono8calendar13calendar_impl5tests34test_num_bizdays_unbounded_partial6case_4s_18d_8_NaiveDate__MAX
FNDA:4,_RNvNtNtNtCs6u9oDspvYRg_7qchrono8calendar13calendar_impl5tests26test_num_bizdays_unbounded
FNDA:1,_RNvNtNtNtNtNtNtCs6u9oDspvYRg_7qchrono8calendar13calendar_impl5tests16test_num_bizdays6case_120stt_4_ymd_2021_1_10_s_20end_1_NaiveDate__MIN
FNDA:1,_RNvNtNtNtNtNtNtCs6u9oDspvYRg_7qchrono8calendar13calendar_impl5tests16test_num_bizdays6case_120stt_4_ymd_2021_1_10_s_19end_2_ymd_1999_1_1_
FNDA:1,_RNvNtNtNtNtNtNtCs6u9oDspvYRg_7qchrono8calendar13calendar_impl5tests16test_num_bizdays6case_120stt_4_ymd_2021_1_10_s_19end_3_ymd_2021_1_1_
FNDA:1,_RNvNtNtNtNtNtNtCs6u9oDspvYRg_7qchrono8calendar13calendar_impl5tests16test_num_bizdays6case_120stt_4_ymd_2021_1_10_s_20end_4_ymd_2021_1_10_
FNDA:1,_RNvNtNtNtNtNtNtCs6u9oDspvYRg_7qchrono8calendar13calendar_impl5tests16test_num_bizdays6case_120stt_4_ymd_2021_1_10_s_20end_5_ymd_2021_1_13_
FNDA:1,_RNvNtNtNtNtNtNtCs6u9oDspvYRg_7qchrono8calendar13calendar_impl5tests16test_num_bizdays6case_120stt_4_ymd_2021_1_10_s_20end_6_ymd_2021_1_20_
FNDA:1,_RNvNtNtNtNtNtNtCs6u9oDspvYRg_7qchrono8calendar13calendar_impl5tests16test_num_bizdays6case_120stt_4_ymd_2021_1_10_s_19end_7_ymd_2025_1_1_
FNDA:1,_RNvNtNtNtNtNtNtCs6u9oDspvYRg_7qchrono8calendar13calendar_impl5tests16test_num_bizdays6case_120stt_4_ymd_2021_1_10_s_20end_8_NaiveDate__MAX
FNDA:1,_RNvNtNtNtNtNtNtCs6u9oDspvYRg_7qchrono8calendar13calendar_impl5tests16test_num_bizdays6case_120stt_8_NaiveDate__MAXs_20end_1_NaiveDate__MIN
FNDA:1,_RNvNtNtNtNtNtNtCs6u9oDspvYRg_7qchrono8calendar13calendar_impl5tests16test_num_bizdays6case_120stt_8_NaiveDate__MAXs_19end_2_ymd_1999_1_1_
FNDA:1,_RNvNtNtNtNtNtNtCs6u9oDspvYRg_7qchrono8calendar13calendar_impl5tests16test_num_bizdays6case_120stt_8_NaiveDate__MAXs_19end_3_ymd_2021_1_1_
FNDA:1,_RNvNtNtNtNtNtNtCs6u9oDspvYRg_7qchrono8calendar13calendar_impl5tests16test_num_bizdays6case_120stt_8_NaiveDate__MAXs_20end_4_ymd_2021_1_10_
FNDA:1,_RNvNtNtNtNtNtNtCs6u9oDspvYRg_7qchrono8calendar13calendar_impl5tests16test_num_bizdays6case_120stt_8_NaiveDate__MAXs_20end_5_ymd_2021_1_13_
FNDA:1,_RNvNtNtNtNtNtNtCs6u9oDspvYRg_7qchrono8calendar13calendar_impl5tests16test_num_bizdays6case_120stt_8_NaiveDate__MAXs_20end_6_ymd_2021_1_20_
FNDA:1,_RNvNtNtNtNtNtNtCs6u9oDspvYRg_7qchrono8calendar13calendar_impl5tests16test_num_bizdays6case_120stt_8_NaiveDate__MAXs_19end_7_ymd_2025_1_1_
FNDA:1,_RNvNtNtNtNtNtNtCs6u9oDspvYRg_7qchrono8calendar13calendar_impl5tests16test_num_bizdays6case_120stt_8_NaiveDate__MAXs_20end_8_NaiveDate__MAX
FNDA:1,_RNvNtNtNtNtNtNtCs6u9oDspvYRg_7qchrono8calendar13calendar_impl5tests16test_num_bizdays6case_219stt_7_ymd_2025_1_1_s_20end_1_NaiveDate__MIN
FNDA:1,_RNvNtNtNtNtNtNtCs6u9oDspvYRg_7qchrono8calendar13calendar_impl5tests16test_num_bizdays6case_219stt_7_ymd_2025_1_1_s_19end_2_ymd_1999_1_1_
FNDA:1,_RNvNtNtNtNtNtNtCs6u9oDspvYRg_7qchrono8calendar13calendar_impl5tests16test_num_bizdays6case_219stt_7_ymd_2025_1_1_s_19end_3_ymd_2021_1_1_
FNDA:1,_RNvNtNtNtNtNtNtCs6u9oDspvYRg_7qchrono8calendar13calendar_impl5tests16test_num_bizdays6case_219stt_7_ymd_2025_1_1_s_20end_4_ymd_2021_1_10_
FNDA:1,_RNvNtNtNtNtNtNtCs6u9oDspvYRg_7qchrono8calendar13calendar_impl5tests16test_num_bizdays6case_219stt_7_ymd_2025_1_1_s_20end_5_ymd_2021_1_13_
FNDA:1,_RNvNtNtNtNtNtNtCs6u9oDspvYRg_7qchrono8calendar13calendar_impl5tests16test_num_bizdays6case_219stt_7_ymd_2025_1_1_s_20end_6_ymd_2021_1_20_
FNDA:1,_RNvNtNtNtNtNtNtCs6u9oDspvYRg_7qchrono8calendar13calendar_impl5tests16test_num_bizdays6case_219stt_7_ymd_2025_1_1_s_19end_7_ymd_2025_1_1_
FNDA:1,_RNvNtNtNtNtNtNtCs6u9oDspvYRg_7qchrono8calendar13calendar_impl5tests16test_num_bizdays6case_219stt_7_ymd_2025_1_1_s_20end_8_NaiveDate__MAX
FNDA:1,_RNvNtNtNtNtNtNtCs6u9oDspvYRg_7qchrono8calendar13calendar_impl5tests16test_num_bizdays6case_420stt_5_ymd_2021_1_13_s_20end_1_NaiveDate__MIN
FNDA:1,_RNvNtNtNtNtNtNtCs6u9oDspvYRg_7qchrono8calendar13calendar_impl5tests16test_num_bizdays6case_420stt_5_ymd_2021_1_13_s_19end_2_ymd_1999_1_1_
FNDA:1,_RNvNtNtNtNtNtNtCs6u9oDspvYRg_7qchrono8calendar13calendar_impl5tests16test_num_bizdays6case_420stt_5_ymd_2021_1_13_s_19end_3_ymd_2021_1_1_
FNDA:1,_RNvNtNtNtNtNtNtCs6u9oDspvYRg_7qchrono8calendar13calendar_impl5tests16test_num_bizdays6case_420stt_5_ymd_2021_1_13_s_20end_4_ymd_2021_1_10_
FNDA:1,_RNvNtNtNtNtNtNtCs6u9oDspvYRg_7qchrono8calendar13calendar_impl5tests16test_num_bizdays6case_420stt_5_ymd_2021_1_13_s_20end_5_ymd_2021_1_13_
FNDA:1,_RNvNtNtNtNtNtNtCs6u9oDspvYRg_7qchrono8calendar13calendar_impl5tests16test_num_bizdays6case_420stt_5_ymd_2021_1_13_s_20end_6_ymd_2021_1_20_
FNDA:1,_RNvNtNtNtNtNtNtCs6u9oDspvYRg_7qchrono8calendar13calendar_impl5tests16test_num_bizdays6case_420stt_5_ymd_2021_1_13_s_19end_7_ymd_2025_1_1_
FNDA:1,_RNvNtNtNtNtNtNtCs6u9oDspvYRg_7qchrono8calendar13calendar_impl5tests16test_num_bizdays6case_420stt_5_ymd_2021_1_13_s_20end_8_NaiveDate__MAX
FNDA:1,_RNvNtNtNtNtNtNtCs6u9oDspvYRg_7qchrono8calendar13calendar_impl5tests16test_num_bizdays6case_120stt_1_NaiveDate__MINs_20end_1_NaiveDate__MIN
FNDA:1,_RNvNtNtNtNtNtNtCs6u9oDspvYRg_7qchrono8calendar13calendar_impl5tests16test_num_bizdays6case_120stt_1_NaiveDate__MINs_19end_2_ymd_1999_1_1_
FNDA:1,_RNvNtNtNtNtNtNtCs6u9oDspvYRg_7qchrono8calendar13calendar_impl5tests16test_num_bizdays6case_120stt_1_NaiveDate__MINs_19end_3_ymd_2021_1_1_
FNDA:1,_RNvNtNtNtNtNtNtCs6u9oDspvYRg_7qchrono8calendar13calendar_impl5tests16test_num_bizdays6case_120stt_1_NaiveDate__MINs_20end_4_ymd_2021_1_10_
FNDA:1,_RNvNtNtNtNtNtNtCs6u9oDspvYRg_7qchrono8calendar13calendar_impl5tests16test_num_bizdays6case_120stt_1_NaiveDate__MINs_20end_5_ymd_2021_1_13_
FNDA:1,_RNvNtNtNtNtNtNtCs6u9oDspvYRg_7qchrono8calendar13calendar_impl5tests16test_num_bizdays6case_120stt_1_NaiveDate__MINs_20end_6_ymd_2021_1_20_
FNDA:1,_RNvNtNtNtNtNtNtCs6u9oDspvYRg_7qchrono8calendar13calendar_impl5tests16test_num_bizdays6case_120stt_1_NaiveDate__MINs_19end_7_ymd_2025_1_1_
FNDA:1,_RNvNtNtNtNtNtNtCs6u9oDspvYRg_7qchrono8calendar13calendar_impl5tests16test_num_bizdays6case_120stt_1_NaiveDate__MINs_20end_8_NaiveDate__MAX
FNDA:1,_RNvNtNtNtNtNtNtCs6u9oDspvYRg_7qchrono8calendar13calendar_impl5tests16test_num_bizdays6case_119stt_3_ymd_2021_1_1_s_20end_1_NaiveDate__MIN
FNDA:1,_RNvNtNtNtNtNtNtCs6u9oDspvYRg_7qchrono8calendar13calendar_impl5tests16test_num_bizdays6case_119stt_3_ymd_2021_1_1_s_19end_2_ymd_1999_1_1_
FNDA:1,_RNvNtNtNtNtNtNtCs6u9oDspvYRg_7qchrono8calendar13calendar_impl5tests16test_num_bizdays6case_119stt_3_ymd_2021_1_1_s_19end_3_ymd_2021_1_1_
FNDA:1,_RNvNtNtNtNtNtNtCs6u9oDspvYRg_7qchrono8calendar13calendar_impl5tests16test_num_bizdays6case_119stt_3_ymd_2021_1_1_s_20end_4_ymd_2021_1_10_
FNDA:1,_RNvNtNtNtNtNtNtCs6u9oDspvYRg_7qchrono8calendar13calendar_impl5tests16test_num_bizdays6case_119stt_3_ymd_2021_1_1_s_20end_5_ymd_2021_1_13_
FNDA:1,_RNvNtNtNtNtNtNtCs6u9oDspvYRg_7qchrono8calendar13calendar_impl5tests16test_num_bizdays6case_119stt_3_ymd_2021_1_1_s_20end_6_ymd_2021_1_20_
FNDA:1,_RNvNtNtNtNtNtNtCs6u9oDspvYRg_7qchrono8calendar13calendar_impl5tests16test_num_bizdays6case_119stt_3_ymd_2021_1_1_s_19end_7_ymd_2025_1_1_
FNDA:1,_RNvNtNtNtNtNtNtCs6u9oDspvYRg_7qchrono8calendar13calendar_impl5tests16test_num_bizdays6case_119stt_3_ymd_2021_1_1_s_20end_8_NaiveDate__MAX
FNDA:1,_RNvNtNtNtNtNtNtCs6u9oDspvYRg_7qchrono8calendar13calendar_impl5tests16test_num_bizdays6case_420stt_1_NaiveDate__MINs_20end_1_NaiveDate__MIN
FNDA:1,_RNvNtNtNtNtNtNtCs6u9oDspvYRg_7qchrono8calendar13calendar_impl5tests16test_num_bizdays6case_420stt_1_NaiveDate__MINs_19end_2_ymd_1999_1_1_
FNDA:1,_RNvNtNtNtNtNtNtCs6u9oDspvYRg_7qchrono8calendar13calendar_impl5tests16test_num_bizdays6case_420stt_1_NaiveDate__MINs_19end_3_ymd_2021_1_1_
FNDA:1,_RNvNtNtNtNtNtNtCs6u9oDspvYRg_7qchrono8calendar13calendar_impl5tests16test_num_bizdays6case_420stt_1_NaiveDate__MINs_20end_4_ymd_2021_1_10_
FNDA:1,_RNvNtNtNtNtNtNtCs6u9oDspvYRg_7qchrono8calendar13calendar_impl5tests16test_num_bizdays6case_420stt_1_NaiveDate__MINs_20end_5_ymd_2021_1_13_
FNDA:1,_RNvNtNtNtNtNtNtCs6u9oDspvYRg_7qchrono8calendar13calendar_impl5tests16test_num_bizdays6case_420stt_1_NaiveDate__MINs_20end_6_ymd_2021_1_20_
FNDA:1,_RNvNtNtNtNtNtNtCs6u9oDspvYRg_7qchrono8calendar13calendar_impl5tests16test_num_bizdays6case_420stt_1_NaiveDate__MINs_19end_7_ymd_2025_1_1_
FNDA:1,_RNvNtNtNtNtNtNtCs6u9oDspvYRg_7qchrono8calendar13calendar_impl5tests16test_num_bizdays6case_420stt_1_NaiveDate__MINs_20end_8_NaiveDate__MAX
FNDA:1,_RNvNtNtNtNtNtCs6u9oDspvYRg_7qchrono8calendar13calendar_impl5tests34test_num_bizdays_unbounded_partial6case_2s_18d_1_NaiveDate__MIN
FNDA:1,_RNvNtNtNtNtNtCs6u9oDspvYRg_7qchrono8calendar13calendar_impl5tests34test_num_bizdays_unbounded_partial6case_2s_17d_2_ymd_1999_1_1_
FNDA:1,_RNvNtNtNtNtNtCs6u9oDspvYRg_7qchrono8calendar13calendar_impl5tests34test_num_bizdays_unbounded_partial6case_2s_17d_3_ymd_2021_1_1_
FNDA:1,_RNvNtNtNtNtNtCs6u9oDspvYRg_7qchrono8calendar13calendar_impl5tests34test_num_bizdays_unbounded_partial6case_2s_18d_4_ymd_2021_1_10_
FNDA:1,_RNvNtNtNtNtNtCs6u9oDspvYRg_7qchrono8calendar13calendar_impl5tests34test_num_bizdays_unbounded_partial6case_2s_18d_5_ymd_2021_1_13_
FNDA:1,_RNvNtNtNtNtNtCs6u9oDspvYRg_7qchrono8calendar13calendar_impl5tests34test_num_bizdays_unbounded_partial6case_2s_18d_6_ymd_2021_1_20_
FNDA:1,_RNvNtNtNtNtNtCs6u9oDspvYRg_7qchrono8calendar13calendar_impl5tests34test_num_bizdays_unbounded_partial6case_2s_17d_7_ymd_2025_1_1_
FNDA:1,_RNvNtNtNtNtNtCs6u9oDspvYRg_7qchrono8calendar13calendar_impl5tests34test_num_bizdays_unbounded_partial6case_2s_18d_8_NaiveDate__MAX
FNDA:1,_RNvNtNtNtNtNtNtCs6u9oDspvYRg_7qchrono8calendar13calendar_impl5tests16test_num_bizdays6case_120stt_6_ymd_2021_1_20_s_20end_1_NaiveDate__MIN
FNDA:1,_RNvNtNtNtNtNtNtCs6u9oDspvYRg_7qchrono8calendar13calendar_impl5tests16test_num_bizdays6case_120stt_6_ymd_2021_1_20_s_19end_2_ymd_1999_1_1_
FNDA:1,_RNvNtNtNtNtNtNtCs6u9oDspvYRg_7qchrono8calendar13calendar_impl5tests16test_num_bizdays6case_120stt_6_ymd_2021_1_20_s_19end_3_ymd_2021_1_1_
FNDA:1,_RNvNtNtNtNtNtNtCs6u9oDspvYRg_7qchrono8calendar13calendar_impl5tests16test_num_bizdays6case_120stt_6_ymd_2021_1_20_s_20end_4_ymd_2021_1_10_
FNDA:1,_RNvNtNtNtNtNtNtCs6u9oDspvYRg_7qchrono8calendar13calendar_impl5tests16test_num_bizdays6case_120stt_6_ymd_2021_1_20_s_20end_5_ymd_2021_1_13_
FNDA:1,_RNvNtNtNtNtNtNtCs6u9oDspvYRg_7qchrono8calendar13calendar_impl5tests16test_num_bizdays6case_120stt_6_ymd_2021_1_20_s_20end_6_ymd_2021_1_20_
FNDA:1,_RNvNtNtNtNtNtNtCs6u9oDspvYRg_7qchrono8calendar13calendar_impl5tests16test_num_bizdays6case_120stt_6_ymd_2021_1_20_s_19end_7_ymd_2025_1_1_
FNDA:1,_RNvNtNtNtNtNtNtCs6u9oDspvYRg_7qchrono8calendar13calendar_impl5tests16test_num_bizdays6case_120stt_6_ymd_2021_1_20_s_20end_8_NaiveDate__MAX
FNDA:1,_RNvNtNtNtNtNtNtCs6u9oDspvYRg_7qchrono8calendar13calendar_impl5tests16test_num_bizdays6case_219stt_2_ymd_1999_1_1_s_20end_1_NaiveDate__MIN
FNDA:1,_RNvNtNtNtNtNtNtCs6u9oDspvYRg_7qchrono8calendar13calendar_impl5tests16test_num_bizdays6case_219stt_2_ymd_1999_1_1_s_19end_2_ymd_1999_1_1_
FNDA:1,_RNvNtNtNtNtNtNtCs6u9oDspvYRg_7qchrono8calendar13calendar_impl5tests16test_num_bizdays6case_219stt_2_ymd_1999_1_1_s_19end_3_ymd_2021_1_1_
FNDA:1,_RNvNtNtNtNtNtNtCs6u9oDspvYRg_7qchrono8calendar13calendar_impl5tests16test_num_bizdays6case_219stt_2_ymd_1999_1_1_s_20end_4_ymd_2021_1_10_
FNDA:1,_RNvNtNtNtNtNtNtCs6u9oDspvYRg_7qchrono8calendar13calendar_impl5tests16test_num_bizdays6case_219stt_2_ymd_1999_1_1_s_20end_5_ymd_2021_1_13_
FNDA:1,_RNvNtNtNtNtNtNtCs6u9oDspvYRg_7qchrono8calendar13calendar_impl5tests16test_num_bizdays6case_219stt_2_ymd_1999_1_1_s_20end_6_ymd_2021_1_20_
FNDA:1,_RNvNtNtNtNtNtNtCs6u9oDspvYRg_7qchrono8calendar13calendar_impl5tests16test_num_bizdays6case_219stt_2_ymd_1999_1_1_s_19end_7_ymd_2025_1_1_
FNDA:1,_RNvNtNtNtNtNtNtCs6u9oDspvYRg_7qchrono8calendar13calendar_impl5tests16test_num_bizdays6case_219stt_2_ymd_1999_1_1_s_20end_8_NaiveDate__MAX
FNDA:1,_RNvNtNtNtNtNtNtCs6u9oDspvYRg_7qchrono8calendar13calendar_impl5tests16test_num_bizdays6case_220stt_4_ymd_2021_1_10_s_20end_1_NaiveDate__MIN
FNDA:1,_RNvNtNtNtNtNtNtCs6u9oDspvYRg_7qchrono8calendar13calendar_impl5tests16test_num_bizdays6case_220stt_4_ymd_2021_1_10_s_19end_2_ymd_1999_1_1_
FNDA:1,_RNvNtNtNtNtNtNtCs6u9oDspvYRg_7qchrono8calendar13calendar_impl5tests16test_num_bizdays6case_220stt_4_ymd_2021_1_10_s_19end_3_ymd_2021_1_1_
FNDA:1,_RNvNtNtNtNtNtNtCs6u9oDspvYRg_7qchrono8calendar13calendar_impl5tests16test_num_bizdays6case_220stt_4_ymd_2021_1_10_s_20end_4_ymd_2021_1_10_
FNDA:1,_RNvNtNtNtNtNtNtCs6u9oDspvYRg_7qchrono8calendar13calendar_impl5tests16test_num_bizdays6case_220stt_4_ymd_2021_1_10_s_20end_5_ymd_2021_1_13_
FNDA:1,_RNvNtNtNtNtNtNtCs6u9oDspvYRg_7qchrono8calendar13calendar_impl5tests16test_num_bizdays6case_220stt_4_ymd_2021_1_10_s_20end_6_ymd_2021_1_20_
FNDA:1,_RNvNtNtNtNtNtNtCs6u9oDspvYRg_7qchrono8calendar13calendar_impl5tests16test_num_bizdays6case_220stt_4_ymd_2021_1_10_s_19end_7_ymd_2025_1_1_
FNDA:1,_RNvNtNtNtNtNtNtCs6u9oDspvYRg_7qchrono8calendar13calendar_impl5tests16test_num_bizdays6case_220stt_4_ymd_2021_1_10_s_20end_8_NaiveDate__MAX
FNDA:1,_RNvNtNtNtNtNtNtCs6u9oDspvYRg_7qchrono8calendar13calendar_impl5tests16test_num_bizdays6case_419stt_2_ymd_1999_1_1_s_20end_1_NaiveDate__MIN
FNDA:1,_RNvNtNtNtNtNtNtCs6u9oDspvYRg_7qchrono8calendar13calendar_impl5tests16test_num_bizdays6case_419stt_2_ymd_1999_1_1_s_19end_2_ymd_1999_1_1_
FNDA:1,_RNvNtNtNtNtNtNtCs6u9oDspvYRg_7qchrono8calendar13calendar_impl5tests16test_num_bizdays6case_419stt_2_ymd_1999_1_1_s_19end_3_ymd_2021_1_1_
FNDA:1,_RNvNtNtNtNtNtNtCs6u9oDspvYRg_7qchrono8calendar13calendar_impl5tests16test_num_bizdays6case_419stt_2_ymd_1999_1_1_s_20end_4_ymd_2021_1_10_
FNDA:1,_RNvNtNtNtNtNtNtCs6u9oDspvYRg_7qchrono8calendar13calendar_impl5tests16test_num_bizdays6case_419stt_2_ymd_1999_1_1_s_20end_5_ymd_2021_1_13_
FNDA:1,_RNvNtNtNtNtNtNtCs6u9oDspvYRg_7qchrono8calendar13calendar_impl5tests16test_num_bizdays6case_419stt_2_ymd_1999_1_1_s_20end_6_ymd_2021_1_20_
FNDA:1,_RNvNtNtNtNtNtNtCs6u9oDspvYRg_7qchrono8calendar13calendar_impl5tests16test_num_bizdays6case_419stt_2_ymd_1999_1_1_s_19end_7_ymd_2025_1_1_
FNDA:1,_RNvNtNtNtNtNtNtCs6u9oDspvYRg_7qchrono8calendar13calendar_impl5tests16test_num_bizdays6case_419stt_2_ymd_1999_1_1_s_20end_8_NaiveDate__MAX
FNDA:1,_RNvNtNtNtNtNtNtCs6u9oDspvYRg_7qchrono8calendar13calendar_impl5tests16test_num_bizdays6case_319stt_2_ymd_1999_1_1_s_20end_1_NaiveDate__MIN
FNDA:1,_RNvNtNtNtNtNtNtCs6u9oDspvYRg_7qchrono8calendar13calendar_impl5tests16test_num_bizdays6case_319stt_2_ymd_1999_1_1_s_19end_2_ymd_1999_1_1_
FNDA:1,_RNvNtNtNtNtNtNtCs6u9oDspvYRg_7qchrono8calendar13calendar_impl5tests16test_num_bizdays6case_319stt_2_ymd_1999_1_1_s_19end_3_ymd_2021_1_1_
FNDA:1,_RNvNtNtNtNtNtNtCs6u9oDspvYRg_7qchrono8calendar13calendar_impl5tests16test_num_bizdays6case_319stt_2_ymd_1999_1_1_s_20end_4_ymd_2021_1_10_
FNDA:1,_RNvNtNtNtNtNtNtCs6u9oDspvYRg_7qchrono8calendar13calendar_impl5tests16test_num_bizdays6case_319stt_2_ymd_1999_1_1_s_20end_5_ymd_2021_1_13_
FNDA:1,_RNvNtNtNtNtNtNtCs6u9oDspvYRg_7qchrono8calendar13calendar_impl5tests16test_num_bizdays6case_319stt_2_ymd_1999_1_1_s_20end_6_ymd_2021_1_20_
FNDA:1,_RNvNtNtNtNtNtNtCs6u9oDspvYRg_7qchrono8calendar13calendar_impl5tests16test_num_bizdays6case_319stt_2_ymd_1999_1_1_s_19end_7_ymd_2025_1_1_
FNDA:1,_RNvNtNtNtNtNtNtCs6u9oDspvYRg_7qchrono8calendar13calendar_impl5tests16test_num_bizdays6case_319stt_2_ymd_1999_1_1_s_20end_8_NaiveDate__MAX
FNDA:1,_RNvNtNtNtNtNtNtCs6u9oDspvYRg_7qchrono8calendar13calendar_impl5tests16test_num_bizdays6case_319stt_7_ymd_2025_1_1_s_20end_1_NaiveDate__MIN
FNDA:1,_RNvNtNtNtNtNtNtCs6u9oDspvYRg_7qchrono8calendar13calendar_impl5tests16test_num_bizdays6case_319stt_7_ymd_2025_1_1_s_19end_2_ymd_1999_1_1_
FNDA:1,_RNvNtNtNtNtNtNtCs6u9oDspvYRg_7qchrono8calendar13calendar_impl5tests16test_num_bizdays6case_319stt_7_ymd_2025_1_1_s_19end_3_ymd_2021_1_1_
FNDA:1,_RNvNtNtNtNtNtNtCs6u9oDspvYRg_7qchrono8calendar13calendar_impl5tests16test_num_bizdays6case_319stt_7_ymd_2025_1_1_s_20end_4_ymd_2021_1_10_
FNDA:1,_RNvNtNtNtNtNtNtCs6u9oDspvYRg_7qchrono8calendar13calendar_impl5tests16test_num_bizdays6case_319stt_7_ymd_2025_1_1_s_20end_5_ymd_2021_1_13_
FNDA:1,_RNvNtNtNtNtNtNtCs6u9oDspvYRg_7qchrono8calendar13calendar_impl5tests16test_num_bizdays6case_319stt_7_ymd_2025_1_1_s_20end_6_ymd_2021_1_20_
FNDA:1,_RNvNtNtNtNtNtNtCs6u9oDspvYRg_7qchrono8calendar13calendar_impl5tests16test_num_bizdays6case_319stt_7_ymd_2025_1_1_s_19end_7_ymd_2025_1_1_
FNDA:1,_RNvNtNtNtNtNtNtCs6u9oDspvYRg_7qchrono8calendar13calendar_impl5tests16test_num_bizdays6case_319stt_7_ymd_2025_1_1_s_20end_8_NaiveDate__MAX
FNDA:1,_RNvNtNtNtNtNtNtCs6u9oDspvYRg_7qchrono8calendar13calendar_impl5tests16test_num_bizdays6case_419stt_3_ymd_2021_1_1_s_20end_1_NaiveDate__MIN
FNDA:1,_RNvNtNtNtNtNtNtCs6u9oDspvYRg_7qchrono8calendar13calendar_impl5tests16test_num_bizdays6case_419stt_3_ymd_2021_1_1_s_19end_2_ymd_1999_1_1_
FNDA:1,_RNvNtNtNtNtNtNtCs6u9oDspvYRg_7qchrono8calendar13calendar_impl5tests16test_num_bizdays6case_419stt_3_ymd_2021_1_1_s_19end_3_ymd_2021_1_1_
FNDA:1,_RNvNtNtNtNtNtNtCs6u9oDspvYRg_7qchrono8calendar13calendar_impl5tests16test_num_bizdays6case_419stt_3_ymd_2021_1_1_s_20end_4_ymd_2021_1_10_
FNDA:1,_RNvNtNtNtNtNtNtCs6u9oDspvYRg_7qchrono8calendar13calendar_impl5tests16test_num_bizdays6case_419stt_3_ymd_2021_1_1_s_20end_5_ymd_2021_1_13_
FNDA:1,_RNvNtNtNtNtNtNtCs6u9oDspvYRg_7qchrono8calendar13calendar_impl5tests16test_num_bizdays6case_419stt_3_ymd_2021_1_1_s_20end_6_ymd_2021_1_20_
FNDA:1,_RNvNtNtNtNtNtNtCs6u9oDspvYRg_7qchrono8calendar13calendar_impl5tests16test_num_bizdays6case_419stt_3_ymd_2021_1_1_s_19end_7_ymd_2025_1_1_
FNDA:1,_RNvNtNtNtNtNtNtCs6u9oDspvYRg_7qchrono8calendar13calendar_impl5tests16test_num_bizdays6case_419stt_3_ymd_2021_1_1_s_20end_8_NaiveDate__MAX
FNDA:1,_RNvNtNtNtNtNtNtCs6u9oDspvYRg_7qchrono8calendar13calendar_impl5tests16test_num_bizdays6case_420stt_4_ymd_2021_1_10_s_20end_1_NaiveDate__MIN
FNDA:1,_RNvNtNtNtNtNtNtCs6u9oDspvYRg_7qchrono8calendar13calendar_impl5tests16test_num_bizdays6case_420stt_4_ymd_2021_1_10_s_19end_2_ymd_1999_1_1_
FNDA:1,_RNvNtNtNtNtNtNtCs6u9oDspvYRg_7qchrono8calendar13calendar_impl5tests16test_num_bizdays6case_420stt_4_ymd_2021_1_10_s_19end_3_ymd_2021_1_1_
FNDA:1,_RNvNtNtNtNtNtNtCs6u9oDspvYRg_7qchrono8calendar13calendar_impl5tests16test_num_bizdays6case_420stt_4_ymd_2021_1_10_s_20end_4_ymd_2021_1_10_
FNDA:1,_RNvNtNtNtNtNtNtCs6u9oDspvYRg_7qchrono8calendar13calendar_impl5tests16test_num_bizdays6case_420stt_4_ymd_2021_1_10_s_20end_5_ymd_2021_1_13_
FNDA:1,_RNvNtNtNtNtNtNtCs6u9oDspvYRg_7qchrono8calendar13calendar_impl5tests16test_num_bizdays6case_420stt_4_ymd_2021_1_10_s_20end_6_ymd_2021_1_20_
FNDA:1,_RNvNtNtNtNtNtNtCs6u9oDspvYRg_7qchrono8calendar13calendar_impl5tests16test_num_bizdays6case_420stt_4_ymd_2021_1_10_s_19end_7_ymd_2025_1_1_
FNDA:1,_RNvNtNtNtNtNtNtCs6u9oDspvYRg_7qchrono8calendar13calendar_impl5tests16test_num_bizdays6case_420stt_4_ymd_2021_1_10_s_20end_8_NaiveDate__MAX
FNDA:1,_RNvNtNtNtNtNtNtCs6u9oDspvYRg_7qchrono8calendar13calendar_impl5tests16test_num_bizdays6case_420stt_6_ymd_2021_1_20_s_20end_1_NaiveDate__MIN
FNDA:1,_RNvNtNtNtNtNtNtCs6u9oDspvYRg_7qchrono8calendar13calendar_impl5tests16test_num_bizdays6case_420stt_6_ymd_2021_1_20_s_19end_2_ymd_1999_1_1_
FNDA:1,_RNvNtNtNtNtNtNtCs6u9oDspvYRg_7qchrono8calendar13calendar_impl5tests16test_num_bizdays6case_420stt_6_ymd_2021_1_20_s_19end_3_ymd_2021_1_1_
FNDA:1,_RNvNtNtNtNtNtNtCs6u9oDspvYRg_7qchrono8calendar13calendar_impl5tests16test_num_bizdays6case_420stt_6_ymd_2021_1_20_s_20end_4_ymd_2021_1_10_
FNDA:1,_RNvNtNtNtNtNtNtCs6u9oDspvYRg_7qchrono8calendar13calendar_impl5tests16test_num_bizdays6case_420stt_6_ymd_2021_1_20_s_20end_5_ymd_2021_1_13_
FNDA:1,_RNvNtNtNtNtNtNtCs6u9oDspvYRg_7qchrono8calendar13calendar_impl5tests16test_num_bizdays6case_420stt_6_ymd_2021_1_20_s_20end_6_ymd_2021_1_20_
FNDA:1,_RNvNtNtNtNtNtNtCs6u9oDspvYRg_7qchrono8calendar13calendar_impl5tests16test_num_bizdays6case_420stt_6_ymd_2021_1_20_s_19end_7_ymd_2025_1_1_
FNDA:1,_RNvNtNtNtNtNtNtCs6u9oDspvYRg_7qchrono8calendar13calendar_impl5tests16test_num_bizdays6case_420stt_6_ymd_2021_1_20_s_20end_8_NaiveDate__MAX
FNDA:1,_RNvNtNtNtNtNtNtCs6u9oDspvYRg_7qchrono8calendar13calendar_impl5tests16test_num_bizdays6case_419stt_7_ymd_2025_1_1_s_20end_1_NaiveDate__MIN
FNDA:1,_RNvNtNtNtNtNtNtCs6u9oDspvYRg_7qchrono8calendar13calendar_impl5tests16test_num_bizdays6case_419stt_7_ymd_2025_1_1_s_19end_2_ymd_1999_1_1_
FNDA:1,_RNvNtNtNtNtNtNtCs6u9oDspvYRg_7qchrono8calendar13calendar_impl5tests16test_num_bizdays6case_419stt_7_ymd_2025_1_1_s_19end_3_ymd_2021_1_1_
FNDA:1,_RNvNtNtNtNtNtNtCs6u9oDspvYRg_7qchrono8calendar13calendar_impl5tests16test_num_bizdays6case_419stt_7_ymd_2025_1_1_s_20end_4_ymd_2021_1_10_
FNDA:1,_RNvNtNtNtNtNtNtCs6u9oDspvYRg_7qchrono8calendar13calendar_impl5tests16test_num_bizdays6case_419stt_7_ymd_2025_1_1_s_20end_5_ymd_2021_1_13_
FNDA:1,_RNvNtNtNtNtNtNtCs6u9oDspvYRg_7qchrono8calendar13calendar_impl5tests16test_num_bizdays6case_419stt_7_ymd_2025_1_1_s_20end_6_ymd_2021_1_20_
FNDA:1,_RNvNtNtNtNtNtNtCs6u9oDspvYRg_7qchrono8calendar13calendar_impl5tests16test_num_bizdays6case_419stt_7_ymd_2025_1_1_s_19end_7_ymd_2025_1_1_
FNDA:1,_RNvNtNtNtNtNtNtCs6u9oDspvYRg_7qchrono8calendar13calendar_impl5tests16test_num_bizdays6case_419stt_7_ymd_2025_1_1_s_20end_8_NaiveDate__MAX
FNDA:1,_RNvNtNtNtNtCs6u9oDspvYRg_7qchrono8calendar13calendar_impl5tests26test_num_bizdays_unboundeds_6case_1
FNDA:1,_RNvNtNtNtNtCs6u9oDspvYRg_7qchrono8calendar13calendar_impl5tests26test_num_bizdays_unboundeds_6case_2
FNDA:1,_RNvNtNtNtNtCs6u9oDspvYRg_7qchrono8calendar13calendar_impl5tests26test_num_bizdays_unboundeds_6case_3
FNDA:1,_RNvNtNtNtNtCs6u9oDspvYRg_7qchrono8calendar13calendar_impl5tests26test_num_bizdays_unboundeds_6case_4
FNDA:1,_RNvNtNtNtNtNtNtCs6u9oDspvYRg_7qchrono8calendar13calendar_impl5tests16test_num_bizdays6case_119stt_7_ymd_2025_1_1_s_20end_1_NaiveDate__MIN
FNDA:1,_RNvNtNtNtNtNtNtCs6u9oDspvYRg_7qchrono8calendar13calendar_impl5tests16test_num_bizdays6case_119stt_7_ymd_2025_1_1_s_19end_2_ymd_1999_1_1_
FNDA:1,_RNvNtNtNtNtNtNtCs6u9oDspvYRg_7qchrono8calendar13calendar_impl5tests16test_num_bizdays6case_119stt_7_ymd_2025_1_1_s_19end_3_ymd_2021_1_1_
FNDA:1,_RNvNtNtNtNtNtNtCs6u9oDspvYRg_7qchrono8calendar13calendar_impl5tests16test_num_bizdays6case_119stt_7_ymd_2025_1_1_s_20end_4_ymd_2021_1_10_
FNDA:1,_RNvNtNtNtNtNtNtCs6u9oDspvYRg_7qchrono8calendar13calendar_impl5tests16test_num_bizdays6case_119stt_7_ymd_2025_1_1_s_20end_5_ymd_2021_1_13_
FNDA:1,_RNvNtNtNtNtNtNtCs6u9oDspvYRg_7qchrono8calendar13calendar_impl5tests16test_num_bizdays6case_119stt_7_ymd_2025_1_1_s_20end_6_ymd_2021_1_20_
FNDA:1,_RNvNtNtNtNtNtNtCs6u9oDspvYRg_7qchrono8calendar13calendar_impl5tests16test_num_bizdays6case_119stt_7_ymd_2025_1_1_s_19end_7_ymd_2025_1_1_
FNDA:1,_RNvNtNtNtNtNtNtCs6u9oDspvYRg_7qchrono8calendar13calendar_impl5tests16test_num_bizdays6case_119stt_7_ymd_2025_1_1_s_20end_8_NaiveDate__MAX
FNDA:1,_RNvNtNtNtNtNtNtCs6u9oDspvYRg_7qchrono8calendar13calendar_impl5tests16test_num_bizdays6case_220stt_1_NaiveDate__MINs_20end_1_NaiveDate__MIN
FNDA:1,_RNvNtNtNtNtNtNtCs6u9oDspvYRg_7qchrono8calendar13calendar_impl5tests16test_num_bizdays6case_220stt_1_NaiveDate__MINs_19end_2_ymd_1999_1_1_
FNDA:1,_RNvNtNtNtNtNtNtCs6u9oDspvYRg_7qchrono8calendar13calendar_impl5tests16test_num_bizdays6case_220stt_1_NaiveDate__MINs_19end_3_ymd_2021_1_1_
FNDA:1,_RNvNtNtNtNtNtNtCs6u9oDspvYRg_7qchrono8calendar13calendar_impl5tests16test_num_bizdays6case_220stt_1_NaiveDate__MINs_20end_4_ymd_2021_1_10_
FNDA:1,_RNvNtNtNtNtNtNtCs6u9oDspvYRg_7qchrono8calendar13calendar_impl5tests16test_num_bizdays6case_220stt_1_NaiveDate__MINs_20end_5_ymd_2021_1_13_
FNDA:1,_RNvNtNtNtNtNtNtCs6u9oDspvYRg_7qchrono8calendar13calendar_impl5tests16test_num_bizdays6case_220stt_1_NaiveDate__MINs_20end_6_ymd_2021_1_20_
FNDA:1,_RNvNtNtNtNtNtNtCs6u9oDspvYRg_7qchrono8calendar13calendar_impl5tests16test_num_bizdays6case_220stt_1_NaiveDate__MINs_19end_7_ymd_2025_1_1_
FNDA:1,_RNvNtNtNtNtNtNtCs6u9oDspvYRg_7qchrono8calendar13calendar_impl5tests16test_num_bizdays6case_220stt_1_NaiveDate__MINs_20end_8_NaiveDate__MAX
FNDA:1,_RNvNtNtNtNtNtNtCs6u9oDspvYRg_7qchrono8calendar13calendar_impl5tests16test_num_bizdays6case_220stt_5_ymd_2021_1_13_s_20end_1_NaiveDate__MIN
FNDA:1,_RNvNtNtNtNtNtNtCs6u9oDspvYRg_7qchrono8calendar13calendar_impl5tests16test_num_bizdays6case_220stt_5_ymd_2021_1_13_s_19end_2_ymd_1999_1_1_
FNDA:1,_RNvNtNtNtNtNtNtCs6u9oDspvYRg_7qchrono8calendar13calendar_impl5tests16test_num_bizdays6case_220stt_5_ymd_2021_1_13_s_19end_3_ymd_2021_1_1_
FNDA:1,_RNvNtNtNtNtNtNtCs6u9oDspvYRg_7qchrono8calendar13calendar_impl5tests16test_num_bizdays6case_220stt_5_ymd_2021_1_13_s_20end_4_ymd_2021_1_10_
FNDA:1,_RNvNtNtNtNtNtNtCs6u9oDspvYRg_7qchrono8calendar13calendar_impl5tests16test_num_bizdays6case_220stt_5_ymd_2021_1_13_s_20end_5_ymd_2021_1_13_
FNDA:1,_RNvNtNtNtNtNtNtCs6u9oDspvYRg_7qchrono8calendar13calendar_impl5tests16test_num_bizdays6case_220stt_5_ymd_2021_1_13_s_20end_6_ymd_2021_1_20_
FNDA:1,_RNvNtNtNtNtNtNtCs6u9oDspvYRg_7qchrono8calendar13calendar_impl5tests16test_num_bizdays6case_220stt_5_ymd_2021_1_13_s_19end_7_ymd_2025_1_1_
FNDA:1,_RNvNtNtNtNtNtNtCs6u9oDspvYRg_7qchrono8calendar13calendar_impl5tests16test_num_bizdays6case_220stt_5_ymd_2021_1_13_s_20end_8_NaiveDate__MAX
FNDA:1,_RNvNtNtNtNtNtNtCs6u9oDspvYRg_7qchrono8calendar13calendar_impl5tests16test_num_bizdays6case_320stt_1_NaiveDate__MINs_20end_1_NaiveDate__MIN
FNDA:1,_RNvNtNtNtNtNtNtCs6u9oDspvYRg_7qchrono8calendar13calendar_impl5tests16test_num_bizdays6case_320stt_1_NaiveDate__MINs_19end_2_ymd_1999_1_1_
FNDA:1,_RNvNtNtNtNtNtNtCs6u9oDspvYRg_7qchrono8calendar13calendar_impl5tests16test_num_bizdays6case_320stt_1_NaiveDate__MINs_19end_3_ymd_2021_1_1_
FNDA:1,_RNvNtNtNtNtNtNtCs6u9oDspvYRg_7qchrono8calendar13calendar_impl5tests16test_num_bizdays6case_320stt_1_NaiveDate__MINs_20end_4_ymd_2021_1_10_
FNDA:1,_RNvNtNtNtNtNtNtCs6u9oDspvYRg_7qchrono8calendar13calendar_impl5tests16test_num_bizdays6case_320stt_1_NaiveDate__MINs_20end_5_ymd_2021_1_13_
FNDA:1,_RNvNtNtNtNtNtNtCs6u9oDspvYRg_7qchrono8calendar13calendar_impl5tests16test_num_bizdays6case_320stt_1_NaiveDate__MINs_20end_6_ymd_2021_1_20_
FNDA:1,_RNvNtNtNtNtNtNtCs6u9oDspvYRg_7qchrono8calendar13calendar_impl5tests16test_num_bizdays6case_320stt_1_NaiveDate__MINs_19end_7_ymd_2025_1_1_
FNDA:1,_RNvNtNtNtNtNtNtCs6u9oDspvYRg_7qchrono8calendar13calendar_impl5tests16test_num_bizdays6case_320stt_1_NaiveDate__MINs_20end_8_NaiveDate__MAX
FNDA:2,_RINvXNtNtCs6u9oDspvYRg_7qchrono8calendar13calendar_implNtB3_13__CalendarDataNtNtCshDylzWGrM8d_5serde2de11Deserialize11deserializeNtNtCsjMEqcGD1gYq_10serde_json5value5ValueEB7_
FNDA:409,_RNvMs_NtNtCs6u9oDspvYRg_7qchrono8calendar13calendar_implNtB4_13__CalendarData3new
FNDA:1,_RINvXs0_NtNtCs6u9oDspvYRg_7qchrono8calendar13calendar_implNtB6_8CalendarNtNtCshDylzWGrM8d_5serde3ser9Serialize9serializeNtNtNtCsjMEqcGD1gYq_10serde_json5value3ser10SerializerEBa_
FNDA:2,_RINvXs1_NtNtCs6u9oDspvYRg_7qchrono8calendar13calendar_implNtB6_8CalendarNtNtCshDylzWGrM8d_5serde2de11Deserialize11deserializeNtNtCsjMEqcGD1gYq_10serde_json5value5ValueEBa_
FNDA:407,_RNvMs3_NtNtCs6u9oDspvYRg_7qchrono8calendar13calendar_implNtB5_8Calendar4__new
FNDA:57,_RNvMs3_NtNtCs6u9oDspvYRg_7qchrono8calendar13calendar_implNtB5_8Calendar7builderB9_
FNDA:1,_RINvMs3_NtNtCs6u9oDspvYRg_7qchrono8calendar13calendar_implNtB6_8Calendar13any_closed_ofABU_j0_EBa_
FNDA:2,_RINvMs3_NtNtCs6u9oDspvYRg_7qchrono8calendar13calendar_implNtB6_8Calendar13any_closed_ofABU_j1_EBa_
FNDA:7,_RINvMs3_NtNtCs6u9oDspvYRg_7qchrono8calendar13calendar_implNtB6_8Calendar13any_closed_ofABU_j2_EBa_
FNDA:2,_RINvMs3_NtNtCs6u9oDspvYRg_7qchrono8calendar13calendar_implNtB6_8Calendar13any_closed_ofINtCs1TWK2DdqTCU_8smallvec8SmallVecABU_j5_EEBa_
FNDA:0,_RNCINvMs3_NtNtCs6u9oDspvYRg_7qchrono8calendar13calendar_implNtB8_8Calendar13any_closed_ofABW_j0_E0Bc_
FNDA:0,_RNCINvMs3_NtNtCs6u9oDspvYRg_7qchrono8calendar13calendar_implNtB8_8Calendar13any_closed_ofABW_j1_E0Bc_
FNDA:6,_RNCINvMs3_NtNtCs6u9oDspvYRg_7qchrono8calendar13calendar_implNtB8_8Calendar13any_closed_ofABW_j2_E0Bc_
FNDA:0,_RNCINvMs3_NtNtCs6u9oDspvYRg_7qchrono8calendar13calendar_implNtB8_8Calendar13any_closed_ofINtCs1TWK2DdqTCU_8smallvec8SmallVecABW_j5_EE0Bc_
FNDA:1,_RINvMs3_NtNtCs6u9oDspvYRg_7qchrono8calendar13calendar_implNtB6_8Calendar13all_closed_ofABU_j0_EBa_
FNDA:2,_RINvMs3_NtNtCs6u9oDspvYRg_7qchrono8calendar13calendar_implNtB6_8Calendar13all_closed_ofABU_j1_EBa_
FNDA:6,_RINvMs3_NtNtCs6u9oDspvYRg_7qchrono8calendar13calendar_implNtB6_8Calendar13all_closed_ofABU_j2_EBa_
FNDA:2,_RINvMs3_NtNtCs6u9oDspvYRg_7qchrono8calendar13calendar_implNtB6_8Calendar13all_closed_ofINtCs1TWK2DdqTCU_8smallvec8SmallVecABU_j5_EEBa_
FNDA:0,_RNCINvMs3_NtNtCs6u9oDspvYRg_7qchrono8calendar13calendar_implNtB8_8Calendar13all_closed_ofABW_j0_E0Bc_
FNDA:0,_RNCINvMs3_NtNtCs6u9oDspvYRg_7qchrono8calendar13calendar_implNtB8_8Calendar13all_closed_ofABW_j1_E0Bc_
FNDA:8,_RNCINvMs3_NtNtCs6u9oDspvYRg_7qchrono8calendar13calendar_implNtB8_8Calendar13all_closed_ofABW_j2_E0Bc_
FNDA:2,_RNCINvMs3_NtNtCs6u9oDspvYRg_7qchrono8calendar13calendar_implNtB8_8Calendar13all_closed_ofINtCs1TWK2DdqTCU_8smallvec8SmallVecABW_j5_EE0Bc_
FNDA:2708,_RNvMs4_NtNtCs6u9oDspvYRg_7qchrono8calendar13calendar_implNtB5_8Calendar12valid_periodB9_
FNDA:2196,_RNvMs4_NtNtCs6u9oDspvYRg_7qchrono8calendar13calendar_implNtB5_8Calendar8validateB9_
FNDA:17,_RNvMs4_NtNtCs6u9oDspvYRg_7qchrono8calendar13calendar_implNtB5_8Calendar14extra_holidaysB9_
FNDA:13,_RNvMs4_NtNtCs6u9oDspvYRg_7qchrono8calendar13calendar_implNtB5_8Calendar13extra_bizdaysB9_
FNDA:1655,_RNvMs4_NtNtCs6u9oDspvYRg_7qchrono8calendar13calendar_implNtB5_8Calendar23treat_weekend_as_bizdayB9_
FNDA:256,_RINvMs4_NtNtCs6u9oDspvYRg_7qchrono8calendar13calendar_implNtB6_8Calendar11num_bizdaysINtNtNtCs2fyPGiZs4Bj_4core3ops5range14RangeInclusiveNtNtNtCs9T1gxOhu6ob_6chrono5naive4date9NaiveDateEEBa_
FNDA:32,_RINvMs4_NtNtCs6u9oDspvYRg_7qchrono8calendar13calendar_implNtB6_8Calendar11num_bizdaysINtNtNtCs2fyPGiZs4Bj_4core3ops5range16RangeToInclusiveNtNtNtCs9T1gxOhu6ob_6chrono5naive4date9NaiveDateEEBa_
FNDA:256,_RINvMs4_NtNtCs6u9oDspvYRg_7qchrono8calendar13calendar_implNtB6_8Calendar11num_bizdaysINtNtNtCs2fyPGiZs4Bj_4core3ops5range5RangeNtNtNtCs9T1gxOhu6ob_6chrono5naive4date9NaiveDateEEBa_
FNDA:32,_RINvMs4_NtNtCs6u9oDspvYRg_7qchrono8calendar13calendar_implNtB6_8Calendar11num_bizdaysINtNtNtCs2fyPGiZs4Bj_4core3ops5range7RangeToNtNtNtCs9T1gxOhu6ob_6chrono5naive4date9NaiveDateEEBa_
FNDA:32,_RINvMs4_NtNtCs6u9oDspvYRg_7qchrono8calendar13calendar_implNtB6_8Calendar11num_bizdaysINtNtNtCs2fyPGiZs4Bj_4core3ops5range9RangeFromNtNtNtCs9T1gxOhu6ob_6chrono5naive4date9NaiveDateEEBa_
FNDA:4,_RINvMs4_NtNtCs6u9oDspvYRg_7qchrono8calendar13calendar_implNtB6_8Calendar11num_bizdaysNtNtNtCs2fyPGiZs4Bj_4core3ops5range9RangeFullEBa_
FNDA:0,_RNCINvMs4_NtNtCs6u9oDspvYRg_7qchrono8calendar13calendar_implNtB8_8Calendar11num_bizdaysINtNtNtCs2fyPGiZs4Bj_4core3ops5range14RangeInclusiveNtNtNtCs9T1gxOhu6ob_6chrono5naive4date9NaiveDateEE0Bc_
FNDA:0,_RNCINvMs4_NtNtCs6u9oDspvYRg_7qchrono8calendar13calendar_implNtB8_8Calendar11num_bizdaysINtNtNtCs2fyPGiZs4Bj_4core3ops5range16RangeToInclusiveNtNtNtCs9T1gxOhu6ob_6chrono5naive4date9NaiveDateEE0Bc_
FNDA:0,_RNCINvMs4_NtNtCs6u9oDspvYRg_7qchrono8calendar13calendar_implNtB8_8Calendar11num_bizdaysINtNtNtCs2fyPGiZs4Bj_4core3ops5range5RangeNtNtNtCs9T1gxOhu6ob_6chrono5naive4date9NaiveDateEE0Bc_
FNDA:0,_RNCINvMs4_NtNtCs6u9oDspvYRg_7qchrono8calendar13calendar_implNtB8_8Calendar11num_bizdaysINtNtNtCs2fyPGiZs4Bj_4core3ops5range7RangeToNtNtNtCs9T1gxOhu6ob_6chrono5naive4date9NaiveDateEE0Bc_
FNDA:0,_RNCINvMs4_NtNtCs6u9oDspvYRg_7qchrono8calendar13calendar_implNtB8_8Calendar11num_bizdaysINtNtNtCs2fyPGiZs4Bj_4core3ops5range9RangeFromNtNtNtCs9T1gxOhu6ob_6chrono5naive4date9NaiveDateEE0Bc_
FNDA:0,_RNCINvMs4_NtNtCs6u9oDspvYRg_7qchrono8calendar13calendar_implNtB8_8Calendar11num_bizdaysNtNtNtCs2fyPGiZs4Bj_4core3ops5range9RangeFullE0Bc_
FNDA:0,_RNCINvMs4_NtNtCs6u9oDspvYRg_7qchrono8calendar13calendar_implNtB8_8Calendar11num_bizdaysINtNtNtCs2fyPGiZs4Bj_4core3ops5range14RangeInclusiveNtNtNtCs9T1gxOhu6ob_6chrono5naive4date9NaiveDateEEs_0Bc_
FNDA:0,_RNCINvMs4_NtNtCs6u9oDspvYRg_7qchrono8calendar13calendar_implNtB8_8Calendar11num_bizdaysINtNtNtCs2fyPGiZs4Bj_4core3ops5range16RangeToInclusiveNtNtNtCs9T1gxOhu6ob_6chrono5naive4date9NaiveDateEEs_0Bc_
FNDA:0,_RNCINvMs4_NtNtCs6u9oDspvYRg_7qchrono8calendar13calendar_implNtB8_8Calendar11num_bizdaysINtNtNtCs2fyPGiZs4Bj_4core3ops5range5RangeNtNtNtCs9T1gxOhu6ob_6chrono5naive4date9NaiveDateEEs_0Bc_
FNDA:0,_RNCINvMs4_NtNtCs6u9oDspvYRg_7qchrono8calendar13calendar_implNtB8_8Calendar11num_bizdaysINtNtNtCs2fyPGiZs4Bj_4core3ops5range7RangeToNtNtNtCs9T1gxOhu6ob_6chrono5naive4date9NaiveDateEEs_0Bc_
FNDA:0,_RNCINvMs4_NtNtCs6u9oDspvYRg_7qchrono8calendar13calendar_implNtB8_8Calendar11num_bizdaysINtNtNtCs2fyPGiZs4Bj_4core3ops5range9RangeFromNtNtNtCs9T1gxOhu6ob_6chrono5naive4date9NaiveDateEEs_0Bc_
FNDA:0,_RNCINvMs4_NtNtCs6u9oDspvYRg_7qchrono8calendar13calendar_implNtB8_8Calendar11num_bizdaysNtNtNtCs2fyPGiZs4Bj_4core3ops5range9RangeFullEs_0Bc_
FNDA:0,_RNCINvMs4_NtNtCs6u9oDspvYRg_7qchrono8calendar13calendar_implNtB8_8Calendar11num_bizdaysINtNtNtCs2fyPGiZs4Bj_4core3ops5range14RangeInclusiveNtNtNtCs9T1gxOhu6ob_6chrono5naive4date9NaiveDateEEs0_0Bc_
FNDA:0,_RNCINvMs4_NtNtCs6u9oDspvYRg_7qchrono8calendar13calendar_implNtB8_8Calendar11num_bizdaysINtNtNtCs2fyPGiZs4Bj_4core3ops5range16RangeToInclusiveNtNtNtCs9T1gxOhu6ob_6chrono5naive4date9NaiveDateEEs0_0Bc_
FNDA:0,_RNCINvMs4_NtNtCs6u9oDspvYRg_7qchrono8calendar13calendar_implNtB8_8Calendar11num_bizdaysINtNtNtCs2fyPGiZs4Bj_4core3ops5range5RangeNtNtNtCs9T1gxOhu6ob_6chrono5naive4date9NaiveDateEEs0_0Bc_
FNDA:0,_RNCINvMs4_NtNtCs6u9oDspvYRg_7qchrono8calendar13calendar_implNtB8_8Calendar11num_bizdaysINtNtNtCs2fyPGiZs4Bj_4core3ops5range7RangeToNtNtNtCs9T1gxOhu6ob_6chrono5naive4date9NaiveDateEEs0_0Bc_
FNDA:0,_RNCINvMs4_NtNtCs6u9oDspvYRg_7qchrono8calendar13calendar_implNtB8_8Calendar11num_bizdaysINtNtNtCs2fyPGiZs4Bj_4core3ops5range9RangeFromNtNtNtCs9T1gxOhu6ob_6chrono5naive4date9NaiveDateEEs0_0Bc_
FNDA:0,_RNCINvMs4_NtNtCs6u9oDspvYRg_7qchrono8calendar13calendar_implNtB8_8Calendar11num_bizdaysNtNtNtCs2fyPGiZs4Bj_4core3ops5range9RangeFullEs0_0Bc_
FNDA:2,_RNCINvMs4_NtNtCs6u9oDspvYRg_7qchrono8calendar13calendar_implNtB8_8Calendar11num_bizdaysINtNtNtCs2fyPGiZs4Bj_4core3ops5range14RangeInclusiveNtNtNtCs9T1gxOhu6ob_6chrono5naive4date9NaiveDateEEs1_0Bc_
FNDA:0,_RNCINvMs4_NtNtCs6u9oDspvYRg_7qchrono8calendar13calendar_implNtB8_8Calendar11num_bizdaysINtNtNtCs2fyPGiZs4Bj_4core3ops5range16RangeToInclusiveNtNtNtCs9T1gxOhu6ob_6chrono5naive4date9NaiveDateEEs1_0Bc_
FNDA:2,_RNCINvMs4_NtNtCs6u9oDspvYRg_7qchrono8calendar13calendar_implNtB8_8Calendar11num_bizdaysINtNtNtCs2fyPGiZs4Bj_4core3ops5range5RangeNtNtNtCs9T1gxOhu6ob_6chrono5naive4date9NaiveDateEEs1_0Bc_
FNDA:0,_RNCINvMs4_NtNtCs6u9oDspvYRg_7qchrono8calendar13calendar_implNtB8_8Calendar11num_bizdaysINtNtNtCs2fyPGiZs4Bj_4core3ops5range7RangeToNtNtNtCs9T1gxOhu6ob_6chrono5naive4date9NaiveDateEEs1_0Bc_
FNDA:0,_RNCINvMs4_NtNtCs6u9oDspvYRg_7qchrono8calendar13calendar_implNtB8_8Calendar11num_bizdaysINtNtNtCs2fyPGiZs4Bj_4core3ops5range9RangeFromNtNtNtCs9T1gxOhu6ob_6chrono5naive4date9NaiveDateEEs1_0Bc_
FNDA:0,_RNCINvMs4_NtNtCs6u9oDspvYRg_7qchrono8calendar13calendar_implNtB8_8Calendar11num_bizdaysNtNtNtCs2fyPGiZs4Bj_4core3ops5range9RangeFullEs1_0Bc_
FNDA:2,_RNCINvMs4_NtNtCs6u9oDspvYRg_7qchrono8calendar13calendar_implNtB8_8Calendar11num_bizdaysINtNtNtCs2fyPGiZs4Bj_4core3ops5range14RangeInclusiveNtNtNtCs9T1gxOhu6ob_6chrono5naive4date9NaiveDateEEs2_0Bc_
FNDA:0,_RNCINvMs4_NtNtCs6u9oDspvYRg_7qchrono8calendar13calendar_implNtB8_8Calendar11num_bizdaysINtNtNtCs2fyPGiZs4Bj_4core3ops5range16RangeToInclusiveNtNtNtCs9T1gxOhu6ob_6chrono5naive4date9NaiveDateEEs2_0Bc_
FNDA:1,_RNCINvMs4_NtNtCs6u9oDspvYRg_7qchrono8calendar13calendar_implNtB8_8Calendar11num_bizdaysINtNtNtCs2fyPGiZs4Bj_4core3ops5range5RangeNtNtNtCs9T1gxOhu6ob_6chrono5naive4date9NaiveDateEEs2_0Bc_
FNDA:0,_RNCINvMs4_NtNtCs6u9oDspvYRg_7qchrono8calendar13calendar_implNtB8_8Calendar11num_bizdaysINtNtNtCs2fyPGiZs4Bj_4core3ops5range7RangeToNtNtNtCs9T1gxOhu6ob_6chrono5naive4date9NaiveDateEEs2_0Bc_
FNDA:0,_RNCINvMs4_NtNtCs6u9oDspvYRg_7qchrono8calendar13calendar_implNtB8_8Calendar11num_bizdaysINtNtNtCs2fyPGiZs4Bj_4core3ops5range9RangeFromNtNtNtCs9T1gxOhu6ob_6chrono5naive4date9NaiveDateEEs2_0Bc_
FNDA:0,_RNCINvMs4_NtNtCs6u9oDspvYRg_7qchrono8calendar13calendar_implNtB8_8Calendar11num_bizdaysNtNtNtCs2fyPGiZs4Bj_4core3ops5range9RangeFullEs2_0Bc_
FNDA:1,_RNCINvMs4_NtNtCs6u9oDspvYRg_7qchrono8calendar13calendar_implNtB8_8Calendar11num_bizdaysINtNtNtCs2fyPGiZs4Bj_4core3ops5range14RangeInclusiveNtNtNtCs9T1gxOhu6ob_6chrono5naive4date9NaiveDateEEs3_0Bc_
FNDA:0,_RNCINvMs4_NtNtCs6u9oDspvYRg_7qchrono8calendar13calendar_implNtB8_8Calendar11num_bizdaysINtNtNtCs2fyPGiZs4Bj_4core3ops5range16RangeToInclusiveNtNtNtCs9T1gxOhu6ob_6chrono5naive4date9NaiveDateEEs3_0Bc_
FNDA:1,_RNCINvMs4_NtNtCs6u9oDspvYRg_7qchrono8calendar13calendar_implNtB8_8Calendar11num_bizdaysINtNtNtCs2fyPGiZs4Bj_4core3ops5range5RangeNtNtNtCs9T1gxOhu6ob_6chrono5naive4date9NaiveDateEEs3_0Bc_
FNDA:0,_RNCINvMs4_NtNtCs6u9oDspvYRg_7qchrono8calendar13calendar_implNtB8_8Calendar11num_bizdaysINtNtNtCs2fyPGiZs4Bj_4core3ops5range7RangeToNtNtNtCs9T1gxOhu6ob_6chrono5naive4date9NaiveDateEEs3_0Bc_
FNDA:0,_RNCINvMs4_NtNtCs6u9oDspvYRg_7qchrono8calendar13calendar_implNtB8_8Calendar11num_bizdaysINtNtNtCs2fyPGiZs4Bj_4core3ops5range9RangeFromNtNtNtCs9T1gxOhu6ob_6chrono5naive4date9NaiveDateEEs3_0Bc_
FNDA:0,_RNCINvMs4_NtNtCs6u9oDspvYRg_7qchrono8calendar13calendar_implNtB8_8Calendar11num_bizdaysNtNtNtCs2fyPGiZs4Bj_4core3ops5range9RangeFullEs3_0Bc_
FNDA:1,_RNCINvMs4_NtNtCs6u9oDspvYRg_7qchrono8calendar13calendar_implNtB8_8Calendar11num_bizdaysINtNtNtCs2fyPGiZs4Bj_4core3ops5range14RangeInclusiveNtNtNtCs9T1gxOhu6ob_6chrono5naive4date9NaiveDateEEs4_0Bc_
FNDA:0,_RNCINvMs4_NtNtCs6u9oDspvYRg_7qchrono8calendar13calendar_implNtB8_8Calendar11num_bizdaysINtNtNtCs2fyPGiZs4Bj_4core3ops5range16RangeToInclusiveNtNtNtCs9T1gxOhu6ob_6chrono5naive4date9NaiveDateEEs4_0Bc_
FNDA:1,_RNCINvMs4_NtNtCs6u9oDspvYRg_7qchrono8calendar13calendar_implNtB8_8Calendar11num_bizdaysINtNtNtCs2fyPGiZs4Bj_4core3ops5range5RangeNtNtNtCs9T1gxOhu6ob_6chrono5naive4date9NaiveDateEEs4_0Bc_
FNDA:0,_RNCINvMs4_NtNtCs6u9oDspvYRg_7qchrono8calendar13calendar_implNtB8_8Calendar11num_bizdaysINtNtNtCs2fyPGiZs4Bj_4core3ops5range7RangeToNtNtNtCs9T1gxOhu6ob_6chrono5naive4date9NaiveDateEEs4_0Bc_
FNDA:0,_RNCINvMs4_NtNtCs6u9oDspvYRg_7qchrono8calendar13calendar_implNtB8_8Calendar11num_bizdaysINtNtNtCs2fyPGiZs4Bj_4core3ops5range9RangeFromNtNtNtCs9T1gxOhu6ob_6chrono5naive4date9NaiveDateEEs4_0Bc_
FNDA:0,_RNCINvMs4_NtNtCs6u9oDspvYRg_7qchrono8calendar13calendar_implNtB8_8Calendar11num_bizdaysNtNtNtCs2fyPGiZs4Bj_4core3ops5range9RangeFullEs4_0Bc_
FNDA:1,_RNCINvMs4_NtNtCs6u9oDspvYRg_7qchrono8calendar13calendar_implNtB8_8Calendar11num_bizdaysINtNtNtCs2fyPGiZs4Bj_4core3ops5range14RangeInclusiveNtNtNtCs9T1gxOhu6ob_6chrono5naive4date9NaiveDateEEs5_0Bc_
FNDA:0,_RNCINvMs4_NtNtCs6u9oDspvYRg_7qchrono8calendar13calendar_implNtB8_8Calendar11num_bizdaysINtNtNtCs2fyPGiZs4Bj_4core3ops5range16RangeToInclusiveNtNtNtCs9T1gxOhu6ob_6chrono5naive4date9NaiveDateEEs5_0Bc_
FNDA:1,_RNCINvMs4_NtNtCs6u9oDspvYRg_7qchrono8calendar13calendar_implNtB8_8Calendar11num_bizdaysINtNtNtCs2fyPGiZs4Bj_4core3ops5range5RangeNtNtNtCs9T1gxOhu6ob_6chrono5naive4date9NaiveDateEEs5_0Bc_
FNDA:0,_RNCINvMs4_NtNtCs6u9oDspvYRg_7qchrono8calendar13calendar_implNtB8_8Calendar11num_bizdaysINtNtNtCs2fyPGiZs4Bj_4core3ops5range7RangeToNtNtNtCs9T1gxOhu6ob_6chrono5naive4date9NaiveDateEEs5_0Bc_
FNDA:0,_RNCINvMs4_NtNtCs6u9oDspvYRg_7qchrono8calendar13calendar_implNtB8_8Calendar11num_bizdaysINtNtNtCs2fyPGiZs4Bj_4core3ops5range9RangeFromNtNtNtCs9T1gxOhu6ob_6chrono5naive4date9NaiveDateEEs5_0Bc_
FNDA:0,_RNCINvMs4_NtNtCs6u9oDspvYRg_7qchrono8calendar13calendar_implNtB8_8Calendar11num_bizdaysNtNtNtCs2fyPGiZs4Bj_4core3ops5range9RangeFullEs5_0Bc_
FNDA:1,_RNCINvMs4_NtNtCs6u9oDspvYRg_7qchrono8calendar13calendar_implNtB8_8Calendar11num_bizdaysINtNtNtCs2fyPGiZs4Bj_4core3ops5range14RangeInclusiveNtNtNtCs9T1gxOhu6ob_6chrono5naive4date9NaiveDateEEs6_0Bc_
FNDA:0,_RNCINvMs4_NtNtCs6u9oDspvYRg_7qchrono8calendar13calendar_implNtB8_8Calendar11num_bizdaysINtNtNtCs2fyPGiZs4Bj_4core3ops5range16RangeToInclusiveNtNtNtCs9T1gxOhu6ob_6chrono5naive4date9NaiveDateEEs6_0Bc_
FNDA:1,_RNCINvMs4_NtNtCs6u9oDspvYRg_7qchrono8calendar13calendar_implNtB8_8Calendar11num_bizdaysINtNtNtCs2fyPGiZs4Bj_4core3ops5range5RangeNtNtNtCs9T1gxOhu6ob_6chrono5naive4date9NaiveDateEEs6_0Bc_
FNDA:0,_RNCINvMs4_NtNtCs6u9oDspvYRg_7qchrono8calendar13calendar_implNtB8_8Calendar11num_bizdaysINtNtNtCs2fyPGiZs4Bj_4core3ops5range7RangeToNtNtNtCs9T1gxOhu6ob_6chrono5naive4date9NaiveDateEEs6_0Bc_
FNDA:0,_RNCINvMs4_NtNtCs6u9oDspvYRg_7qchrono8calendar13calendar_implNtB8_8Calendar11num_bizdaysINtNtNtCs2fyPGiZs4Bj_4core3ops5range9RangeFromNtNtNtCs9T1gxOhu6ob_6chrono5naive4date9NaiveDateEEs6_0Bc_
FNDA:0,_RNCINvMs4_NtNtCs6u9oDspvYRg_7qchrono8calendar13calendar_implNtB8_8Calendar11num_bizdaysNtNtNtCs2fyPGiZs4Bj_4core3ops5range9RangeFullEs6_0Bc_
FNDA:36,_RNvMs4_NtNtCs6u9oDspvYRg_7qchrono8calendar13calendar_implNtB5_8Calendar10is_holidayB9_
FNDA:1862,_RNvMs4_NtNtCs6u9oDspvYRg_7qchrono8calendar13calendar_implNtB5_8Calendar9is_bizdayB9_
FNDA:2,_RNvMs4_NtNtCs6u9oDspvYRg_7qchrono8calendar13calendar_implNtB5_8Calendar12iter_bizdaysB9_
FNDA:18,_RNCNvMs4_NtNtCs6u9oDspvYRg_7qchrono8calendar13calendar_implNtB7_8Calendar12iter_bizdays0Bb_
FNDA:2,_RNvMs4_NtNtCs6u9oDspvYRg_7qchrono8calendar13calendar_implNtB5_8Calendar13iter_holidaysB9_
FNDA:18,_RNCNvMs4_NtNtCs6u9oDspvYRg_7qchrono8calendar13calendar_implNtB7_8Calendar13iter_holidays0Bb_
FNDA:3,_RNvXs5_NtNtCs6u9oDspvYRg_7qchrono8calendar13calendar_implNtB5_8CalendarNtNtNtCs2fyPGiZs4Bj_4core3ops3bit6BitAnd6bitand
FNDA:3,_RNvXs6_NtNtCs6u9oDspvYRg_7qchrono8calendar13calendar_implNtB5_8CalendarNtNtNtCs2fyPGiZs4Bj_4core3ops3bit5BitOr5bitor
FNDA:20,_RNvXs7_NtNtCs6u9oDspvYRg_7qchrono8calendar13calendar_implNtB5_12DateIteratorNtNtNtNtCs2fyPGiZs4Bj_4core4iter6traits8iterator8Iterator4nextB9_
FNDA:20,_RNvXs8_NtNtCs6u9oDspvYRg_7qchrono8calendar13calendar_implNtB5_12DateIteratorNtNtNtNtCs2fyPGiZs4Bj_4core4iter6traits12double_ended19DoubleEndedIterator9next_backB9_
FNDA:57,_RNvXs9_NtNtCs6u9oDspvYRg_7qchrono8calendar13calendar_implNtB5_15CalendarBuilderNtNtCs2fyPGiZs4Bj_4core7default7Default7defaultB9_
FNDA:57,_RNvMsa_NtNtCs6u9oDspvYRg_7qchrono8calendar13calendar_implNtB5_15CalendarBuilder3new
FNDA:57,_RNvMsb_NtNtCs6u9oDspvYRg_7qchrono8calendar13calendar_implINtB5_15CalendarBuilderuuNtNtNtCs9T1gxOhu6ob_6chrono5naive4date9NaiveDateE19with_extra_holidaysB9_
FNDA:57,_RNvMsc_NtNtCs6u9oDspvYRg_7qchrono8calendar13calendar_implINtB5_15CalendarBuilderINtNtCse0qyoMp9HeL_5alloc3vec3VecNtNtNtCs9T1gxOhu6ob_6chrono5naive4date9NaiveDateEuB1N_E24with_extra_business_daysB9_
FNDA:57,_RNvMsd_NtNtCs6u9oDspvYRg_7qchrono8calendar13calendar_implNtB5_15CalendarBuilder17with_valid_periodB9_
FNDA:57,_RNvMsf_NtNtCs6u9oDspvYRg_7qchrono8calendar13calendar_implINtB5_15CalendarBuilderINtNtCse0qyoMp9HeL_5alloc3vec3VecNtNtNtCs9T1gxOhu6ob_6chrono5naive4date9NaiveDateEB1g_B1N_E5build
FNDA:10,_RINvXNvXNvNvXNtNtCs6u9oDspvYRg_7qchrono8calendar13calendar_implNtBb_13__CalendarDataNtNtCshDylzWGrM8d_5serde2de11Deserialize11deserialize1__NtB8_5__DataB1k_11deserializeNtB3_14___FieldVisitorNtB1m_7Visitor9visit_strNtNtCsjMEqcGD1gYq_10serde_json5error5ErrorEBf_
FNDA:10,_RINvXs_NvXNvNvXNtNtCs6u9oDspvYRg_7qchrono8calendar13calendar_implNtBd_13__CalendarDataNtNtCshDylzWGrM8d_5serde2de11Deserialize11deserialize1__NtBa_5__DataB1m_11deserializeNtB5_7___FieldB1m_11deserializeNtNtNtCsjMEqcGD1gYq_10serde_json5value2de18MapKeyDeserializerEBh_
FNDA:0,_RNvXs0_NvXNvNvXNtNtCs6u9oDspvYRg_7qchrono8calendar13calendar_implNtBd_13__CalendarDataNtNtCshDylzWGrM8d_5serde2de11Deserialize11deserialize1__NtBa_5__DataB1m_11deserializeNtB5_9___VisitorNtB1o_7Visitor9expecting
FNDA:0,_RINvXs0_NvXNvNvXNtNtCs6u9oDspvYRg_7qchrono8calendar13calendar_implNtBe_13__CalendarDataNtNtCshDylzWGrM8d_5serde2de11Deserialize11deserialize1__NtBb_5__DataB1n_11deserializeNtB6_9___VisitorNtB1p_7Visitor9visit_seqQNtNtNtCsjMEqcGD1gYq_10serde_json5value2de15SeqDeserializerEBi_
FNDA:2,_RINvXs0_NvXNvNvXNtNtCs6u9oDspvYRg_7qchrono8calendar13calendar_implNtBe_13__CalendarDataNtNtCshDylzWGrM8d_5serde2de11Deserialize11deserialize1__NtBb_5__DataB1n_11deserializeNtB6_9___VisitorNtB1p_7Visitor9visit_mapQNtNtNtCsjMEqcGD1gYq_10serde_json5value2de15MapDeserializerEBi_
FNDA:179,_RNCNvMs_NtNtCs6u9oDspvYRg_7qchrono8calendar13calendar_implNtB6_13__CalendarData3new0Ba_
FNDA:109,_RNCNvMs_NtNtCs6u9oDspvYRg_7qchrono8calendar13calendar_implNtB6_13__CalendarData3news_0Ba_
FNDA:0,_RNCNvXNvNtNtCs6u9oDspvYRg_7qchrono8calendar13calendar_impls_1__NtB6_13__CalendarDataNtCsfZgeB9GPpUp_8schemars10JsonSchema11json_schema0Ba_
FNDA:0,_RNvXNvXNvNvXNtNtCs6u9oDspvYRg_7qchrono8calendar13calendar_implNtBa_13__CalendarDataNtNtCshDylzWGrM8d_5serde2de11Deserialize11deserialize1__NtB7_5__DataB1j_11deserializeNtB2_14___FieldVisitorNtB1l_7Visitor9expecting
FNDA:0,_RINvXNvXNvNvXNtNtCs6u9oDspvYRg_7qchrono8calendar13calendar_implNtBb_13__CalendarDataNtNtCshDylzWGrM8d_5serde2de11Deserialize11deserialize1__NtB8_5__DataB1k_11deserializeNtB3_14___FieldVisitorNtB1m_7Visitor9visit_u64pEBf_
FNDA:0,_RINvXNvXNvNvXNtNtCs6u9oDspvYRg_7qchrono8calendar13calendar_implNtBb_13__CalendarDataNtNtCshDylzWGrM8d_5serde2de11Deserialize11deserialize1__NtB8_5__DataB1k_11deserializeNtB3_14___FieldVisitorNtB1m_7Visitor11visit_bytespEBf_
FNDA:0,_RNvXsr_NtNtCs6u9oDspvYRg_7qchrono8calendar13calendar_implNtB5_13CalendarErrorNtNtCs2fyPGiZs4Bj_4core3fmt7Display3fmt
FNDA:0,_RNvXs2_NtNtCs6u9oDspvYRg_7qchrono8calendar13calendar_implNtB5_8CalendarNtCsfZgeB9GPpUp_8schemars10JsonSchema11schema_name
FNDA:0,_RNvXs2_NtNtCs6u9oDspvYRg_7qchrono8calendar13calendar_implNtB5_8CalendarNtCsfZgeB9GPpUp_8schemars10JsonSchema9schema_id
FNDA:0,_RNvXs2_NtNtCs6u9oDspvYRg_7qchrono8calendar13calendar_implNtB5_8CalendarNtCsfZgeB9GPpUp_8schemars10JsonSchema11json_schema
FNDA:0,_RNvMse_NtNtCs6u9oDspvYRg_7qchrono8calendar13calendar_implINtB5_15CalendarBuilderpupE23treat_weekend_as_bizdayB9_
FNDA:12,_RINvMs4_NtNtCs2bSmrEEol5z_7qchrono8calendar13calendar_implNtB6_8Calendar11num_bizdaysINtNtNtCs2fyPGiZs4Bj_4core3ops5range5RangeRNtNtNtCs9T1gxOhu6ob_6chrono5naive4date9NaiveDateEECslNfvs0bCstK_8qfincore
FNDA:0,_RNCINvMs4_NtNtCs2bSmrEEol5z_7qchrono8calendar13calendar_implNtB8_8Calendar11num_bizdaysINtNtNtCs2fyPGiZs4Bj_4core3ops5range5RangeRNtNtNtCs9T1gxOhu6ob_6chrono5naive4date9NaiveDateEE0CslNfvs0bCstK_8qfincore
FNDA:0,_RNCINvMs4_NtNtCs2bSmrEEol5z_7qchrono8calendar13calendar_implNtB8_8Calendar11num_bizdaysINtNtNtCs2fyPGiZs4Bj_4core3ops5range5RangeRNtNtNtCs9T1gxOhu6ob_6chrono5naive4date9NaiveDateEEs0_0CslNfvs0bCstK_8qfincore
FNDA:0,_RNCINvMs4_NtNtCs2bSmrEEol5z_7qchrono8calendar13calendar_implNtB8_8Calendar11num_bizdaysINtNtNtCs2fyPGiZs4Bj_4core3ops5range5RangeRNtNtNtCs9T1gxOhu6ob_6chrono5naive4date9NaiveDateEEs1_0CslNfvs0bCstK_8qfincore
FNDA:0,_RNCINvMs4_NtNtCs2bSmrEEol5z_7qchrono8calendar13calendar_implNtB8_8Calendar11num_bizdaysINtNtNtCs2fyPGiZs4Bj_4core3ops5range5RangeRNtNtNtCs9T1gxOhu6ob_6chrono5naive4date9NaiveDateEEs2_0CslNfvs0bCstK_8qfincore
FNDA:12,_RNCINvMs4_NtNtCs2bSmrEEol5z_7qchrono8calendar13calendar_implNtB8_8Calendar11num_bizdaysINtNtNtCs2fyPGiZs4Bj_4core3ops5range5RangeRNtNtNtCs9T1gxOhu6ob_6chrono5naive4date9NaiveDateEEs3_0CslNfvs0bCstK_8qfincore
FNDA:12,_RNCINvMs4_NtNtCs2bSmrEEol5z_7qchrono8calendar13calendar_implNtB8_8Calendar11num_bizdaysINtNtNtCs2fyPGiZs4Bj_4core3ops5range5RangeRNtNtNtCs9T1gxOhu6ob_6chrono5naive4date9NaiveDateEEs4_0CslNfvs0bCstK_8qfincore
FNDA:0,_RNCINvMs4_NtNtCs2bSmrEEol5z_7qchrono8calendar13calendar_implNtB8_8Calendar11num_bizdaysINtNtNtCs2fyPGiZs4Bj_4core3ops5range5RangeRNtNtNtCs9T1gxOhu6ob_6chrono5naive4date9NaiveDateEEs5_0CslNfvs0bCstK_8qfincore
FNDA:0,_RNCINvMs4_NtNtCs2bSmrEEol5z_7qchrono8calendar13calendar_implNtB8_8Calendar11num_bizdaysINtNtNtCs2fyPGiZs4Bj_4core3ops5range5RangeRNtNtNtCs9T1gxOhu6ob_6chrono5naive4date9NaiveDateEEs6_0CslNfvs0bCstK_8qfincore
FNDA:0,_RNCINvMs4_NtNtCs2bSmrEEol5z_7qchrono8calendar13calendar_implNtB8_8Calendar11num_bizdaysINtNtNtCs2fyPGiZs4Bj_4core3ops5range5RangeRNtNtNtCs9T1gxOhu6ob_6chrono5naive4date9NaiveDateEEs_0CslNfvs0bCstK_8qfincore
FNDA:9,_RNvMs3_NtNtCs2bSmrEEol5z_7qchrono8calendar13calendar_implNtB5_8Calendar7builderCslNfvs0bCstK_8qfincore
FNDA:24,_RNvMs4_NtNtCs2bSmrEEol5z_7qchrono8calendar13calendar_implNtB5_8Calendar12valid_periodCslNfvs0bCstK_8qfincore
FNDA:24,_RNvMs4_NtNtCs2bSmrEEol5z_7qchrono8calendar13calendar_implNtB5_8Calendar13extra_bizdaysCslNfvs0bCstK_8qfincore
FNDA:24,_RNvMs4_NtNtCs2bSmrEEol5z_7qchrono8calendar13calendar_implNtB5_8Calendar14extra_holidaysCslNfvs0bCstK_8qfincore
FNDA:12,_RNvMs4_NtNtCs2bSmrEEol5z_7qchrono8calendar13calendar_implNtB5_8Calendar23treat_weekend_as_bizdayCslNfvs0bCstK_8qfincore
FNDA:24,_RNvMs4_NtNtCs2bSmrEEol5z_7qchrono8calendar13calendar_implNtB5_8Calendar8validateCslNfvs0bCstK_8qfincore
FNDA:6,_RNvMsb_NtNtCs2bSmrEEol5z_7qchrono8calendar13calendar_implINtB5_15CalendarBuilderuINtNtCse0qyoMp9HeL_5alloc3vec3VecNtNtNtCs9T1gxOhu6ob_6chrono5naive4date9NaiveDateEB1O_E19with_extra_holidaysCslNfvs0bCstK_8qfincore
FNDA:3,_RNvMsb_NtNtCs2bSmrEEol5z_7qchrono8calendar13calendar_implINtB5_15CalendarBuilderuINtNtCse0qyoMp9HeL_5alloc3vec3VecNtNtNtCs9T1gxOhu6ob_6chrono5naive4date9NaiveDateEE19with_extra_holidaysCslNfvs0bCstK_8qfincore
FNDA:6,_RNvMsc_NtNtCs2bSmrEEol5z_7qchrono8calendar13calendar_implINtB5_15CalendarBuilderuuNtNtNtCs9T1gxOhu6ob_6chrono5naive4date9NaiveDateE24with_extra_business_daysCslNfvs0bCstK_8qfincore
FNDA:3,_RNvMsc_NtNtCs2bSmrEEol5z_7qchrono8calendar13calendar_implNtB5_15CalendarBuilder24with_extra_business_daysCslNfvs0bCstK_8qfincore
FNDA:3,_RNvMsd_NtNtCs2bSmrEEol5z_7qchrono8calendar13calendar_implINtB5_15CalendarBuilderINtNtCse0qyoMp9HeL_5alloc3vec3VecNtNtNtCs9T1gxOhu6ob_6chrono5naive4date9NaiveDateEB1g_E17with_valid_periodCslNfvs0bCstK_8qfincore
FNDA:6,_RNvMsd_NtNtCs2bSmrEEol5z_7qchrono8calendar13calendar_implNtB5_15CalendarBuilder17with_valid_periodCslNfvs0bCstK_8qfincore
FNDA:53,_RNvMs_NtNtCs2bSmrEEol5z_7qchrono8calendar13calendar_implNtB4_13__CalendarData3new
FNDA:1,_RNvXs2_NtNtCs2bSmrEEol5z_7qchrono8calendar13calendar_implNtB5_8CalendarNtCsfZgeB9GPpUp_8schemars10JsonSchema11schema_name
FNDA:1,_RNvXs2_NtNtCs2bSmrEEol5z_7qchrono8calendar13calendar_implNtB5_8CalendarNtCsfZgeB9GPpUp_8schemars10JsonSchema9schema_id
FNDA:1,_RNvXs2_NtNtCs2bSmrEEol5z_7qchrono8calendar13calendar_implNtB5_8CalendarNtCsfZgeB9GPpUp_8schemars10JsonSchema11json_schema
FNDA:53,_RNvMs3_NtNtCs2bSmrEEol5z_7qchrono8calendar13calendar_implNtB5_8Calendar4__new
FNDA:0,_RINvMs3_NtNtCs2bSmrEEol5z_7qchrono8calendar13calendar_implNtB6_8Calendar13any_closed_ofABU_j2_EBa_
FNDA:15,_RINvMs3_NtNtCs2bSmrEEol5z_7qchrono8calendar13calendar_implNtB6_8Calendar13any_closed_ofINtCs1TWK2DdqTCU_8smallvec8SmallVecABU_j5_EEBa_
FNDA:0,_RNCINvMs3_NtNtCs2bSmrEEol5z_7qchrono8calendar13calendar_implNtB8_8Calendar13any_closed_ofABW_j2_E0Bc_
FNDA:0,_RNCINvMs3_NtNtCs2bSmrEEol5z_7qchrono8calendar13calendar_implNtB8_8Calendar13any_closed_ofINtCs1TWK2DdqTCU_8smallvec8SmallVecABW_j5_EE0Bc_
FNDA:0,_RINvMs3_NtNtCs2bSmrEEol5z_7qchrono8calendar13calendar_implNtB6_8Calendar13all_closed_ofABU_j2_EBa_
FNDA:0,_RINvMs3_NtNtCs2bSmrEEol5z_7qchrono8calendar13calendar_implNtB6_8Calendar13all_closed_ofINtCs1TWK2DdqTCU_8smallvec8SmallVecABU_j5_EEBa_
FNDA:0,_RNCINvMs3_NtNtCs2bSmrEEol5z_7qchrono8calendar13calendar_implNtB8_8Calendar13all_closed_ofABW_j2_E0Bc_
FNDA:0,_RNCINvMs3_NtNtCs2bSmrEEol5z_7qchrono8calendar13calendar_implNtB8_8Calendar13all_closed_ofINtCs1TWK2DdqTCU_8smallvec8SmallVecABW_j5_EE0Bc_
FNDA:32,_RNvMs4_NtNtCs2bSmrEEol5z_7qchrono8calendar13calendar_implNtB5_8Calendar12valid_periodB9_
FNDA:32,_RNvMs4_NtNtCs2bSmrEEol5z_7qchrono8calendar13calendar_implNtB5_8Calendar8validateB9_
FNDA:32,_RNvMs4_NtNtCs2bSmrEEol5z_7qchrono8calendar13calendar_implNtB5_8Calendar23treat_weekend_as_bizdayB9_
FNDA:32,_RNvMs4_NtNtCs2bSmrEEol5z_7qchrono8calendar13calendar_implNtB5_8Calendar9is_bizdayB9_
FNDA:0,_RNvMs4_NtNtCs2bSmrEEol5z_7qchrono8calendar13calendar_implNtB5_8Calendar12iter_bizdaysB9_
FNDA:26,_RNCNvMs4_NtNtCs2bSmrEEol5z_7qchrono8calendar13calendar_implNtB7_8Calendar12iter_bizdays0Bb_
FNDA:0,_RNvXs5_NtNtCs2bSmrEEol5z_7qchrono8calendar13calendar_implNtB5_8CalendarNtNtNtCs2fyPGiZs4Bj_4core3ops3bit6BitAnd6bitand
FNDA:0,_RNvXs6_NtNtCs2bSmrEEol5z_7qchrono8calendar13calendar_implNtB5_8CalendarNtNtNtCs2fyPGiZs4Bj_4core3ops3bit5BitOr5bitor
FNDA:26,_RNvXs7_NtNtCs2bSmrEEol5z_7qchrono8calendar13calendar_implNtB5_12DateIteratorNtNtNtNtCs2fyPGiZs4Bj_4core4iter6traits8iterator8Iterator4nextB9_
FNDA:0,_RNvXs8_NtNtCs2bSmrEEol5z_7qchrono8calendar13calendar_implNtB5_12DateIteratorNtNtNtNtCs2fyPGiZs4Bj_4core4iter6traits12double_ended19DoubleEndedIterator9next_backB9_
FNDA:38,_RNvXs9_NtNtCs2bSmrEEol5z_7qchrono8calendar13calendar_implNtB5_15CalendarBuilderNtNtCs2fyPGiZs4Bj_4core7default7Default7defaultB9_
FNDA:38,_RNvMsa_NtNtCs2bSmrEEol5z_7qchrono8calendar13calendar_implNtB5_15CalendarBuilder3new
FNDA:38,_RNvMsf_NtNtCs2bSmrEEol5z_7qchrono8calendar13calendar_implINtB5_15CalendarBuilderINtNtCse0qyoMp9HeL_5alloc3vec3VecNtNtNtCs9T1gxOhu6ob_6chrono5naive4date9NaiveDateEB1g_B1N_E5build
FNDA:1,_RNCNvXNvNtNtCs2bSmrEEol5z_7qchrono8calendar13calendar_impls_1__NtB6_13__CalendarDataNtCsfZgeB9GPpUp_8schemars10JsonSchema11json_schema0Ba_
FNDA:0,_RNvXNvXNvNvXNtNtCs2bSmrEEol5z_7qchrono8calendar13calendar_implNtBa_13__CalendarDataNtNtCshDylzWGrM8d_5serde2de11Deserialize11deserialize1__NtB7_5__DataB1j_11deserializeNtB2_14___FieldVisitorNtB1l_7Visitor9expecting
FNDA:0,_RNvXs0_NvXNvNvXNtNtCs2bSmrEEol5z_7qchrono8calendar13calendar_implNtBd_13__CalendarDataNtNtCshDylzWGrM8d_5serde2de11Deserialize11deserialize1__NtBa_5__DataB1m_11deserializeNtB5_9___VisitorNtB1o_7Visitor9expecting
FNDA:6,_RNCNvMs_NtNtCs2bSmrEEol5z_7qchrono8calendar13calendar_implNtB6_13__CalendarData3new0Ba_
FNDA:0,_RNCNvMs_NtNtCs2bSmrEEol5z_7qchrono8calendar13calendar_implNtB6_13__CalendarData3news_0Ba_
FNDA:0,_RNvXsr_NtNtCs2bSmrEEol5z_7qchrono8calendar13calendar_implNtB5_13CalendarErrorNtNtCs2fyPGiZs4Bj_4core3fmt7Display3fmt
FNDA:0,_RINvXNtNtCs2bSmrEEol5z_7qchrono8calendar13calendar_implNtB3_13__CalendarDataNtNtCshDylzWGrM8d_5serde2de11Deserialize11deserializepEB7_
FNDA:0,_RINvXNvXNvNvXNtNtCs2bSmrEEol5z_7qchrono8calendar13calendar_implNtBb_13__CalendarDataNtNtCshDylzWGrM8d_5serde2de11Deserialize11deserialize1__NtB8_5__DataB1k_11deserializeNtB3_14___FieldVisitorNtB1m_7Visitor9visit_u64pEBf_
FNDA:0,_RINvXNvXNvNvXNtNtCs2bSmrEEol5z_7qchrono8calendar13calendar_implNtBb_13__CalendarDataNtNtCshDylzWGrM8d_5serde2de11Deserialize11deserialize1__NtB8_5__DataB1k_11deserializeNtB3_14___FieldVisitorNtB1m_7Visitor9visit_strpEBf_
FNDA:0,_RINvXNvXNvNvXNtNtCs2bSmrEEol5z_7qchrono8calendar13calendar_implNtBb_13__CalendarDataNtNtCshDylzWGrM8d_5serde2de11Deserialize11deserialize1__NtB8_5__DataB1k_11deserializeNtB3_14___FieldVisitorNtB1m_7Visitor11visit_bytespEBf_
FNDA:0,_RINvXs_NvXNvNvXNtNtCs2bSmrEEol5z_7qchrono8calendar13calendar_implNtBd_13__CalendarDataNtNtCshDylzWGrM8d_5serde2de11Deserialize11deserialize1__NtBa_5__DataB1m_11deserializeNtB5_7___FieldB1m_11deserializepEBh_
FNDA:0,_RINvXs0_NvXNvNvXNtNtCs2bSmrEEol5z_7qchrono8calendar13calendar_implNtBe_13__CalendarDataNtNtCshDylzWGrM8d_5serde2de11Deserialize11deserialize1__NtBb_5__DataB1n_11deserializeNtB6_9___VisitorNtB1p_7Visitor9visit_seqpEBi_
FNDA:0,_RINvXs0_NvXNvNvXNtNtCs2bSmrEEol5z_7qchrono8calendar13calendar_implNtBe_13__CalendarDataNtNtCshDylzWGrM8d_5serde2de11Deserialize11deserialize1__NtBb_5__DataB1n_11deserializeNtB6_9___VisitorNtB1p_7Visitor9visit_mappEBi_
FNDA:0,_RINvXs0_NtNtCs2bSmrEEol5z_7qchrono8calendar13calendar_implNtB6_8CalendarNtNtCshDylzWGrM8d_5serde3ser9Serialize9serializepEBa_
FNDA:0,_RINvXs1_NtNtCs2bSmrEEol5z_7qchrono8calendar13calendar_implNtB6_8CalendarNtNtCshDylzWGrM8d_5serde2de11Deserialize11deserializepEBa_
FNDA:0,_RNvMs3_NtNtCs2bSmrEEol5z_7qchrono8calendar13calendar_implNtB5_8Calendar7builderB9_
FNDA:0,_RNvMs4_NtNtCs2bSmrEEol5z_7qchrono8calendar13calendar_implNtB5_8Calendar14extra_holidaysB9_
FNDA:0,_RNvMs4_NtNtCs2bSmrEEol5z_7qchrono8calendar13calendar_implNtB5_8Calendar13extra_bizdaysB9_
FNDA:0,_RINvMs4_NtNtCs2bSmrEEol5z_7qchrono8calendar13calendar_implNtB6_8Calendar11num_bizdayspEBa_
FNDA:0,_RNCINvMs4_NtNtCs2bSmrEEol5z_7qchrono8calendar13calendar_implNtB8_8Calendar11num_bizdayspE0Bc_
FNDA:0,_RNCINvMs4_NtNtCs2bSmrEEol5z_7qchrono8calendar13calendar_implNtB8_8Calendar11num_bizdayspEs_0Bc_
FNDA:0,_RNCINvMs4_NtNtCs2bSmrEEol5z_7qchrono8calendar13calendar_implNtB8_8Calendar11num_bizdayspEs0_0Bc_
FNDA:0,_RNCINvMs4_NtNtCs2bSmrEEol5z_7qchrono8calendar13calendar_implNtB8_8Calendar11num_bizdayspEs1_0Bc_
FNDA:0,_RNCINvMs4_NtNtCs2bSmrEEol5z_7qchrono8calendar13calendar_implNtB8_8Calendar11num_bizdayspEs2_0Bc_
FNDA:0,_RNCINvMs4_NtNtCs2bSmrEEol5z_7qchrono8calendar13calendar_implNtB8_8Calendar11num_bizdayspEs3_0Bc_
FNDA:0,_RNCINvMs4_NtNtCs2bSmrEEol5z_7qchrono8calendar13calendar_implNtB8_8Calendar11num_bizdayspEs4_0Bc_
FNDA:0,_RNCINvMs4_NtNtCs2bSmrEEol5z_7qchrono8calendar13calendar_implNtB8_8Calendar11num_bizdayspEs5_0Bc_
FNDA:0,_RNCINvMs4_NtNtCs2bSmrEEol5z_7qchrono8calendar13calendar_implNtB8_8Calendar11num_bizdayspEs6_0Bc_
FNDA:0,_RNvMs4_NtNtCs2bSmrEEol5z_7qchrono8calendar13calendar_implNtB5_8Calendar10is_holidayB9_
FNDA:0,_RNvMs4_NtNtCs2bSmrEEol5z_7qchrono8calendar13calendar_implNtB5_8Calendar13iter_holidaysB9_
FNDA:0,_RNCNvMs4_NtNtCs2bSmrEEol5z_7qchrono8calendar13calendar_implNtB7_8Calendar13iter_holidays0Bb_
FNDA:0,_RNvMsb_NtNtCs2bSmrEEol5z_7qchrono8calendar13calendar_implINtB5_15CalendarBuilderuppE19with_extra_holidaysB9_
FNDA:0,_RNvMsc_NtNtCs2bSmrEEol5z_7qchrono8calendar13calendar_implINtB5_15CalendarBuilderpupE24with_extra_business_daysB9_
FNDA:0,_RNvMsd_NtNtCs2bSmrEEol5z_7qchrono8calendar13calendar_implINtB5_15CalendarBuilderppE17with_valid_periodB9_
FNDA:0,_RNvMse_NtNtCs2bSmrEEol5z_7qchrono8calendar13calendar_implINtB5_15CalendarBuilderpupE23treat_weekend_as_bizdayB9_
FNDA:29,_RNvMs3_NtNtCs2bSmrEEol5z_7qchrono8calendar13calendar_implNtB5_8Calendar7builderCsg8mytIw4ZXd_6qmodel
FNDA:29,_RNvMsb_NtNtCs2bSmrEEol5z_7qchrono8calendar13calendar_implINtB5_15CalendarBuilderuINtNtCse0qyoMp9HeL_5alloc3vec3VecNtNtNtCs9T1gxOhu6ob_6chrono5naive4date9NaiveDateEE19with_extra_holidaysCsg8mytIw4ZXd_6qmodel
FNDA:29,_RNvMsc_NtNtCs2bSmrEEol5z_7qchrono8calendar13calendar_implNtB5_15CalendarBuilder24with_extra_business_daysCsg8mytIw4ZXd_6qmodel
FNDA:29,_RNvMsd_NtNtCs2bSmrEEol5z_7qchrono8calendar13calendar_implINtB5_15CalendarBuilderINtNtCse0qyoMp9HeL_5alloc3vec3VecNtNtNtCs9T1gxOhu6ob_6chrono5naive4date9NaiveDateEB1g_E17with_valid_periodCsg8mytIw4ZXd_6qmodel
FNDA:6,_RNvMs4_NtNtCs2bSmrEEol5z_7qchrono8calendar13calendar_implNtB5_8Calendar12iter_bizdaysCs4yCwz0hjEDq_8qfincore
FNF:94
FNH:89
DA:14,1
DA:42,2
DA:43,2
DA:44,2
DA:45,2
DA:46,12
DA:55,2
DA:56,2
DA:57,2
DA:58,2
DA:59,2
DA:60,2
DA:61,2
DA:62,2
DA:63,2
DA:64,2
DA:71,462
DA:72,462
DA:73,462
DA:74,462
DA:75,462
DA:76,462
DA:77,462
DA:78,462
DA:79,462
DA:80,1
DA:83,461
DA:84,461
DA:85,461
DA:86,461
DA:90,461
DA:91,461
DA:92,1
DA:95,460
DA:96,460
DA:97,373
DA:98,373
DA:99,373
DA:100,1
DA:103,459
DA:104,459
DA:105,459
DA:106,459
DA:107,1
DA:109,458
DA:110,458
DA:111,458
DA:112,458
DA:113,458
DA:114,458
DA:115,458
DA:116,462
DA:122,0
DA:232,1
DA:233,1
DA:234,1
DA:235,1
DA:236,1
DA:237,1
DA:242,2
DA:243,2
DA:244,2
DA:245,2
DA:246,2
DA:247,2
DA:248,2
DA:252,1
DA:253,1
DA:254,1
DA:255,1
DA:256,1
DA:257,1
DA:258,1
DA:259,1
DA:260,1
DA:267,460
DA:268,460
DA:269,460
DA:270,460
DA:271,460
DA:272,460
DA:273,460
DA:274,460
DA:275,460
DA:276,460
DA:277,460
DA:278,460
DA:279,460
DA:280,460
DA:281,460
DA:282,460
DA:283,460
DA:287,95
DA:288,95
DA:289,95
DA:302,27
DA:303,27
DA:304,27
DA:305,27
DA:306,27
DA:307,27
DA:308,27
DA:309,27
DA:310,27
DA:312,77
DA:313,50
DA:314,50
DA:315,24
DA:316,26
DA:317,26
DA:318,26
DA:319,50
DA:320,50
DA:321,50
DA:322,46
DA:323,24
DA:324,22
DA:325,22
DA:326,22
DA:328,4
DA:329,50
DA:330,50
DA:332,27
DA:334,26
DA:335,26
DA:337,2
DA:339,24
DA:341,26
DA:342,26
DA:343,26
DA:344,26
DA:345,26
DA:346,26
DA:347,27
DA:360,11
DA:361,11
DA:362,11
DA:363,11
DA:364,11
DA:365,11
DA:366,11
DA:367,11
DA:368,11
DA:370,29
DA:371,18
DA:372,18
DA:373,8
DA:374,10
DA:375,10
DA:376,10
DA:377,18
DA:378,15
DA:379,15
DA:381,18
DA:382,10
DA:383,8
DA:384,10
DA:385,8
DA:387,18
DA:388,18
DA:390,11
DA:392,1
DA:395,10
DA:396,10
DA:398,2
DA:400,8
DA:402,10
DA:403,10
DA:404,10
DA:405,10
DA:406,10
DA:407,10
DA:408,11
DA:424,2764
DA:425,2764
DA:426,2764
DA:429,2252
DA:430,2252
DA:431,509
DA:432,509
DA:433,509
DA:434,509
DA:436,1743
DA:438,2252
DA:442,41
DA:443,41
DA:444,41
DA:448,37
DA:449,37
DA:450,37
DA:454,1699
DA:455,1699
DA:456,1699
DA:490,624
DA:491,624
DA:492,624
DA:493,624
DA:494,624
DA:495,624
DA:497,100
DA:498,100
DA:499,100
DA:501,256
DA:502,268
DA:503,0
DA:504,0
DA:505,268
DA:509,268
DA:510,0
DA:511,268
DA:512,0
DA:513,0
DA:514,0
DA:515,0
DA:516,0
DA:517,0
DA:518,0
DA:521,49
DA:522,0
DA:523,20
DA:524,20
DA:525,3
DA:526,3
DA:527,0
DA:528,0
DA:529,3
DA:530,29
DA:531,29
DA:532,0
DA:533,0
DA:534,0
DA:535,0
DA:536,29
DA:537,14
DA:541,17
DA:542,4
DA:543,3
DA:544,2
DA:545,2
DA:546,2
DA:547,15
DA:548,15
DA:549,15
DA:550,15
DA:551,15
DA:552,15
DA:553,15
DA:554,15
DA:555,15
DA:556,15
DA:557,15
DA:558,15
DA:559,15
DA:560,15
DA:561,15
DA:562,9
DA:563,4
DA:564,2
DA:566,15
DA:567,15
DA:568,15
DA:569,624
DA:575,36
DA:576,36
DA:577,30
DA:578,27
DA:580,30
DA:581,9
DA:583,21
DA:585,36
DA:591,1894
DA:592,1894
DA:593,1645
DA:594,1551
DA:596,1645
DA:597,439
DA:599,1206
DA:601,1894
DA:634,8
DA:635,8
DA:636,8
DA:637,8
DA:638,8
DA:639,8
DA:640,8
DA:641,8
DA:642,8
DA:643,44
DA:644,8
DA:675,2
DA:676,2
DA:677,2
DA:678,2
DA:679,2
DA:680,2
DA:681,2
DA:682,2
DA:683,2
DA:684,18
DA:685,2
DA:694,3
DA:695,3
DA:696,3
DA:702,3
DA:703,3
DA:704,3
DA:720,46
DA:721,46
DA:722,2
DA:723,44
DA:724,44
DA:725,44
DA:726,44
DA:727,46
DA:731,20
DA:732,20
DA:733,2
DA:734,18
DA:735,18
DA:736,18
DA:737,18
DA:738,20
DA:787,95
DA:788,95
DA:789,95
DA:790,95
DA:791,95
DA:792,95
DA:793,95
DA:794,95
DA:795,95
DA:799,95
DA:800,95
DA:801,95
DA:808,95
DA:809,95
DA:810,95
DA:811,95
DA:812,95
DA:813,95
DA:814,95
DA:815,95
DA:816,95
DA:817,95
DA:818,95
DA:819,95
DA:826,95
DA:827,95
DA:828,95
DA:829,95
DA:830,95
DA:831,95
DA:832,95
DA:833,95
DA:834,95
DA:835,95
DA:836,95
DA:837,95
DA:845,95
DA:846,95
DA:847,95
DA:848,95
DA:849,95
DA:850,95
DA:851,95
DA:852,95
DA:853,95
DA:854,95
DA:855,95
DA:856,95
DA:857,95
DA:864,0
DA:865,0
DA:866,0
DA:867,0
DA:868,0
DA:869,0
DA:870,0
DA:871,0
DA:872,0
DA:873,0
DA:883,95
DA:884,95
DA:885,95
DA:886,95
DA:887,95
DA:888,95
DA:889,95
DA:890,95
DA:891,95
DA:900,1215
DA:901,1215
DA:902,1215
DA:905,1
DA:906,1
DA:907,1
DA:908,1
DA:909,1
DA:910,1
DA:911,1
DA:912,1
DA:913,1
DA:914,1
DA:915,1
DA:918,1
DA:919,1
DA:920,1
DA:921,1
DA:922,1
DA:923,1
DA:924,1
DA:925,1
DA:926,1
DA:927,1
DA:928,1
DA:931,1
DA:932,1
DA:933,1
DA:934,1
DA:935,1
DA:936,1
DA:937,1
DA:938,1
DA:939,1
DA:940,1
DA:941,1
DA:944,1
DA:945,1
DA:946,1
DA:947,1
DA:948,1
DA:949,1
DA:950,1
DA:951,1
DA:952,1
DA:953,1
DA:954,1
DA:957,1
DA:958,1
DA:959,1
DA:960,1
DA:961,1
DA:962,1
DA:963,1
DA:964,1
DA:965,1
DA:966,1
DA:967,1
DA:970,1
DA:971,1
DA:972,1
DA:973,1
DA:974,1
DA:975,1
DA:976,1
DA:977,1
DA:978,1
DA:979,1
DA:980,1
DA:983,1
DA:984,1
DA:985,1
DA:986,1
DA:987,1
DA:988,1
DA:989,1
DA:990,1
DA:991,1
DA:992,1
DA:993,1
DA:996,1
DA:997,1
DA:998,1
DA:999,1
DA:1000,1
DA:1001,1
DA:1002,1
DA:1003,1
DA:1004,1
DA:1005,1
DA:1006,1
DA:1009,1
DA:1010,1
DA:1011,1
DA:1012,1
DA:1013,1
DA:1014,1
DA:1015,1
DA:1016,1
DA:1017,1
DA:1018,1
DA:1019,1
DA:1020,1
DA:1021,1
DA:1022,1
DA:1023,1
DA:1024,1
DA:1025,1
DA:1026,1
DA:1027,1
DA:1028,1
DA:1029,1
DA:1030,1
DA:1031,1
DA:1034,1
DA:1035,1
DA:1036,1
DA:1037,1
DA:1038,1
DA:1039,1
DA:1040,1
DA:1041,1
DA:1042,1
DA:1043,1
DA:1044,1
DA:1045,1
DA:1046,1
DA:1047,1
DA:1048,1
DA:1049,1
DA:1050,1
DA:1051,1
DA:1052,1
DA:1053,1
DA:1054,1
DA:1055,1
DA:1058,1
DA:1059,1
DA:1060,1
DA:1061,1
DA:1062,1
DA:1063,1
DA:1064,1
DA:1065,1
DA:1066,1
DA:1067,1
DA:1068,1
DA:1069,1
DA:1070,1
DA:1071,1
DA:1072,1
DA:1073,1
DA:1074,1
DA:1075,1
DA:1076,1
DA:1077,1
DA:1078,1
DA:1079,1
DA:1082,1
DA:1083,1
DA:1084,1
DA:1085,1
DA:1086,1
DA:1089,1
DA:1090,1
DA:1091,1
DA:1092,1
DA:1093,1
DA:1094,1
DA:1095,1
DA:1096,1
DA:1097,1
DA:1098,1
DA:1099,1
DA:1100,1
DA:1101,1
DA:1102,1
DA:1105,1
DA:1106,1
DA:1107,1
DA:1108,1
DA:1109,1
DA:1110,1
DA:1111,1
DA:1112,1
DA:1113,1
DA:1114,1
DA:1115,1
DA:1116,1
DA:1117,1
DA:1118,1
DA:1121,1
DA:1122,1
DA:1123,1
DA:1124,1
DA:1125,1
DA:1126,1
DA:1127,1
DA:1128,1
DA:1129,1
DA:1130,1
DA:1131,1
DA:1132,1
DA:1133,1
DA:1134,1
DA:1135,1
DA:1136,1
DA:1137,1
DA:1138,1
DA:1139,1
DA:1140,1
DA:1141,1
DA:1142,1
DA:1143,1
DA:1144,1
DA:1147,1
DA:1148,1
DA:1149,1
DA:1150,1
DA:1151,1
DA:1152,1
DA:1153,1
DA:1154,1
DA:1155,1
DA:1156,1
DA:1157,1
DA:1158,1
DA:1159,1
DA:1160,1
DA:1161,1
DA:1162,1
DA:1163,1
DA:1164,1
DA:1165,1
DA:1166,1
DA:1167,1
DA:1168,1
DA:1169,1
DA:1170,1
DA:1173,1
DA:1174,1
DA:1175,1
DA:1176,1
DA:1177,1
DA:1178,1
DA:1179,1
DA:1180,1
DA:1181,1
DA:1182,1
DA:1183,1
DA:1184,1
DA:1185,1
DA:1186,1
DA:1187,1
DA:1188,1
DA:1189,1
DA:1190,1
DA:1191,1
DA:1192,1
DA:1193,1
DA:1194,1
DA:1195,1
DA:1196,1
DA:1199,1
DA:1200,1
DA:1201,1
DA:1202,1
DA:1203,1
DA:1206,1
DA:1207,1
DA:1208,1
DA:1209,1
DA:1210,1
DA:1211,1
DA:1212,1
DA:1213,1
DA:1214,1
DA:1215,1
DA:1216,1
DA:1217,1
DA:1218,1
DA:1219,1
DA:1222,1
DA:1223,1
DA:1224,1
DA:1225,1
DA:1226,1
DA:1227,1
DA:1228,1
DA:1229,1
DA:1230,1
DA:1231,1
DA:1232,1
DA:1233,1
DA:1234,1
DA:1235,1
DA:1238,1
DA:1239,1
DA:1240,1
DA:1241,1
DA:1242,1
DA:1243,1
DA:1244,1
DA:1245,1
DA:1246,1
DA:1247,1
DA:1248,1
DA:1249,1
DA:1250,1
DA:1251,1
DA:1252,1
DA:1253,1
DA:1254,1
DA:1255,1
DA:1256,1
DA:1257,1
DA:1258,1
DA:1259,1
DA:1260,1
DA:1261,1
DA:1264,1
DA:1265,1
DA:1266,1
DA:1267,1
DA:1268,1
DA:1269,1
DA:1270,1
DA:1271,1
DA:1272,1
DA:1273,1
DA:1274,1
DA:1275,1
DA:1276,1
DA:1277,1
DA:1278,1
DA:1279,1
DA:1280,1
DA:1281,1
DA:1282,1
DA:1283,1
DA:1284,1
DA:1285,1
DA:1286,1
DA:1287,1
DA:1290,1
DA:1291,1
DA:1292,1
DA:1293,1
DA:1294,1
DA:1295,1
DA:1296,1
DA:1297,1
DA:1298,1
DA:1299,1
DA:1300,1
DA:1303,1
DA:1304,1
DA:1305,1
DA:1306,1
DA:1307,1
DA:1308,1
DA:1309,1
DA:1310,1
DA:1311,1
DA:1314,1
DA:1315,1
DA:1316,1
DA:1317,1
DA:1318,1
DA:1319,1
DA:1320,1
DA:1321,1
DA:1322,1
DA:1323,1
DA:1324,1
DA:1325,1
DA:1326,1
DA:1327,1
DA:1328,1
DA:1329,1
DA:1330,1
DA:1331,1
DA:1332,1
DA:1333,1
DA:1334,1
DA:1335,1
DA:1336,1
DA:1339,1
DA:1340,1
DA:1341,1
DA:1342,1
DA:1343,1
DA:1344,1
DA:1345,1
DA:1346,1
DA:1347,1
DA:1348,1
DA:1349,1
DA:1350,1
DA:1351,1
DA:1352,1
DA:1353,1
DA:1354,1
DA:1355,1
DA:1358,1
DA:1359,1
DA:1360,1
DA:1361,1
DA:1362,1
DA:1363,1
DA:1364,1
DA:1365,1
DA:1366,1
DA:1367,1
DA:1368,1
DA:1369,1
DA:1370,1
DA:1371,1
DA:1372,1
DA:1373,1
DA:1374,1
DA:1375,1
DA:1376,1
DA:1377,1
DA:1378,1
DA:1381,1
DA:1382,1
DA:1383,1
DA:1384,1
DA:1385,1
DA:1386,1
DA:1387,1
DA:1388,1
DA:1389,1
DA:1390,1
DA:1391,1
DA:1392,1
DA:1393,1
DA:1394,1
DA:1395,1
DA:1398,1
DA:1399,1
DA:1400,1
DA:1401,1
DA:1402,1
DA:1403,1
DA:1404,1
DA:1405,1
DA:1406,1
DA:1407,1
DA:1408,1
DA:1409,1
DA:1410,1
DA:1411,1
DA:1412,1
DA:1413,1
DA:1414,1
DA:1415,1
DA:1416,1
DA:1417,1
DA:1420,1
DA:1421,1
DA:1422,1
DA:1423,1
DA:1424,1
DA:1425,1
DA:1426,1
DA:1427,1
DA:1428,1
DA:1429,1
DA:1430,1
DA:1431,1
DA:1432,1
DA:1433,1
DA:1434,1
DA:1435,1
DA:1436,1
DA:1437,1
DA:1438,1
DA:1439,1
DA:1442,1
DA:1443,1
DA:1444,1
DA:1445,1
DA:1446,1
DA:1447,1
DA:1448,1
DA:1449,1
DA:1450,1
DA:1451,1
DA:1452,1
DA:1453,1
DA:1454,1
DA:1455,1
DA:1456,1
DA:1457,1
DA:1458,1
DA:1461,1
DA:1462,1
DA:1463,1
DA:1464,1
DA:1465,1
DA:1466,1
DA:1467,1
DA:1468,1
DA:1469,1
DA:1470,1
DA:1471,1
DA:1472,1
DA:1473,1
DA:1474,1
DA:1475,1
DA:1476,1
DA:1477,1
DA:1480,292
DA:1587,1014
DA:1588,900
DA:1590,146
DA:1598,1017
DA:1599,930
DA:1601,115
DA:1613,1
DA:1614,1
DA:1615,1
DA:1616,1
DA:1617,1
DA:1618,1
DA:1619,1
DA:1620,1
DA:1621,1
DA:1622,1
DA:1623,1
DA:1624,1
DA:1625,1
DA:1626,1
DA:1627,1
DA:1628,1
DA:1629,1
DA:1630,1
DA:1631,1
DA:1632,1
DA:1633,1
DA:1634,1
DA:1637,1
DA:1638,1
DA:1639,1
DA:1640,1
DA:1641,1
DA:1642,1
DA:1643,1
DA:1644,1
DA:1645,1
DA:1646,1
DA:1647,1
DA:1648,1
DA:1649,1
DA:1650,1
DA:1651,1
DA:1652,1
DA:1653,1
DA:1654,1
DA:1655,1
DA:1656,1
DA:1657,1
DA:1658,1
BRF:0
BRH:0
LF:975
LH:930
end_of_record
SF:/home/runner/work/qrs/qrs/libs/core/qchrono/src/calendar/data_src.rs
FN:13,_RNvYNtNtNtNtCs6u9oDspvYRg_7qchrono8calendar8data_src5tests7MockSrcNtB6_11CalendarSrc12get_calendarBa_
FN:68,_RNvNtNtNtCs6u9oDspvYRg_7qchrono8calendar8data_src5tests7get_cal
FN:100,_RNCNvNtNtNtCs6u9oDspvYRg_7qchrono8calendar8data_src5tests7get_cal0B9_
FN:104,_RNvMNtNtNtCs6u9oDspvYRg_7qchrono8calendar8data_src5testsNtB2_7MockSrc15with_call_count
FN:110,_RNvMNtNtNtCs6u9oDspvYRg_7qchrono8calendar8data_src5testsNtB2_7MockSrc5setup
FN:55,_RNvXs_NtNtNtCs6u9oDspvYRg_7qchrono8calendar8data_src5testsNtB4_7MockSrcNtNtCs2fyPGiZs4Bj_4core7default7Default7default
FN:55,_RNvXs0_NtNtNtCs6u9oDspvYRg_7qchrono8calendar8data_src5testsNtB5_19MockSrc_CalendarSrcNtNtCs2fyPGiZs4Bj_4core7default7Default7default
FN:55,_RNvMs1_NtNtNtCs6u9oDspvYRg_7qchrono8calendar8data_src5testsNtB5_19MockSrc_CalendarSrc10checkpoint
FN:55,_RNvMs2_NtNtNtCs6u9oDspvYRg_7qchrono8calendar8data_src5testsNtB5_7MockSrc10checkpoint
FN:55,_RNvMs2_NtNtNtCs6u9oDspvYRg_7qchrono8calendar8data_src5testsNtB5_7MockSrc3new
FN:55,_RNvXs3_NtNtNtCs6u9oDspvYRg_7qchrono8calendar8data_src5testsNtB5_7MockSrcNtB7_11CalendarSrc17get_calendar_atom
FN:55,_RNvMs4_NtNtNtCs6u9oDspvYRg_7qchrono8calendar8data_src5testsNtB5_7MockSrc24expect_get_calendar_atom
FN:119,_RNvNtNtNtCs6u9oDspvYRg_7qchrono8calendar8data_src5tests8test_get
FN:153,_RNCNvNtNtNtCs6u9oDspvYRg_7qchrono8calendar8data_src5tests8test_get0B9_
FN:119,_RNvNtNtNtNtCs6u9oDspvYRg_7qchrono8calendar8data_src5tests8test_gets_6case_1
FN:119,_RNvNtNtNtNtCs6u9oDspvYRg_7qchrono8calendar8data_src5tests8test_gets_6case_2
FN:119,_RNvNtNtNtNtCs6u9oDspvYRg_7qchrono8calendar8data_src5tests8test_gets_6case_3
FN:119,_RNvNtNtNtNtCs6u9oDspvYRg_7qchrono8calendar8data_src5tests8test_gets_6case_4
FN:119,_RNvNtNtNtNtCs6u9oDspvYRg_7qchrono8calendar8data_src5tests8test_gets_6case_5
FN:119,_RNvNtNtNtNtCs6u9oDspvYRg_7qchrono8calendar8data_src5tests8test_gets_6case_6
FN:17,_RNCNvYNtNtNtNtCs6u9oDspvYRg_7qchrono8calendar8data_src5tests7MockSrcNtB8_11CalendarSrc12get_calendar0Bc_
FN:17,_RNCNCNvYNtNtNtNtCs6u9oDspvYRg_7qchrono8calendar8data_src5tests7MockSrcNtBa_11CalendarSrc12get_calendar00Be_
FN:24,_RNvNtNtCs6u9oDspvYRg_7qchrono8calendar8data_src13__merge_leaves
FN:29,_RNCNvNtNtCs6u9oDspvYRg_7qchrono8calendar8data_src13__merge_leaves0B7_
FN:35,_RNCNvNtNtCs6u9oDspvYRg_7qchrono8calendar8data_src13__merge_leavess_0B7_
FN:55,_RNvMNtNtNtNtNtCs6u9oDspvYRg_7qchrono8calendar8data_src5tests26___mock_MockSrc_CalendarSrc19___get_calendar_atomNtB2_5Rfunc8call_mut
FN:55,_RNvXs_NtNtNtNtNtCs6u9oDspvYRg_7qchrono8calendar8data_src5tests26___mock_MockSrc_CalendarSrc19___get_calendar_atomNtB4_5RfuncNtNtCs2fyPGiZs4Bj_4core7default7Default7default
FN:55,_RNvMs0_NtNtNtNtNtCs6u9oDspvYRg_7qchrono8calendar8data_src5tests26___mock_MockSrc_CalendarSrc19___get_calendar_atomNtB5_7Matcher7matches
FN:55,_RNCNvMs0_NtNtNtNtNtCs6u9oDspvYRg_7qchrono8calendar8data_src5tests26___mock_MockSrc_CalendarSrc19___get_calendar_atomNtB7_7Matcher7matches0Bh_
FN:55,_RNvXs1_NtNtNtNtNtCs6u9oDspvYRg_7qchrono8calendar8data_src5tests26___mock_MockSrc_CalendarSrc19___get_calendar_atomNtB5_7MatcherNtNtCs2fyPGiZs4Bj_4core7default7Default7default
FN:55,_RNvXs2_NtNtNtNtNtCs6u9oDspvYRg_7qchrono8calendar8data_src5tests26___mock_MockSrc_CalendarSrc19___get_calendar_atomNtB5_7MatcherNtNtCs2fyPGiZs4Bj_4core3fmt7Display3fmt
FN:55,_RNvXs3_NtNtNtNtNtCs6u9oDspvYRg_7qchrono8calendar8data_src5tests26___mock_MockSrc_CalendarSrc19___get_calendar_atomNtB5_6CommonNtNtCs2fyPGiZs4Bj_4core7default7Default7default
FN:55,_RNvMs4_NtNtNtNtNtCs6u9oDspvYRg_7qchrono8calendar8data_src5tests26___mock_MockSrc_CalendarSrc19___get_calendar_atomNtB5_6Common4call
FN:55,_RNvMs4_NtNtNtNtNtCs6u9oDspvYRg_7qchrono8calendar8data_src5tests26___mock_MockSrc_CalendarSrc19___get_calendar_atomNtB5_6Common7is_done
FN:55,_RNvMs4_NtNtNtNtNtCs6u9oDspvYRg_7qchrono8calendar8data_src5tests26___mock_MockSrc_CalendarSrc19___get_calendar_atomNtB5_6Common7matches
FN:55,_RNvMs4_NtNtNtNtNtCs6u9oDspvYRg_7qchrono8calendar8data_src5tests26___mock_MockSrc_CalendarSrc19___get_calendar_atomNtB5_6Common16satisfy_sequence
FN:55,_RINvMs4_NtNtNtNtNtCs6u9oDspvYRg_7qchrono8calendar8data_src5tests26___mock_MockSrc_CalendarSrc19___get_calendar_atomNtB6_6Common5timesjEBg_
FN:55,_RNvMs4_NtNtNtNtNtCs6u9oDspvYRg_7qchrono8calendar8data_src5tests26___mock_MockSrc_CalendarSrc19___get_calendar_atomNtB5_6Common15verify_sequence
FN:55,_RNvXs5_NtNtNtNtNtCs6u9oDspvYRg_7qchrono8calendar8data_src5tests26___mock_MockSrc_CalendarSrc19___get_calendar_atomNtB5_6CommonNtNtNtCs2fyPGiZs4Bj_4core3ops4drop4Drop4drop
FN:55,_RNvMs6_NtNtNtNtNtCs6u9oDspvYRg_7qchrono8calendar8data_src5tests26___mock_MockSrc_CalendarSrc19___get_calendar_atomNtB5_11Expectation4call
FN:55,_RINvMs6_NtNtNtNtNtCs6u9oDspvYRg_7qchrono8calendar8data_src5tests26___mock_MockSrc_CalendarSrc19___get_calendar_atomNtB6_11Expectation9returningNvBa_7get_calEBg_
FN:55,_RNvMs6_NtNtNtNtNtCs6u9oDspvYRg_7qchrono8calendar8data_src5tests26___mock_MockSrc_CalendarSrc19___get_calendar_atomNtB5_11Expectation7is_done
FN:55,_RNvMs6_NtNtNtNtNtCs6u9oDspvYRg_7qchrono8calendar8data_src5tests26___mock_MockSrc_CalendarSrc19___get_calendar_atomNtB5_11Expectation7matches
FN:55,_RINvMs6_NtNtNtNtNtCs6u9oDspvYRg_7qchrono8calendar8data_src5tests26___mock_MockSrc_CalendarSrc19___get_calendar_atomNtB6_11Expectation5timesjEBg_
FN:55,_RNvXs7_NtNtNtNtNtCs6u9oDspvYRg_7qchrono8calendar8data_src5tests26___mock_MockSrc_CalendarSrc19___get_calendar_atomNtB5_11ExpectationNtNtCs2fyPGiZs4Bj_4core7default7Default7default
FN:55,_RNvMs8_NtNtNtNtNtCs6u9oDspvYRg_7qchrono8calendar8data_src5tests26___mock_MockSrc_CalendarSrc19___get_calendar_atomNtB5_12Expectations10checkpoint
FN:55,_RNvMs8_NtNtNtNtNtCs6u9oDspvYRg_7qchrono8calendar8data_src5tests26___mock_MockSrc_CalendarSrc19___get_calendar_atomNtB5_12Expectations6expect
FN:55,_RNvMs8_NtNtNtNtNtCs6u9oDspvYRg_7qchrono8calendar8data_src5tests26___mock_MockSrc_CalendarSrc19___get_calendar_atomNtB5_12Expectations3new
FN:55,_RNvXs9_NtNtNtNtNtCs6u9oDspvYRg_7qchrono8calendar8data_src5tests26___mock_MockSrc_CalendarSrc19___get_calendar_atomNtB5_12ExpectationsNtNtCs2fyPGiZs4Bj_4core7default7Default7default
FN:55,_RNvMsa_NtNtNtNtNtCs6u9oDspvYRg_7qchrono8calendar8data_src5tests26___mock_MockSrc_CalendarSrc19___get_calendar_atomNtB5_12Expectations4call
FN:55,_RNCNvMsa_NtNtNtNtNtCs6u9oDspvYRg_7qchrono8calendar8data_src5tests26___mock_MockSrc_CalendarSrc19___get_calendar_atomNtB7_12Expectations4call0Bh_
FN:55,_RNCNvMsa_NtNtNtNtNtCs6u9oDspvYRg_7qchrono8calendar8data_src5tests26___mock_MockSrc_CalendarSrc19___get_calendar_atomNtB7_12Expectations4calls_0Bh_
FN:55,_RNvMs4_NtNtNtNtNtCs6u9oDspvYRg_7qchrono8calendar8data_src5tests26___mock_MockSrc_CalendarSrc19___get_calendar_atomNtB5_6Common11in_sequence
FN:55,_RNvMs4_NtNtNtNtNtCs6u9oDspvYRg_7qchrono8calendar8data_src5tests26___mock_MockSrc_CalendarSrc19___get_calendar_atomNtB5_6Common5never
FN:55,_RINvMs4_NtNtNtNtNtCs6u9oDspvYRg_7qchrono8calendar8data_src5tests26___mock_MockSrc_CalendarSrc19___get_calendar_atomNtB6_6Common4withpEBg_
FN:55,_RINvMs4_NtNtNtNtNtCs6u9oDspvYRg_7qchrono8calendar8data_src5tests26___mock_MockSrc_CalendarSrc19___get_calendar_atomNtB6_6Common5withfpEBg_
FN:55,_RINvMs4_NtNtNtNtNtCs6u9oDspvYRg_7qchrono8calendar8data_src5tests26___mock_MockSrc_CalendarSrc19___get_calendar_atomNtB6_6Common8withf_stpEBg_
FN:55,_RINvMs6_NtNtNtNtNtCs6u9oDspvYRg_7qchrono8calendar8data_src5tests26___mock_MockSrc_CalendarSrc19___get_calendar_atomNtB6_11Expectation12return_constpEBg_
FN:55,_RNCINvMs6_NtNtNtNtNtCs6u9oDspvYRg_7qchrono8calendar8data_src5tests26___mock_MockSrc_CalendarSrc19___get_calendar_atomNtB8_11Expectation12return_constpE0Bi_
FN:55,_RINvMs6_NtNtNtNtNtCs6u9oDspvYRg_7qchrono8calendar8data_src5tests26___mock_MockSrc_CalendarSrc19___get_calendar_atomNtB6_11Expectation15return_const_stpEBg_
FN:55,_RNCINvMs6_NtNtNtNtNtCs6u9oDspvYRg_7qchrono8calendar8data_src5tests26___mock_MockSrc_CalendarSrc19___get_calendar_atomNtB8_11Expectation15return_const_stpE0Bi_
FN:55,_RINvMs6_NtNtNtNtNtCs6u9oDspvYRg_7qchrono8calendar8data_src5tests26___mock_MockSrc_CalendarSrc19___get_calendar_atomNtB6_11Expectation11return_oncepEBg_
FN:55,_RINvMs6_NtNtNtNtNtCs6u9oDspvYRg_7qchrono8calendar8data_src5tests26___mock_MockSrc_CalendarSrc19___get_calendar_atomNtB6_11Expectation14return_once_stpEBg_
FN:55,_RINvMs6_NtNtNtNtNtCs6u9oDspvYRg_7qchrono8calendar8data_src5tests26___mock_MockSrc_CalendarSrc19___get_calendar_atomNtB6_11Expectation12returning_stpEBg_
FN:55,_RNvMs6_NtNtNtNtNtCs6u9oDspvYRg_7qchrono8calendar8data_src5tests26___mock_MockSrc_CalendarSrc19___get_calendar_atomNtB5_11Expectation11in_sequence
FN:55,_RNvMs6_NtNtNtNtNtCs6u9oDspvYRg_7qchrono8calendar8data_src5tests26___mock_MockSrc_CalendarSrc19___get_calendar_atomNtB5_11Expectation5never
FN:55,_RNvMs6_NtNtNtNtNtCs6u9oDspvYRg_7qchrono8calendar8data_src5tests26___mock_MockSrc_CalendarSrc19___get_calendar_atomNtB5_11Expectation3new
FN:55,_RNvMs6_NtNtNtNtNtCs6u9oDspvYRg_7qchrono8calendar8data_src5tests26___mock_MockSrc_CalendarSrc19___get_calendar_atomNtB5_11Expectation4once
FN:55,_RINvMs6_NtNtNtNtNtCs6u9oDspvYRg_7qchrono8calendar8data_src5tests26___mock_MockSrc_CalendarSrc19___get_calendar_atomNtB6_11Expectation4withpEBg_
FN:55,_RINvMs6_NtNtNtNtNtCs6u9oDspvYRg_7qchrono8calendar8data_src5tests26___mock_MockSrc_CalendarSrc19___get_calendar_atomNtB6_11Expectation5withfpEBg_
FN:55,_RINvMs6_NtNtNtNtNtCs6u9oDspvYRg_7qchrono8calendar8data_src5tests26___mock_MockSrc_CalendarSrc19___get_calendar_atomNtB6_11Expectation8withf_stpEBg_
FN:17,_RNCNCNvYNtNtNtNtCslNfvs0bCstK_8qfincore8daycount7variant5tests15MockCalendarSrcNtNtNtCs2bSmrEEol5z_7qchrono8calendar8data_src11CalendarSrc12get_calendar00Be_
FN:17,_RNCNvYNtNtNtNtCslNfvs0bCstK_8qfincore8daycount7variant5tests15MockCalendarSrcNtNtNtCs2bSmrEEol5z_7qchrono8calendar8data_src11CalendarSrc12get_calendar0Bc_
FN:13,_RNvYNtNtNtNtCslNfvs0bCstK_8qfincore8daycount7variant5tests15MockCalendarSrcNtNtNtCs2bSmrEEol5z_7qchrono8calendar8data_src11CalendarSrc12get_calendarBa_
FN:24,_RNvNtNtCs2bSmrEEol5z_7qchrono8calendar8data_src13__merge_leaves
FN:29,_RNCNvNtNtCs2bSmrEEol5z_7qchrono8calendar8data_src13__merge_leaves0B7_
FN:35,_RNCNvNtNtCs2bSmrEEol5z_7qchrono8calendar8data_src13__merge_leavess_0B7_
FN:13,_RNvYpNtNtNtCs2bSmrEEol5z_7qchrono8calendar8data_src11CalendarSrc12get_calendarB9_
FN:17,_RNCNvYpNtNtNtCs2bSmrEEol5z_7qchrono8calendar8data_src11CalendarSrc12get_calendar0Bb_
FN:17,_RNCNCNvYpNtNtNtCs2bSmrEEol5z_7qchrono8calendar8data_src11CalendarSrc12get_calendar00Bd_
FN:17,_RNCNCNvYNtNtNtNtNtCsg8mytIw4ZXd_6qmodel2fx3fwd5basic5tests15MockCalendarSrcNtNtNtCs2bSmrEEol5z_7qchrono8calendar8data_src11CalendarSrc12get_calendar00Bg_
FN:17,_RNCNvYNtNtNtNtNtCsg8mytIw4ZXd_6qmodel2fx3fwd5basic5tests15MockCalendarSrcNtNtNtCs2bSmrEEol5z_7qchrono8calendar8data_src11CalendarSrc12get_calendar0Be_
FN:13,_RNvYNtNtNtNtNtCsg8mytIw4ZXd_6qmodel2fx3fwd5basic5tests15MockCalendarSrcNtNtNtCs2bSmrEEol5z_7qchrono8calendar8data_src11CalendarSrc12get_calendarBc_
FNDA:6,_RNvYNtNtNtNtCs6u9oDspvYRg_7qchrono8calendar8data_src5tests7MockSrcNtB6_11CalendarSrc12get_calendarBa_
FNDA:19,_RNvNtNtNtCs6u9oDspvYRg_7qchrono8calendar8data_src5tests7get_cal
FNDA:2,_RNCNvNtNtNtCs6u9oDspvYRg_7qchrono8calendar8data_src5tests7get_cal0B9_
FNDA:6,_RNvMNtNtNtCs6u9oDspvYRg_7qchrono8calendar8data_src5testsNtB2_7MockSrc15with_call_count
FNDA:6,_RNvMNtNtNtCs6u9oDspvYRg_7qchrono8calendar8data_src5testsNtB2_7MockSrc5setup
FNDA:6,_RNvXs_NtNtNtCs6u9oDspvYRg_7qchrono8calendar8data_src5testsNtB4_7MockSrcNtNtCs2fyPGiZs4Bj_4core7default7Default7default
FNDA:6,_RNvXs0_NtNtNtCs6u9oDspvYRg_7qchrono8calendar8data_src5testsNtB5_19MockSrc_CalendarSrcNtNtCs2fyPGiZs4Bj_4core7default7Default7default
FNDA:6,_RNvMs1_NtNtNtCs6u9oDspvYRg_7qchrono8calendar8data_src5testsNtB5_19MockSrc_CalendarSrc10checkpoint
FNDA:6,_RNvMs2_NtNtNtCs6u9oDspvYRg_7qchrono8calendar8data_src5testsNtB5_7MockSrc10checkpoint
FNDA:6,_RNvMs2_NtNtNtCs6u9oDspvYRg_7qchrono8calendar8data_src5testsNtB5_7MockSrc3new
FNDA:11,_RNvXs3_NtNtNtCs6u9oDspvYRg_7qchrono8calendar8data_src5testsNtB5_7MockSrcNtB7_11CalendarSrc17get_calendar_atom
FNDA:6,_RNvMs4_NtNtNtCs6u9oDspvYRg_7qchrono8calendar8data_src5testsNtB5_7MockSrc24expect_get_calendar_atom
FNDA:6,_RNvNtNtNtCs6u9oDspvYRg_7qchrono8calendar8data_src5tests8test_get
FNDA:2,_RNCNvNtNtNtCs6u9oDspvYRg_7qchrono8calendar8data_src5tests8test_get0B9_
FNDA:1,_RNvNtNtNtNtCs6u9oDspvYRg_7qchrono8calendar8data_src5tests8test_gets_6case_1
FNDA:1,_RNvNtNtNtNtCs6u9oDspvYRg_7qchrono8calendar8data_src5tests8test_gets_6case_2
FNDA:1,_RNvNtNtNtNtCs6u9oDspvYRg_7qchrono8calendar8data_src5tests8test_gets_6case_3
FNDA:1,_RNvNtNtNtNtCs6u9oDspvYRg_7qchrono8calendar8data_src5tests8test_gets_6case_4
FNDA:1,_RNvNtNtNtNtCs6u9oDspvYRg_7qchrono8calendar8data_src5tests8test_gets_6case_5
FNDA:1,_RNvNtNtNtNtCs6u9oDspvYRg_7qchrono8calendar8data_src5tests8test_gets_6case_6
FNDA:11,_RNCNvYNtNtNtNtCs6u9oDspvYRg_7qchrono8calendar8data_src5tests7MockSrcNtB8_11CalendarSrc12get_calendar0Bc_
FNDA:9,_RNCNCNvYNtNtNtNtCs6u9oDspvYRg_7qchrono8calendar8data_src5tests7MockSrcNtBa_11CalendarSrc12get_calendar00Be_
FNDA:12,_RNvNtNtCs6u9oDspvYRg_7qchrono8calendar8data_src13__merge_leaves
FNDA:0,_RNCNvNtNtCs6u9oDspvYRg_7qchrono8calendar8data_src13__merge_leaves0B7_
FNDA:8,_RNCNvNtNtCs6u9oDspvYRg_7qchrono8calendar8data_src13__merge_leavess_0B7_
FNDA:11,_RNvMNtNtNtNtNtCs6u9oDspvYRg_7qchrono8calendar8data_src5tests26___mock_MockSrc_CalendarSrc19___get_calendar_atomNtB2_5Rfunc8call_mut
FNDA:6,_RNvXs_NtNtNtNtNtCs6u9oDspvYRg_7qchrono8calendar8data_src5tests26___mock_MockSrc_CalendarSrc19___get_calendar_atomNtB4_5RfuncNtNtCs2fyPGiZs4Bj_4core7default7Default7default
FNDA:11,_RNvMs0_NtNtNtNtNtCs6u9oDspvYRg_7qchrono8calendar8data_src5tests26___mock_MockSrc_CalendarSrc19___get_calendar_atomNtB5_7Matcher7matches
FNDA:0,_RNCNvMs0_NtNtNtNtNtCs6u9oDspvYRg_7qchrono8calendar8data_src5tests26___mock_MockSrc_CalendarSrc19___get_calendar_atomNtB7_7Matcher7matches0Bh_
FNDA:6,_RNvXs1_NtNtNtNtNtCs6u9oDspvYRg_7qchrono8calendar8data_src5tests26___mock_MockSrc_CalendarSrc19___get_calendar_atomNtB5_7MatcherNtNtCs2fyPGiZs4Bj_4core7default7Default7default
FNDA:6,_RNvXs2_NtNtNtNtNtCs6u9oDspvYRg_7qchrono8calendar8data_src5tests26___mock_MockSrc_CalendarSrc19___get_calendar_atomNtB5_7MatcherNtNtCs2fyPGiZs4Bj_4core3fmt7Display3fmt
FNDA:6,_RNvXs3_NtNtNtNtNtCs6u9oDspvYRg_7qchrono8calendar8data_src5tests26___mock_MockSrc_CalendarSrc19___get_calendar_atomNtB5_6CommonNtNtCs2fyPGiZs4Bj_4core7default7Default7default
FNDA:11,_RNvMs4_NtNtNtNtNtCs6u9oDspvYRg_7qchrono8calendar8data_src5tests26___mock_MockSrc_CalendarSrc19___get_calendar_atomNtB5_6Common4call
FNDA:11,_RNvMs4_NtNtNtNtNtCs6u9oDspvYRg_7qchrono8calendar8data_src5tests26___mock_MockSrc_CalendarSrc19___get_calendar_atomNtB5_6Common7is_done
FNDA:11,_RNvMs4_NtNtNtNtNtCs6u9oDspvYRg_7qchrono8calendar8data_src5tests26___mock_MockSrc_CalendarSrc19___get_calendar_atomNtB5_6Common7matches
FNDA:6,_RNvMs4_NtNtNtNtNtCs6u9oDspvYRg_7qchrono8calendar8data_src5tests26___mock_MockSrc_CalendarSrc19___get_calendar_atomNtB5_6Common16satisfy_sequence
FNDA:6,_RINvMs4_NtNtNtNtNtCs6u9oDspvYRg_7qchrono8calendar8data_src5tests26___mock_MockSrc_CalendarSrc19___get_calendar_atomNtB6_6Common5timesjEBg_
FNDA:11,_RNvMs4_NtNtNtNtNtCs6u9oDspvYRg_7qchrono8calendar8data_src5tests26___mock_MockSrc_CalendarSrc19___get_calendar_atomNtB5_6Common15verify_sequence
FNDA:6,_RNvXs5_NtNtNtNtNtCs6u9oDspvYRg_7qchrono8calendar8data_src5tests26___mock_MockSrc_CalendarSrc19___get_calendar_atomNtB5_6CommonNtNtNtCs2fyPGiZs4Bj_4core3ops4drop4Drop4drop
FNDA:11,_RNvMs6_NtNtNtNtNtCs6u9oDspvYRg_7qchrono8calendar8data_src5tests26___mock_MockSrc_CalendarSrc19___get_calendar_atomNtB5_11Expectation4call
FNDA:6,_RINvMs6_NtNtNtNtNtCs6u9oDspvYRg_7qchrono8calendar8data_src5tests26___mock_MockSrc_CalendarSrc19___get_calendar_atomNtB6_11Expectation9returningNvBa_7get_calEBg_
FNDA:11,_RNvMs6_NtNtNtNtNtCs6u9oDspvYRg_7qchrono8calendar8data_src5tests26___mock_MockSrc_CalendarSrc19___get_calendar_atomNtB5_11Expectation7is_done
FNDA:11,_RNvMs6_NtNtNtNtNtCs6u9oDspvYRg_7qchrono8calendar8data_src5tests26___mock_MockSrc_CalendarSrc19___get_calendar_atomNtB5_11Expectation7matches
FNDA:6,_RINvMs6_NtNtNtNtNtCs6u9oDspvYRg_7qchrono8calendar8data_src5tests26___mock_MockSrc_CalendarSrc19___get_calendar_atomNtB6_11Expectation5timesjEBg_
FNDA:6,_RNvXs7_NtNtNtNtNtCs6u9oDspvYRg_7qchrono8calendar8data_src5tests26___mock_MockSrc_CalendarSrc19___get_calendar_atomNtB5_11ExpectationNtNtCs2fyPGiZs4Bj_4core7default7Default7default
FNDA:6,_RNvMs8_NtNtNtNtNtCs6u9oDspvYRg_7qchrono8calendar8data_src5tests26___mock_MockSrc_CalendarSrc19___get_calendar_atomNtB5_12Expectations10checkpoint
FNDA:6,_RNvMs8_NtNtNtNtNtCs6u9oDspvYRg_7qchrono8calendar8data_src5tests26___mock_MockSrc_CalendarSrc19___get_calendar_atomNtB5_12Expectations6expect
FNDA:6,_RNvMs8_NtNtNtNtNtCs6u9oDspvYRg_7qchrono8calendar8data_src5tests26___mock_MockSrc_CalendarSrc19___get_calendar_atomNtB5_12Expectations3new
FNDA:6,_RNvXs9_NtNtNtNtNtCs6u9oDspvYRg_7qchrono8calendar8data_src5tests26___mock_MockSrc_CalendarSrc19___get_calendar_atomNtB5_12ExpectationsNtNtCs2fyPGiZs4Bj_4core7default7Default7default
FNDA:11,_RNvMsa_NtNtNtNtNtCs6u9oDspvYRg_7qchrono8calendar8data_src5tests26___mock_MockSrc_CalendarSrc19___get_calendar_atomNtB5_12Expectations4call
FNDA:11,_RNCNvMsa_NtNtNtNtNtCs6u9oDspvYRg_7qchrono8calendar8data_src5tests26___mock_MockSrc_CalendarSrc19___get_calendar_atomNtB7_12Expectations4call0Bh_
FNDA:11,_RNCNvMsa_NtNtNtNtNtCs6u9oDspvYRg_7qchrono8calendar8data_src5tests26___mock_MockSrc_CalendarSrc19___get_calendar_atomNtB7_12Expectations4calls_0Bh_
FNDA:0,_RNvMs4_NtNtNtNtNtCs6u9oDspvYRg_7qchrono8calendar8data_src5tests26___mock_MockSrc_CalendarSrc19___get_calendar_atomNtB5_6Common11in_sequence
FNDA:0,_RNvMs4_NtNtNtNtNtCs6u9oDspvYRg_7qchrono8calendar8data_src5tests26___mock_MockSrc_CalendarSrc19___get_calendar_atomNtB5_6Common5never
FNDA:0,_RINvMs4_NtNtNtNtNtCs6u9oDspvYRg_7qchrono8calendar8data_src5tests26___mock_MockSrc_CalendarSrc19___get_calendar_atomNtB6_6Common4withpEBg_
FNDA:0,_RINvMs4_NtNtNtNtNtCs6u9oDspvYRg_7qchrono8calendar8data_src5tests26___mock_MockSrc_CalendarSrc19___get_calendar_atomNtB6_6Common5withfpEBg_
FNDA:0,_RINvMs4_NtNtNtNtNtCs6u9oDspvYRg_7qchrono8calendar8data_src5tests26___mock_MockSrc_CalendarSrc19___get_calendar_atomNtB6_6Common8withf_stpEBg_
FNDA:0,_RINvMs6_NtNtNtNtNtCs6u9oDspvYRg_7qchrono8calendar8data_src5tests26___mock_MockSrc_CalendarSrc19___get_calendar_atomNtB6_11Expectation12return_constpEBg_
FNDA:0,_RNCINvMs6_NtNtNtNtNtCs6u9oDspvYRg_7qchrono8calendar8data_src5tests26___mock_MockSrc_CalendarSrc19___get_calendar_atomNtB8_11Expectation12return_constpE0Bi_
FNDA:0,_RINvMs6_NtNtNtNtNtCs6u9oDspvYRg_7qchrono8calendar8data_src5tests26___mock_MockSrc_CalendarSrc19___get_calendar_atomNtB6_11Expectation15return_const_stpEBg_
FNDA:0,_RNCINvMs6_NtNtNtNtNtCs6u9oDspvYRg_7qchrono8calendar8data_src5tests26___mock_MockSrc_CalendarSrc19___get_calendar_atomNtB8_11Expectation15return_const_stpE0Bi_
FNDA:0,_RINvMs6_NtNtNtNtNtCs6u9oDspvYRg_7qchrono8calendar8data_src5tests26___mock_MockSrc_CalendarSrc19___get_calendar_atomNtB6_11Expectation11return_oncepEBg_
FNDA:0,_RINvMs6_NtNtNtNtNtCs6u9oDspvYRg_7qchrono8calendar8data_src5tests26___mock_MockSrc_CalendarSrc19___get_calendar_atomNtB6_11Expectation14return_once_stpEBg_
FNDA:0,_RINvMs6_NtNtNtNtNtCs6u9oDspvYRg_7qchrono8calendar8data_src5tests26___mock_MockSrc_CalendarSrc19___get_calendar_atomNtB6_11Expectation12returning_stpEBg_
FNDA:0,_RNvMs6_NtNtNtNtNtCs6u9oDspvYRg_7qchrono8calendar8data_src5tests26___mock_MockSrc_CalendarSrc19___get_calendar_atomNtB5_11Expectation11in_sequence
FNDA:0,_RNvMs6_NtNtNtNtNtCs6u9oDspvYRg_7qchrono8calendar8data_src5tests26___mock_MockSrc_CalendarSrc19___get_calendar_atomNtB5_11Expectation5never
FNDA:0,_RNvMs6_NtNtNtNtNtCs6u9oDspvYRg_7qchrono8calendar8data_src5tests26___mock_MockSrc_CalendarSrc19___get_calendar_atomNtB5_11Expectation3new
FNDA:0,_RNvMs6_NtNtNtNtNtCs6u9oDspvYRg_7qchrono8calendar8data_src5tests26___mock_MockSrc_CalendarSrc19___get_calendar_atomNtB5_11Expectation4once
FNDA:0,_RINvMs6_NtNtNtNtNtCs6u9oDspvYRg_7qchrono8calendar8data_src5tests26___mock_MockSrc_CalendarSrc19___get_calendar_atomNtB6_11Expectation4withpEBg_
FNDA:0,_RINvMs6_NtNtNtNtNtCs6u9oDspvYRg_7qchrono8calendar8data_src5tests26___mock_MockSrc_CalendarSrc19___get_calendar_atomNtB6_11Expectation5withfpEBg_
FNDA:0,_RINvMs6_NtNtNtNtNtCs6u9oDspvYRg_7qchrono8calendar8data_src5tests26___mock_MockSrc_CalendarSrc19___get_calendar_atomNtB6_11Expectation8withf_stpEBg_
FNDA:2,_RNCNCNvYNtNtNtNtCslNfvs0bCstK_8qfincore8daycount7variant5tests15MockCalendarSrcNtNtNtCs2bSmrEEol5z_7qchrono8calendar8data_src11CalendarSrc12get_calendar00Be_
FNDA:3,_RNCNvYNtNtNtNtCslNfvs0bCstK_8qfincore8daycount7variant5tests15MockCalendarSrcNtNtNtCs2bSmrEEol5z_7qchrono8calendar8data_src11CalendarSrc12get_calendar0Bc_
FNDA:2,_RNvYNtNtNtNtCslNfvs0bCstK_8qfincore8daycount7variant5tests15MockCalendarSrcNtNtNtCs2bSmrEEol5z_7qchrono8calendar8data_src11CalendarSrc12get_calendarBa_
FNDA:45,_RNvNtNtCs2bSmrEEol5z_7qchrono8calendar8data_src13__merge_leaves
FNDA:0,_RNCNvNtNtCs2bSmrEEol5z_7qchrono8calendar8data_src13__merge_leaves0B7_
FNDA:30,_RNCNvNtNtCs2bSmrEEol5z_7qchrono8calendar8data_src13__merge_leavess_0B7_
FNDA:0,_RNvYpNtNtNtCs2bSmrEEol5z_7qchrono8calendar8data_src11CalendarSrc12get_calendarB9_
FNDA:0,_RNCNvYpNtNtNtCs2bSmrEEol5z_7qchrono8calendar8data_src11CalendarSrc12get_calendar0Bb_
FNDA:0,_RNCNCNvYpNtNtNtCs2bSmrEEol5z_7qchrono8calendar8data_src11CalendarSrc12get_calendar00Bd_
FNDA:28,_RNCNCNvYNtNtNtNtNtCsg8mytIw4ZXd_6qmodel2fx3fwd5basic5tests15MockCalendarSrcNtNtNtCs2bSmrEEol5z_7qchrono8calendar8data_src11CalendarSrc12get_calendar00Bg_
FNDA:28,_RNCNvYNtNtNtNtNtCsg8mytIw4ZXd_6qmodel2fx3fwd5basic5tests15MockCalendarSrcNtNtNtCs2bSmrEEol5z_7qchrono8calendar8data_src11CalendarSrc12get_calendar0Be_
FNDA:14,_RNvYNtNtNtNtNtCsg8mytIw4ZXd_6qmodel2fx3fwd5basic5tests15MockCalendarSrcNtNtNtCs2bSmrEEol5z_7qchrono8calendar8data_src11CalendarSrc12get_calendarBc_
FNF:13
FNH:12
DA:13,22
DA:14,22
DA:15,22
DA:16,22
DA:17,42
DA:18,22
DA:19,19
DA:20,19
DA:21,22
DA:24,57
DA:25,57
DA:26,57
DA:27,57
DA:28,57
DA:29,38
DA:30,0
DA:31,38
DA:32,17
DA:33,19
DA:34,19
DA:35,38
DA:36,19
DA:37,19
DA:38,2
DA:39,17
DA:40,0
DA:42,19
DA:45,57
DA:55,73
DA:56,190
DA:57,190
DA:58,190
DA:59,190
DA:60,190
DA:61,190
DA:68,19
DA:69,19
DA:70,19
DA:71,19
DA:72,19
DA:73,19
DA:74,19
DA:75,19
DA:76,19
DA:77,19
DA:78,19
DA:79,19
DA:80,19
DA:81,19
DA:82,19
DA:83,19
DA:84,19
DA:85,19
DA:86,19
DA:87,19
DA:88,19
DA:89,19
DA:90,19
DA:91,19
DA:92,19
DA:93,19
DA:94,19
DA:95,19
DA:96,19
DA:97,19
DA:98,19
DA:99,19
DA:100,19
DA:101,19
DA:104,6
DA:105,6
DA:106,6
DA:107,6
DA:108,6
DA:110,6
DA:111,6
DA:112,6
DA:113,6
DA:114,6
DA:115,6
DA:116,6
DA:119,6
DA:153,2
BRF:0
BRH:0
LF:89
LH:85
end_of_record
SF:/home/runner/work/qrs/qrs/libs/core/qchrono/src/calendar/holadj.rs
FN:18,_RNvXNvXNvNtNtCs6u9oDspvYRg_7qchrono8calendar6holadjs_1__NtB7_10HolidayAdjNtNtCshDylzWGrM8d_5serde2de11Deserialize11deserializeNtB2_14___FieldVisitorNtB1b_7Visitor9expecting
FN:18,_RINvXNvXNvNtNtCs6u9oDspvYRg_7qchrono8calendar6holadjs_1__NtB8_10HolidayAdjNtNtCshDylzWGrM8d_5serde2de11Deserialize11deserializeNtB3_14___FieldVisitorNtB1c_7Visitor9visit_u64pEBc_
FN:18,_RINvXNvXNvNtNtCs6u9oDspvYRg_7qchrono8calendar6holadjs_1__NtB8_10HolidayAdjNtNtCshDylzWGrM8d_5serde2de11Deserialize11deserializeNtB3_14___FieldVisitorNtB1c_7Visitor9visit_strpEBc_
FN:18,_RINvXNvXNvNtNtCs6u9oDspvYRg_7qchrono8calendar6holadjs_1__NtB8_10HolidayAdjNtNtCshDylzWGrM8d_5serde2de11Deserialize11deserializeNtB3_14___FieldVisitorNtB1c_7Visitor11visit_bytespEBc_
FN:18,_RINvXs_NvXNvNtNtCs6u9oDspvYRg_7qchrono8calendar6holadjs_1__NtBa_10HolidayAdjNtNtCshDylzWGrM8d_5serde2de11Deserialize11deserializeNtB5_7___FieldB1c_11deserializepEBe_
FN:18,_RNvXs0_NvXNvNtNtCs6u9oDspvYRg_7qchrono8calendar6holadjs_1__NtBa_10HolidayAdjNtNtCshDylzWGrM8d_5serde2de11Deserialize11deserializeNtB5_9___VisitorNtB1e_7Visitor9expecting
FN:18,_RINvXs0_NvXNvNtNtCs6u9oDspvYRg_7qchrono8calendar6holadjs_1__NtBb_10HolidayAdjNtNtCshDylzWGrM8d_5serde2de11Deserialize11deserializeNtB6_9___VisitorNtB1f_7Visitor10visit_enumpEBf_
FN:20,_RNvXs6_NtNtCs6u9oDspvYRg_7qchrono8calendar6holadjNtB5_10HolidayAdjNtNtCs2fyPGiZs4Bj_4core3fmt7Display3fmt
FN:34,_RNvMNtNtCs6u9oDspvYRg_7qchrono8calendar6holadjNtB2_10HolidayAdj6adjust
FN:34,_RNvMNtNtCs2bSmrEEol5z_7qchrono8calendar6holadjNtB2_10HolidayAdj6adjust
FN:18,_RNvXNvXNvNtNtCs2bSmrEEol5z_7qchrono8calendar6holadjs_1__NtB7_10HolidayAdjNtNtCshDylzWGrM8d_5serde2de11Deserialize11deserializeNtB2_14___FieldVisitorNtB1b_7Visitor9expecting
FN:18,_RNvXs0_NvXNvNtNtCs2bSmrEEol5z_7qchrono8calendar6holadjs_1__NtBa_10HolidayAdjNtNtCshDylzWGrM8d_5serde2de11Deserialize11deserializeNtB5_9___VisitorNtB1e_7Visitor9expecting
FN:20,_RNvXs6_NtNtCs2bSmrEEol5z_7qchrono8calendar6holadjNtB5_10HolidayAdjNtNtCs2fyPGiZs4Bj_4core3fmt7Display3fmt
FN:18,_RINvXNvXNvNtNtCs2bSmrEEol5z_7qchrono8calendar6holadjs_1__NtB8_10HolidayAdjNtNtCshDylzWGrM8d_5serde2de11Deserialize11deserializeNtB3_14___FieldVisitorNtB1c_7Visitor9visit_u64pEBc_
FN:18,_RINvXNvXNvNtNtCs2bSmrEEol5z_7qchrono8calendar6holadjs_1__NtB8_10HolidayAdjNtNtCshDylzWGrM8d_5serde2de11Deserialize11deserializeNtB3_14___FieldVisitorNtB1c_7Visitor9visit_strpEBc_
FN:18,_RINvXNvXNvNtNtCs2bSmrEEol5z_7qchrono8calendar6holadjs_1__NtB8_10HolidayAdjNtNtCshDylzWGrM8d_5serde2de11Deserialize11deserializeNtB3_14___FieldVisitorNtB1c_7Visitor11visit_bytespEBc_
FN:18,_RINvXs_NvXNvNtNtCs2bSmrEEol5z_7qchrono8calendar6holadjs_1__NtBa_10HolidayAdjNtNtCshDylzWGrM8d_5serde2de11Deserialize11deserializeNtB5_7___FieldB1c_11deserializepEBe_
FN:18,_RINvXs0_NvXNvNtNtCs2bSmrEEol5z_7qchrono8calendar6holadjs_1__NtBb_10HolidayAdjNtNtCshDylzWGrM8d_5serde2de11Deserialize11deserializeNtB6_9___VisitorNtB1f_7Visitor10visit_enumpEBf_
FNDA:0,_RNvXNvXNvNtNtCs6u9oDspvYRg_7qchrono8calendar6holadjs_1__NtB7_10HolidayAdjNtNtCshDylzWGrM8d_5serde2de11Deserialize11deserializeNtB2_14___FieldVisitorNtB1b_7Visitor9expecting
FNDA:0,_RINvXNvXNvNtNtCs6u9oDspvYRg_7qchrono8calendar6holadjs_1__NtB8_10HolidayAdjNtNtCshDylzWGrM8d_5serde2de11Deserialize11deserializeNtB3_14___FieldVisitorNtB1c_7Visitor9visit_u64pEBc_
FNDA:0,_RINvXNvXNvNtNtCs6u9oDspvYRg_7qchrono8calendar6holadjs_1__NtB8_10HolidayAdjNtNtCshDylzWGrM8d_5serde2de11Deserialize11deserializeNtB3_14___FieldVisitorNtB1c_7Visitor9visit_strpEBc_
FNDA:0,_RINvXNvXNvNtNtCs6u9oDspvYRg_7qchrono8calendar6holadjs_1__NtB8_10HolidayAdjNtNtCshDylzWGrM8d_5serde2de11Deserialize11deserializeNtB3_14___FieldVisitorNtB1c_7Visitor11visit_bytespEBc_
FNDA:0,_RINvXs_NvXNvNtNtCs6u9oDspvYRg_7qchrono8calendar6holadjs_1__NtBa_10HolidayAdjNtNtCshDylzWGrM8d_5serde2de11Deserialize11deserializeNtB5_7___FieldB1c_11deserializepEBe_
FNDA:0,_RNvXs0_NvXNvNtNtCs6u9oDspvYRg_7qchrono8calendar6holadjs_1__NtBa_10HolidayAdjNtNtCshDylzWGrM8d_5serde2de11Deserialize11deserializeNtB5_9___VisitorNtB1e_7Visitor9expecting
FNDA:0,_RINvXs0_NvXNvNtNtCs6u9oDspvYRg_7qchrono8calendar6holadjs_1__NtBb_10HolidayAdjNtNtCshDylzWGrM8d_5serde2de11Deserialize11deserializeNtB6_9___VisitorNtB1f_7Visitor10visit_enumpEBf_
FNDA:0,_RNvXs6_NtNtCs6u9oDspvYRg_7qchrono8calendar6holadjNtB5_10HolidayAdjNtNtCs2fyPGiZs4Bj_4core3fmt7Display3fmt
FNDA:0,_RNvMNtNtCs6u9oDspvYRg_7qchrono8calendar6holadjNtB2_10HolidayAdj6adjust
FNDA:6,_RNvMNtNtCs2bSmrEEol5z_7qchrono8calendar6holadjNtB2_10HolidayAdj6adjust
FNDA:0,_RNvXNvXNvNtNtCs2bSmrEEol5z_7qchrono8calendar6holadjs_1__NtB7_10HolidayAdjNtNtCshDylzWGrM8d_5serde2de11Deserialize11deserializeNtB2_14___FieldVisitorNtB1b_7Visitor9expecting
FNDA:0,_RNvXs0_NvXNvNtNtCs2bSmrEEol5z_7qchrono8calendar6holadjs_1__NtBa_10HolidayAdjNtNtCshDylzWGrM8d_5serde2de11Deserialize11deserializeNtB5_9___VisitorNtB1e_7Visitor9expecting
FNDA:0,_RNvXs6_NtNtCs2bSmrEEol5z_7qchrono8calendar6holadjNtB5_10HolidayAdjNtNtCs2fyPGiZs4Bj_4core3fmt7Display3fmt
FNDA:0,_RINvXNvXNvNtNtCs2bSmrEEol5z_7qchrono8calendar6holadjs_1__NtB8_10HolidayAdjNtNtCshDylzWGrM8d_5serde2de11Deserialize11deserializeNtB3_14___FieldVisitorNtB1c_7Visitor9visit_u64pEBc_
FNDA:0,_RINvXNvXNvNtNtCs2bSmrEEol5z_7qchrono8calendar6holadjs_1__NtB8_10HolidayAdjNtNtCshDylzWGrM8d_5serde2de11Deserialize11deserializeNtB3_14___FieldVisitorNtB1c_7Visitor9visit_strpEBc_
FNDA:0,_RINvXNvXNvNtNtCs2bSmrEEol5z_7qchrono8calendar6holadjs_1__NtB8_10HolidayAdjNtNtCshDylzWGrM8d_5serde2de11Deserialize11deserializeNtB3_14___FieldVisitorNtB1c_7Visitor11visit_bytespEBc_
FNDA:0,_RINvXs_NvXNvNtNtCs2bSmrEEol5z_7qchrono8calendar6holadjs_1__NtBa_10HolidayAdjNtNtCshDylzWGrM8d_5serde2de11Deserialize11deserializeNtB5_7___FieldB1c_11deserializepEBe_
FNDA:0,_RINvXs0_NvXNvNtNtCs2bSmrEEol5z_7qchrono8calendar6holadjs_1__NtBb_10HolidayAdjNtNtCshDylzWGrM8d_5serde2de11Deserialize11deserializeNtB6_9___VisitorNtB1f_7Visitor10visit_enumpEBf_
FNF:3
FNH:1
DA:18,0
DA:20,0
DA:34,6
DA:35,6
DA:36,6
DA:37,0
DA:38,0
DA:39,0
DA:41,0
DA:42,0
DA:43,0
DA:45,0
DA:48,0
DA:50,0
DA:51,0
DA:52,0
DA:54,0
DA:58,6
BRF:0
BRH:0
LF:18
LH:4
end_of_record
SF:/home/runner/work/qrs/qrs/libs/core/qchrono/src/calendar/sym.rs
FN:759,_RNvNtNtNtNtCs6u9oDspvYRg_7qchrono8calendar3sym5tests10test_bitors_6case_1
FN:759,_RNvNtNtNtNtCs6u9oDspvYRg_7qchrono8calendar3sym5tests10test_bitors_6case_2
FN:759,_RNvNtNtNtNtCs6u9oDspvYRg_7qchrono8calendar3sym5tests10test_bitors_6case_3
FN:425,_RNvNtNtNtCs6u9oDspvYRg_7qchrono8calendar3sym5tests13test_atom_new
FN:445,_RNvNtNtNtCs6u9oDspvYRg_7qchrono8calendar3sym5tests14test_single_of
FN:445,_RNvNtNtNtNtCs6u9oDspvYRg_7qchrono8calendar3sym5tests14test_single_ofs_6case_1
FN:445,_RNvNtNtNtNtCs6u9oDspvYRg_7qchrono8calendar3sym5tests14test_single_ofs_6case_2
FN:445,_RNvNtNtNtNtCs6u9oDspvYRg_7qchrono8calendar3sym5tests14test_single_ofs_6case_3
FN:445,_RNvNtNtNtNtCs6u9oDspvYRg_7qchrono8calendar3sym5tests14test_single_ofs_6case_4
FN:445,_RNvNtNtNtNtCs6u9oDspvYRg_7qchrono8calendar3sym5tests14test_single_ofs_6case_5
FN:445,_RNvNtNtNtNtCs6u9oDspvYRg_7qchrono8calendar3sym5tests14test_single_ofs_6case_6
FN:445,_RNvNtNtNtNtCs6u9oDspvYRg_7qchrono8calendar3sym5tests14test_single_ofs_6case_7
FN:445,_RNvNtNtNtNtCs6u9oDspvYRg_7qchrono8calendar3sym5tests14test_single_ofs_6case_8
FN:468,_RNvNtNtNtCs6u9oDspvYRg_7qchrono8calendar3sym5testss_18test_all_closed_of
FN:536,_RNvNtNtNtCs6u9oDspvYRg_7qchrono8calendar3sym5testss_18test_any_closed_of
FN:603,_RNvNtNtNtCs6u9oDspvYRg_7qchrono8calendar3sym5testss_13test_from_str
FN:713,_RNvNtNtNtCs6u9oDspvYRg_7qchrono8calendar3sym5tests12test_display
FN:713,_RNvNtNtNtNtCs6u9oDspvYRg_7qchrono8calendar3sym5tests12test_displays_6case_1
FN:713,_RNvNtNtNtNtCs6u9oDspvYRg_7qchrono8calendar3sym5tests12test_displays_6case_2
FN:713,_RNvNtNtNtNtCs6u9oDspvYRg_7qchrono8calendar3sym5tests12test_displays_6case_3
FN:713,_RNvNtNtNtNtCs6u9oDspvYRg_7qchrono8calendar3sym5tests12test_displays_6case_4
FN:724,_RNvNtNtNtCs6u9oDspvYRg_7qchrono8calendar3sym5tests14test_serialize
FN:724,_RNvNtNtNtNtCs6u9oDspvYRg_7qchrono8calendar3sym5tests14test_serializes_6case_1
FN:724,_RNvNtNtNtNtCs6u9oDspvYRg_7qchrono8calendar3sym5tests14test_serializes_6case_2
FN:724,_RNvNtNtNtNtCs6u9oDspvYRg_7qchrono8calendar3sym5tests14test_serializes_6case_3
FN:724,_RNvNtNtNtNtCs6u9oDspvYRg_7qchrono8calendar3sym5tests14test_serializes_6case_4
FN:735,_RNvNtNtNtCs6u9oDspvYRg_7qchrono8calendar3sym5tests16test_deserialize
FN:735,_RNvNtNtNtNtCs6u9oDspvYRg_7qchrono8calendar3sym5tests16test_deserializes_6case_1
FN:735,_RNvNtNtNtNtCs6u9oDspvYRg_7qchrono8calendar3sym5tests16test_deserializes_6case_2
FN:735,_RNvNtNtNtNtCs6u9oDspvYRg_7qchrono8calendar3sym5tests16test_deserializes_6case_3
FN:735,_RNvNtNtNtNtCs6u9oDspvYRg_7qchrono8calendar3sym5tests16test_deserializes_6case_4
FN:749,_RNvNtNtNtCs6u9oDspvYRg_7qchrono8calendar3sym5testss_11test_leaves
FN:759,_RNvNtNtNtCs6u9oDspvYRg_7qchrono8calendar3sym5tests10test_bitor
FN:773,_RNvNtNtNtCs6u9oDspvYRg_7qchrono8calendar3sym5tests11test_bitand
FN:33,_RNvXNtNtCs6u9oDspvYRg_7qchrono8calendar3symNtB2_15CalendarSymAtomINtNtCs2fyPGiZs4Bj_4core6borrow6BorroweE6borrowB6_
FN:44,_RNvXs_NtNtCs6u9oDspvYRg_7qchrono8calendar3symNtB4_15CalendarSymAtomNtNtNtCs2fyPGiZs4Bj_4core3str6traits7FromStr8from_str
FN:60,_RNvXs1_NtNtCs6u9oDspvYRg_7qchrono8calendar3symNtB5_15CalendarSymAtomNtNtCs2fyPGiZs4Bj_4core3fmt7Display3fmtB9_
FN:89,_RINvMs4_NtNtCs6u9oDspvYRg_7qchrono8calendar3symNtB6_15CalendarSymAtom3newReEBa_
FN:91,_RNCINvMs4_NtNtCs6u9oDspvYRg_7qchrono8calendar3symNtB8_15CalendarSymAtom3newReE0Bc_
FN:116,_RNvMs6_NtNtCs6u9oDspvYRg_7qchrono8calendar3symNtB5_15CalendarSymAtom6as_strB9_
FN:173,_RNvXs7_NtNtCs6u9oDspvYRg_7qchrono8calendar3symNtB5_11CalendarSymNtNtNtCs2fyPGiZs4Bj_4core3str6traits7FromStr8from_str
FN:195,_RNCNvXs7_NtNtCs6u9oDspvYRg_7qchrono8calendar3symNtB7_11CalendarSymNtNtNtCs2fyPGiZs4Bj_4core3str6traits7FromStr8from_str0Bb_
FN:196,_RNCNvXs7_NtNtCs6u9oDspvYRg_7qchrono8calendar3symNtB7_11CalendarSymNtNtNtCs2fyPGiZs4Bj_4core3str6traits7FromStr8from_strs_0Bb_
FN:204,_RNvXs8_NtNtCs6u9oDspvYRg_7qchrono8calendar3symNtB5_11CalendarSymINtNtCs2fyPGiZs4Bj_4core7convert7TryFromReE8try_fromB9_
FN:210,_RNvXs9_NtNtCs6u9oDspvYRg_7qchrono8calendar3symNtB5_11CalendarSymNtNtCs2fyPGiZs4Bj_4core3fmt7Display3fmt
FN:242,_RINvXsa_NtNtCs6u9oDspvYRg_7qchrono8calendar3symNtB6_11CalendarSymNtNtCshDylzWGrM8d_5serde3ser9Serialize9serializeQINtNtCsjMEqcGD1gYq_10serde_json3ser10SerializerQINtNtCse0qyoMp9HeL_5alloc3vec3VechEEEBa_
FN:248,_RINvXsb_NtNtCs6u9oDspvYRg_7qchrono8calendar3symNtB6_11CalendarSymNtNtCshDylzWGrM8d_5serde2de11Deserialize11deserializeQINtNtCsjMEqcGD1gYq_10serde_json2de12DeserializerNtNtB1Y_4read7StrReadEEBa_
FN:298,_RINvMsd_NtNtCs6u9oDspvYRg_7qchrono8calendar3symNtB6_11CalendarSym9single_ofReEBa_
FN:308,_RINvMsd_NtNtCs6u9oDspvYRg_7qchrono8calendar3symNtB6_11CalendarSym13any_closed_ofBJ_ABJ_j2_EBa_
FN:308,_RINvMsd_NtNtCs6u9oDspvYRg_7qchrono8calendar3symNtB6_11CalendarSym13any_closed_ofReAB1g_j1_EBa_
FN:308,_RINvMsd_NtNtCs6u9oDspvYRg_7qchrono8calendar3symNtB6_11CalendarSym13any_closed_ofReAB1g_j2_EBa_
FN:308,_RINvMsd_NtNtCs6u9oDspvYRg_7qchrono8calendar3symNtB6_11CalendarSym13any_closed_ofReAB1g_j3_EBa_
FN:308,_RINvMsd_NtNtCs6u9oDspvYRg_7qchrono8calendar3symNtB6_11CalendarSym13any_closed_ofReINtNtCse0qyoMp9HeL_5alloc3vec3VecB1g_EEBa_
FN:308,_RINvMsd_NtNtCs6u9oDspvYRg_7qchrono8calendar3symNtB6_11CalendarSym13any_closed_ofReINtNtNtCs2fyPGiZs4Bj_4core5array4iter8IntoIterB1g_Kj2_EEBa_
FN:308,_RINvMsd_NtNtCs6u9oDspvYRg_7qchrono8calendar3symNtB6_11CalendarSym13any_closed_ofReINtNtNtCs2fyPGiZs4Bj_4core5array4iter8IntoIterB1g_Kj3_EEBa_
FN:326,_RNCINvMsd_NtNtCs6u9oDspvYRg_7qchrono8calendar3symNtB8_11CalendarSym13any_closed_ofBL_ABL_j2_E0Bc_
FN:326,_RNCINvMsd_NtNtCs6u9oDspvYRg_7qchrono8calendar3symNtB8_11CalendarSym13any_closed_ofReAB1i_j1_E0Bc_
FN:326,_RNCINvMsd_NtNtCs6u9oDspvYRg_7qchrono8calendar3symNtB8_11CalendarSym13any_closed_ofReAB1i_j2_E0Bc_
FN:326,_RNCINvMsd_NtNtCs6u9oDspvYRg_7qchrono8calendar3symNtB8_11CalendarSym13any_closed_ofReAB1i_j3_E0Bc_
FN:326,_RNCINvMsd_NtNtCs6u9oDspvYRg_7qchrono8calendar3symNtB8_11CalendarSym13any_closed_ofReINtNtCse0qyoMp9HeL_5alloc3vec3VecB1i_EE0Bc_
FN:326,_RNCINvMsd_NtNtCs6u9oDspvYRg_7qchrono8calendar3symNtB8_11CalendarSym13any_closed_ofReINtNtNtCs2fyPGiZs4Bj_4core5array4iter8IntoIterB1i_Kj2_EE0Bc_
FN:326,_RNCINvMsd_NtNtCs6u9oDspvYRg_7qchrono8calendar3symNtB8_11CalendarSym13any_closed_ofReINtNtNtCs2fyPGiZs4Bj_4core5array4iter8IntoIterB1i_Kj3_EE0Bc_
FN:335,_RINvMsd_NtNtCs6u9oDspvYRg_7qchrono8calendar3symNtB6_11CalendarSym13all_closed_ofBJ_ABJ_j2_EBa_
FN:335,_RINvMsd_NtNtCs6u9oDspvYRg_7qchrono8calendar3symNtB6_11CalendarSym13all_closed_ofReAB1g_j1_EBa_
FN:335,_RINvMsd_NtNtCs6u9oDspvYRg_7qchrono8calendar3symNtB6_11CalendarSym13all_closed_ofReAB1g_j2_EBa_
FN:335,_RINvMsd_NtNtCs6u9oDspvYRg_7qchrono8calendar3symNtB6_11CalendarSym13all_closed_ofReAB1g_j3_EBa_
FN:335,_RINvMsd_NtNtCs6u9oDspvYRg_7qchrono8calendar3symNtB6_11CalendarSym13all_closed_ofReINtNtCse0qyoMp9HeL_5alloc3vec3VecB1g_EEBa_
FN:335,_RINvMsd_NtNtCs6u9oDspvYRg_7qchrono8calendar3symNtB6_11CalendarSym13all_closed_ofReINtNtNtCs2fyPGiZs4Bj_4core5array4iter8IntoIterB1g_Kj2_EEBa_
FN:335,_RINvMsd_NtNtCs6u9oDspvYRg_7qchrono8calendar3symNtB6_11CalendarSym13all_closed_ofReINtNtNtCs2fyPGiZs4Bj_4core5array4iter8IntoIterB1g_Kj3_EEBa_
FN:353,_RNCINvMsd_NtNtCs6u9oDspvYRg_7qchrono8calendar3symNtB8_11CalendarSym13all_closed_ofBL_ABL_j2_E0Bc_
FN:353,_RNCINvMsd_NtNtCs6u9oDspvYRg_7qchrono8calendar3symNtB8_11CalendarSym13all_closed_ofReAB1i_j1_E0Bc_
FN:353,_RNCINvMsd_NtNtCs6u9oDspvYRg_7qchrono8calendar3symNtB8_11CalendarSym13all_closed_ofReAB1i_j2_E0Bc_
FN:353,_RNCINvMsd_NtNtCs6u9oDspvYRg_7qchrono8calendar3symNtB8_11CalendarSym13all_closed_ofReAB1i_j3_E0Bc_
FN:353,_RNCINvMsd_NtNtCs6u9oDspvYRg_7qchrono8calendar3symNtB8_11CalendarSym13all_closed_ofReINtNtCse0qyoMp9HeL_5alloc3vec3VecB1i_EE0Bc_
FN:353,_RNCINvMsd_NtNtCs6u9oDspvYRg_7qchrono8calendar3symNtB8_11CalendarSym13all_closed_ofReINtNtNtCs2fyPGiZs4Bj_4core5array4iter8IntoIterB1i_Kj2_EE0Bc_
FN:353,_RNCINvMsd_NtNtCs6u9oDspvYRg_7qchrono8calendar3symNtB8_11CalendarSym13all_closed_ofReINtNtNtCs2fyPGiZs4Bj_4core5array4iter8IntoIterB1i_Kj3_EE0Bc_
FN:375,_RNvMse_NtNtCs6u9oDspvYRg_7qchrono8calendar3symNtB5_11CalendarSym6leavesB9_
FN:382,_RNvMse_NtNtCs6u9oDspvYRg_7qchrono8calendar3symNtB5_11CalendarSym14collect_leavesB9_
FN:403,_RNvXsf_NtNtCs6u9oDspvYRg_7qchrono8calendar3symNtB5_11CalendarSymNtNtNtCs2fyPGiZs4Bj_4core3ops3bit5BitOr5bitorB9_
FN:413,_RNvXsg_NtNtCs6u9oDspvYRg_7qchrono8calendar3symNtB5_11CalendarSymNtNtNtCs2fyPGiZs4Bj_4core3ops3bit6BitAnd6bitandB9_
FN:174,_RNvMNtNvXs7_NtNtCs6u9oDspvYRg_7qchrono8calendar3symNtBa_11CalendarSymNtNtNtCs2fyPGiZs4Bj_4core3str6traits7FromStr8from_str7cal_symNtB2_10ParseState3new
FN:175,_RNvNtNvXs7_NtNtCs6u9oDspvYRg_7qchrono8calendar3symNtB9_11CalendarSymNtNtNtCs2fyPGiZs4Bj_4core3str6traits7FromStr8from_str7cal_sym14___parse_single
FN:176,_RNCNvNtNvXs7_NtNtCs6u9oDspvYRg_7qchrono8calendar3symNtBb_11CalendarSymNtNtNtCs2fyPGiZs4Bj_4core3str6traits7FromStr8from_str7cal_sym14___parse_single0Bf_
FN:181,_RNvNtNvXs7_NtNtCs6u9oDspvYRg_7qchrono8calendar3symNtB9_11CalendarSymNtNtNtCs2fyPGiZs4Bj_4core3str6traits7FromStr8from_str7cal_sym9___parse__
FN:184,_RNvNtNvXs7_NtNtCs6u9oDspvYRg_7qchrono8calendar3symNtB9_11CalendarSymNtNtNtCs2fyPGiZs4Bj_4core3str6traits7FromStr8from_str7cal_sym5parse
FN:184,_RNvNtNvXs7_NtNtCs6u9oDspvYRg_7qchrono8calendar3symNtB9_11CalendarSymNtNtNtCs2fyPGiZs4Bj_4core3str6traits7FromStr8from_str7cal_sym13___parse_parse
FN:184,_RINvNvNtNvXs7_NtNtCs6u9oDspvYRg_7qchrono8calendar3symNtBc_11CalendarSymNtNtNtCs2fyPGiZs4Bj_4core3str6traits7FromStr8from_str7cal_sym13___parse_parse13___infix_parseBP_NtB4_10ParseStateEBg_
FN:184,_RNCINvNvNtNvXs7_NtNtCs6u9oDspvYRg_7qchrono8calendar3symNtBe_11CalendarSymNtNtNtCs2fyPGiZs4Bj_4core3str6traits7FromStr8from_str7cal_sym13___parse_parse13___infix_parseBR_NtB6_10ParseStateE0Bi_
FN:184,_RNCINvNvNtNvXs7_NtNtCs6u9oDspvYRg_7qchrono8calendar3symNtBe_11CalendarSymNtNtNtCs2fyPGiZs4Bj_4core3str6traits7FromStr8from_str7cal_sym13___parse_parse13___infix_parseBR_NtB6_10ParseStateEs_0Bi_
FN:184,_RNCNvNtNvXs7_NtNtCs6u9oDspvYRg_7qchrono8calendar3symNtBb_11CalendarSymNtNtNtCs2fyPGiZs4Bj_4core3str6traits7FromStr8from_str7cal_sym13___parse_parse0Bf_
FN:189,_RNCNCNvNtNvXs7_NtNtCs6u9oDspvYRg_7qchrono8calendar3symNtBd_11CalendarSymNtNtNtCs2fyPGiZs4Bj_4core3str6traits7FromStr8from_str7cal_sym13___parse_parse00Bh_
FN:190,_RNCNCNvNtNvXs7_NtNtCs6u9oDspvYRg_7qchrono8calendar3symNtBd_11CalendarSymNtNtNtCs2fyPGiZs4Bj_4core3str6traits7FromStr8from_str7cal_sym13___parse_parse0s_0Bh_
FN:184,_RNCNvNtNvXs7_NtNtCs6u9oDspvYRg_7qchrono8calendar3symNtBb_11CalendarSymNtNtNtCs2fyPGiZs4Bj_4core3str6traits7FromStr8from_str7cal_sym13___parse_parses_0Bf_
FN:185,_RNCNCNvNtNvXs7_NtNtCs6u9oDspvYRg_7qchrono8calendar3symNtBd_11CalendarSymNtNtNtCs2fyPGiZs4Bj_4core3str6traits7FromStr8from_str7cal_sym13___parse_parses_00Bh_
FN:187,_RNCNCNvNtNvXs7_NtNtCs6u9oDspvYRg_7qchrono8calendar3symNtBd_11CalendarSymNtNtNtCs2fyPGiZs4Bj_4core3str6traits7FromStr8from_str7cal_sym13___parse_parses_0s_0Bh_
FN:773,_RNvNtNtNtNtCs6u9oDspvYRg_7qchrono8calendar3sym5tests11test_bitands_6case_1
FN:773,_RNvNtNtNtNtCs6u9oDspvYRg_7qchrono8calendar3sym5tests11test_bitands_6case_2
FN:773,_RNvNtNtNtNtCs6u9oDspvYRg_7qchrono8calendar3sym5tests11test_bitands_6case_3
FN:425,_RNvNtNtNtNtCs6u9oDspvYRg_7qchrono8calendar3sym5tests13test_atom_news_6case_1
FN:425,_RNvNtNtNtNtCs6u9oDspvYRg_7qchrono8calendar3sym5tests13test_atom_news_6case_2
FN:425,_RNvNtNtNtNtCs6u9oDspvYRg_7qchrono8calendar3sym5tests13test_atom_news_6case_3
FN:425,_RNvNtNtNtNtCs6u9oDspvYRg_7qchrono8calendar3sym5tests13test_atom_news_6case_4
FN:425,_RNvNtNtNtNtCs6u9oDspvYRg_7qchrono8calendar3sym5tests13test_atom_news_6case_5
FN:425,_RNvNtNtNtNtCs6u9oDspvYRg_7qchrono8calendar3sym5tests13test_atom_news_6case_6
FN:425,_RNvNtNtNtNtCs6u9oDspvYRg_7qchrono8calendar3sym5tests13test_atom_news_6case_7
FN:425,_RNvNtNtNtNtCs6u9oDspvYRg_7qchrono8calendar3sym5tests13test_atom_news_6case_8
FN:53,_RNvXs0_NtNtCs6u9oDspvYRg_7qchrono8calendar3symNtB5_15CalendarSymAtomINtNtCs2fyPGiZs4Bj_4core7convert7TryFromReE8try_fromB9_
FN:67,_RINvXs2_NtNtCs6u9oDspvYRg_7qchrono8calendar3symNtB6_15CalendarSymAtomNtNtCshDylzWGrM8d_5serde3ser9Serialize9serializepEBa_
FN:74,_RINvXs3_NtNtCs6u9oDspvYRg_7qchrono8calendar3symNtB6_15CalendarSymAtomNtNtCshDylzWGrM8d_5serde2de11Deserialize11deserializepEBa_
FN:105,_RNvXs5_NtNtCs6u9oDspvYRg_7qchrono8calendar3symNtNtCse0qyoMp9HeL_5alloc6string6StringINtNtCs2fyPGiZs4Bj_4core7convert4FromNtB5_15CalendarSymAtomE4fromB9_
FN:122,_RNvMs6_NtNtCs6u9oDspvYRg_7qchrono8calendar3symNtB5_15CalendarSymAtom4takeB9_
FN:254,_RNvXsc_NtNtCs6u9oDspvYRg_7qchrono8calendar3symNtB5_11CalendarSymNtCsfZgeB9GPpUp_8schemars10JsonSchema11schema_name
FN:257,_RNvXsc_NtNtCs6u9oDspvYRg_7qchrono8calendar3symNtB5_11CalendarSymNtCsfZgeB9GPpUp_8schemars10JsonSchema9schema_id
FN:260,_RNvXsc_NtNtCs6u9oDspvYRg_7qchrono8calendar3symNtB5_11CalendarSymNtCsfZgeB9GPpUp_8schemars10JsonSchema11json_schema
FN:116,_RNvMs6_NtNtCs2bSmrEEol5z_7qchrono8calendar3symNtB5_15CalendarSymAtom6as_strCslNfvs0bCstK_8qfincore
FN:382,_RNvMse_NtNtCs2bSmrEEol5z_7qchrono8calendar3symNtB5_11CalendarSym14collect_leavesCslNfvs0bCstK_8qfincore
FN:375,_RNvMse_NtNtCs2bSmrEEol5z_7qchrono8calendar3symNtB5_11CalendarSym6leavesCslNfvs0bCstK_8qfincore
FN:44,_RNvXs_NtNtCs2bSmrEEol5z_7qchrono8calendar3symNtB4_15CalendarSymAtomNtNtNtCs2fyPGiZs4Bj_4core3str6traits7FromStr8from_str
FN:60,_RNvXs1_NtNtCs2bSmrEEol5z_7qchrono8calendar3symNtB5_15CalendarSymAtomNtNtCs2fyPGiZs4Bj_4core3fmt7Display3fmtB9_
FN:89,_RINvMs4_NtNtCs2bSmrEEol5z_7qchrono8calendar3symNtB6_15CalendarSymAtom3newReEBa_
FN:91,_RNCINvMs4_NtNtCs2bSmrEEol5z_7qchrono8calendar3symNtB8_15CalendarSymAtom3newReE0Bc_
FN:173,_RNvXs7_NtNtCs2bSmrEEol5z_7qchrono8calendar3symNtB5_11CalendarSymNtNtNtCs2fyPGiZs4Bj_4core3str6traits7FromStr8from_str
FN:195,_RNCNvXs7_NtNtCs2bSmrEEol5z_7qchrono8calendar3symNtB7_11CalendarSymNtNtNtCs2fyPGiZs4Bj_4core3str6traits7FromStr8from_str0Bb_
FN:196,_RNCNvXs7_NtNtCs2bSmrEEol5z_7qchrono8calendar3symNtB7_11CalendarSymNtNtNtCs2fyPGiZs4Bj_4core3str6traits7FromStr8from_strs_0Bb_
FN:210,_RNvXs9_NtNtCs2bSmrEEol5z_7qchrono8calendar3symNtB5_11CalendarSymNtNtCs2fyPGiZs4Bj_4core3fmt7Display3fmt
FN:254,_RNvXsc_NtNtCs2bSmrEEol5z_7qchrono8calendar3symNtB5_11CalendarSymNtCsfZgeB9GPpUp_8schemars10JsonSchema11schema_name
FN:257,_RNvXsc_NtNtCs2bSmrEEol5z_7qchrono8calendar3symNtB5_11CalendarSymNtCsfZgeB9GPpUp_8schemars10JsonSchema9schema_id
FN:260,_RNvXsc_NtNtCs2bSmrEEol5z_7qchrono8calendar3symNtB5_11CalendarSymNtCsfZgeB9GPpUp_8schemars10JsonSchema11json_schema
FN:298,_RINvMsd_NtNtCs2bSmrEEol5z_7qchrono8calendar3symNtB6_11CalendarSym9single_ofReEBa_
FN:308,_RINvMsd_NtNtCs2bSmrEEol5z_7qchrono8calendar3symNtB6_11CalendarSym13any_closed_ofBJ_ABJ_j2_EBa_
FN:326,_RNCINvMsd_NtNtCs2bSmrEEol5z_7qchrono8calendar3symNtB8_11CalendarSym13any_closed_ofBL_ABL_j2_E0Bc_
FN:335,_RINvMsd_NtNtCs2bSmrEEol5z_7qchrono8calendar3symNtB6_11CalendarSym13all_closed_ofBJ_ABJ_j2_EBa_
FN:353,_RNCINvMsd_NtNtCs2bSmrEEol5z_7qchrono8calendar3symNtB8_11CalendarSym13all_closed_ofBL_ABL_j2_E0Bc_
FN:403,_RNvXsf_NtNtCs2bSmrEEol5z_7qchrono8calendar3symNtB5_11CalendarSymNtNtNtCs2fyPGiZs4Bj_4core3ops3bit5BitOr5bitorB9_
FN:413,_RNvXsg_NtNtCs2bSmrEEol5z_7qchrono8calendar3symNtB5_11CalendarSymNtNtNtCs2fyPGiZs4Bj_4core3ops3bit6BitAnd6bitandB9_
FN:174,_RNvMNtNvXs7_NtNtCs2bSmrEEol5z_7qchrono8calendar3symNtBa_11CalendarSymNtNtNtCs2fyPGiZs4Bj_4core3str6traits7FromStr8from_str7cal_symNtB2_10ParseState3new
FN:175,_RNvNtNvXs7_NtNtCs2bSmrEEol5z_7qchrono8calendar3symNtB9_11CalendarSymNtNtNtCs2fyPGiZs4Bj_4core3str6traits7FromStr8from_str7cal_sym14___parse_single
FN:176,_RNCNvNtNvXs7_NtNtCs2bSmrEEol5z_7qchrono8calendar3symNtBb_11CalendarSymNtNtNtCs2fyPGiZs4Bj_4core3str6traits7FromStr8from_str7cal_sym14___parse_single0Bf_
FN:181,_RNvNtNvXs7_NtNtCs2bSmrEEol5z_7qchrono8calendar3symNtB9_11CalendarSymNtNtNtCs2fyPGiZs4Bj_4core3str6traits7FromStr8from_str7cal_sym9___parse__
FN:184,_RNvNtNvXs7_NtNtCs2bSmrEEol5z_7qchrono8calendar3symNtB9_11CalendarSymNtNtNtCs2fyPGiZs4Bj_4core3str6traits7FromStr8from_str7cal_sym5parse
FN:184,_RNvNtNvXs7_NtNtCs2bSmrEEol5z_7qchrono8calendar3symNtB9_11CalendarSymNtNtNtCs2fyPGiZs4Bj_4core3str6traits7FromStr8from_str7cal_sym13___parse_parse
FN:184,_RINvNvNtNvXs7_NtNtCs2bSmrEEol5z_7qchrono8calendar3symNtBc_11CalendarSymNtNtNtCs2fyPGiZs4Bj_4core3str6traits7FromStr8from_str7cal_sym13___parse_parse13___infix_parseBP_NtB4_10ParseStateEBg_
FN:184,_RNCINvNvNtNvXs7_NtNtCs2bSmrEEol5z_7qchrono8calendar3symNtBe_11CalendarSymNtNtNtCs2fyPGiZs4Bj_4core3str6traits7FromStr8from_str7cal_sym13___parse_parse13___infix_parseBR_NtB6_10ParseStateE0Bi_
FN:184,_RNCINvNvNtNvXs7_NtNtCs2bSmrEEol5z_7qchrono8calendar3symNtBe_11CalendarSymNtNtNtCs2fyPGiZs4Bj_4core3str6traits7FromStr8from_str7cal_sym13___parse_parse13___infix_parseBR_NtB6_10ParseStateEs_0Bi_
FN:184,_RNCNvNtNvXs7_NtNtCs2bSmrEEol5z_7qchrono8calendar3symNtBb_11CalendarSymNtNtNtCs2fyPGiZs4Bj_4core3str6traits7FromStr8from_str7cal_sym13___parse_parse0Bf_
FN:189,_RNCNCNvNtNvXs7_NtNtCs2bSmrEEol5z_7qchrono8calendar3symNtBd_11CalendarSymNtNtNtCs2fyPGiZs4Bj_4core3str6traits7FromStr8from_str7cal_sym13___parse_parse00Bh_
FN:190,_RNCNCNvNtNvXs7_NtNtCs2bSmrEEol5z_7qchrono8calendar3symNtBd_11CalendarSymNtNtNtCs2fyPGiZs4Bj_4core3str6traits7FromStr8from_str7cal_sym13___parse_parse0s_0Bh_
FN:184,_RNCNvNtNvXs7_NtNtCs2bSmrEEol5z_7qchrono8calendar3symNtBb_11CalendarSymNtNtNtCs2fyPGiZs4Bj_4core3str6traits7FromStr8from_str7cal_sym13___parse_parses_0Bf_
FN:185,_RNCNCNvNtNvXs7_NtNtCs2bSmrEEol5z_7qchrono8calendar3symNtBd_11CalendarSymNtNtNtCs2fyPGiZs4Bj_4core3str6traits7FromStr8from_str7cal_sym13___parse_parses_00Bh_
FN:187,_RNCNCNvNtNvXs7_NtNtCs2bSmrEEol5z_7qchrono8calendar3symNtBd_11CalendarSymNtNtNtCs2fyPGiZs4Bj_4core3str6traits7FromStr8from_str7cal_sym13___parse_parses_0s_0Bh_
FN:33,_RNvXNtNtCs2bSmrEEol5z_7qchrono8calendar3symNtB2_15CalendarSymAtomINtNtCs2fyPGiZs4Bj_4core6borrow6BorroweE6borrowB6_
FN:53,_RNvXs0_NtNtCs2bSmrEEol5z_7qchrono8calendar3symNtB5_15CalendarSymAtomINtNtCs2fyPGiZs4Bj_4core7convert7TryFromReE8try_fromB9_
FN:67,_RINvXs2_NtNtCs2bSmrEEol5z_7qchrono8calendar3symNtB6_15CalendarSymAtomNtNtCshDylzWGrM8d_5serde3ser9Serialize9serializepEBa_
FN:74,_RINvXs3_NtNtCs2bSmrEEol5z_7qchrono8calendar3symNtB6_15CalendarSymAtomNtNtCshDylzWGrM8d_5serde2de11Deserialize11deserializepEBa_
FN:105,_RNvXs5_NtNtCs2bSmrEEol5z_7qchrono8calendar3symNtNtCse0qyoMp9HeL_5alloc6string6StringINtNtCs2fyPGiZs4Bj_4core7convert4FromNtB5_15CalendarSymAtomE4fromB9_
FN:116,_RNvMs6_NtNtCs2bSmrEEol5z_7qchrono8calendar3symNtB5_15CalendarSymAtom6as_strB9_
FN:122,_RNvMs6_NtNtCs2bSmrEEol5z_7qchrono8calendar3symNtB5_15CalendarSymAtom4takeB9_
FN:204,_RNvXs8_NtNtCs2bSmrEEol5z_7qchrono8calendar3symNtB5_11CalendarSymINtNtCs2fyPGiZs4Bj_4core7convert7TryFromReE8try_fromB9_
FN:242,_RINvXsa_NtNtCs2bSmrEEol5z_7qchrono8calendar3symNtB6_11CalendarSymNtNtCshDylzWGrM8d_5serde3ser9Serialize9serializepEBa_
FN:248,_RINvXsb_NtNtCs2bSmrEEol5z_7qchrono8calendar3symNtB6_11CalendarSymNtNtCshDylzWGrM8d_5serde2de11Deserialize11deserializepEBa_
FN:375,_RNvMse_NtNtCs2bSmrEEol5z_7qchrono8calendar3symNtB5_11CalendarSym6leavesB9_
FN:382,_RNvMse_NtNtCs2bSmrEEol5z_7qchrono8calendar3symNtB5_11CalendarSym14collect_leavesB9_
FN:382,_RNvMse_NtNtCs2bSmrEEol5z_7qchrono8calendar3symNtB5_11CalendarSym14collect_leavesCsg8mytIw4ZXd_6qmodel
FN:375,_RNvMse_NtNtCs2bSmrEEol5z_7qchrono8calendar3symNtB5_11CalendarSym6leavesCsg8mytIw4ZXd_6qmodel
FNDA:1,_RNvNtNtNtNtCs6u9oDspvYRg_7qchrono8calendar3sym5tests10test_bitors_6case_1
FNDA:1,_RNvNtNtNtNtCs6u9oDspvYRg_7qchrono8calendar3sym5tests10test_bitors_6case_2
FNDA:1,_RNvNtNtNtNtCs6u9oDspvYRg_7qchrono8calendar3sym5tests10test_bitors_6case_3
FNDA:8,_RNvNtNtNtCs6u9oDspvYRg_7qchrono8calendar3sym5tests13test_atom_new
FNDA:8,_RNvNtNtNtCs6u9oDspvYRg_7qchrono8calendar3sym5tests14test_single_of
FNDA:1,_RNvNtNtNtNtCs6u9oDspvYRg_7qchrono8calendar3sym5tests14test_single_ofs_6case_1
FNDA:1,_RNvNtNtNtNtCs6u9oDspvYRg_7qchrono8calendar3sym5tests14test_single_ofs_6case_2
FNDA:1,_RNvNtNtNtNtCs6u9oDspvYRg_7qchrono8calendar3sym5tests14test_single_ofs_6case_3
FNDA:1,_RNvNtNtNtNtCs6u9oDspvYRg_7qchrono8calendar3sym5tests14test_single_ofs_6case_4
FNDA:1,_RNvNtNtNtNtCs6u9oDspvYRg_7qchrono8calendar3sym5tests14test_single_ofs_6case_5
FNDA:1,_RNvNtNtNtNtCs6u9oDspvYRg_7qchrono8calendar3sym5tests14test_single_ofs_6case_6
FNDA:1,_RNvNtNtNtNtCs6u9oDspvYRg_7qchrono8calendar3sym5tests14test_single_ofs_6case_7
FNDA:1,_RNvNtNtNtNtCs6u9oDspvYRg_7qchrono8calendar3sym5tests14test_single_ofs_6case_8
FNDA:1,_RNvNtNtNtCs6u9oDspvYRg_7qchrono8calendar3sym5testss_18test_all_closed_of
FNDA:1,_RNvNtNtNtCs6u9oDspvYRg_7qchrono8calendar3sym5testss_18test_any_closed_of
FNDA:1,_RNvNtNtNtCs6u9oDspvYRg_7qchrono8calendar3sym5testss_13test_from_str
FNDA:4,_RNvNtNtNtCs6u9oDspvYRg_7qchrono8calendar3sym5tests12test_display
FNDA:1,_RNvNtNtNtNtCs6u9oDspvYRg_7qchrono8calendar3sym5tests12test_displays_6case_1
FNDA:1,_RNvNtNtNtNtCs6u9oDspvYRg_7qchrono8calendar3sym5tests12test_displays_6case_2
FNDA:1,_RNvNtNtNtNtCs6u9oDspvYRg_7qchrono8calendar3sym5tests12test_displays_6case_3
FNDA:1,_RNvNtNtNtNtCs6u9oDspvYRg_7qchrono8calendar3sym5tests12test_displays_6case_4
FNDA:4,_RNvNtNtNtCs6u9oDspvYRg_7qchrono8calendar3sym5tests14test_serialize
FNDA:1,_RNvNtNtNtNtCs6u9oDspvYRg_7qchrono8calendar3sym5tests14test_serializes_6case_1
FNDA:1,_RNvNtNtNtNtCs6u9oDspvYRg_7qchrono8calendar3sym5tests14test_serializes_6case_2
FNDA:1,_RNvNtNtNtNtCs6u9oDspvYRg_7qchrono8calendar3sym5tests14test_serializes_6case_3
FNDA:1,_RNvNtNtNtNtCs6u9oDspvYRg_7qchrono8calendar3sym5tests14test_serializes_6case_4
FNDA:4,_RNvNtNtNtCs6u9oDspvYRg_7qchrono8calendar3sym5tests16test_deserialize
FNDA:1,_RNvNtNtNtNtCs6u9oDspvYRg_7qchrono8calendar3sym5tests16test_deserializes_6case_1
FNDA:1,_RNvNtNtNtNtCs6u9oDspvYRg_7qchrono8calendar3sym5tests16test_deserializes_6case_2
FNDA:1,_RNvNtNtNtNtCs6u9oDspvYRg_7qchrono8calendar3sym5tests16test_deserializes_6case_3
FNDA:1,_RNvNtNtNtNtCs6u9oDspvYRg_7qchrono8calendar3sym5tests16test_deserializes_6case_4
FNDA:1,_RNvNtNtNtCs6u9oDspvYRg_7qchrono8calendar3sym5testss_11test_leaves
FNDA:3,_RNvNtNtNtCs6u9oDspvYRg_7qchrono8calendar3sym5tests10test_bitor
FNDA:3,_RNvNtNtNtCs6u9oDspvYRg_7qchrono8calendar3sym5tests11test_bitand
FNDA:6,_RNvXNtNtCs6u9oDspvYRg_7qchrono8calendar3symNtB2_15CalendarSymAtomINtNtCs2fyPGiZs4Bj_4core6borrow6BorroweE6borrowB6_
FNDA:8,_RNvXs_NtNtCs6u9oDspvYRg_7qchrono8calendar3symNtB4_15CalendarSymAtomNtNtNtCs2fyPGiZs4Bj_4core3str6traits7FromStr8from_str
FNDA:36,_RNvXs1_NtNtCs6u9oDspvYRg_7qchrono8calendar3symNtB5_15CalendarSymAtomNtNtCs2fyPGiZs4Bj_4core3fmt7Display3fmtB9_
FNDA:313,_RINvMs4_NtNtCs6u9oDspvYRg_7qchrono8calendar3symNtB6_15CalendarSymAtom3newReEBa_
FNDA:706,_RNCINvMs4_NtNtCs6u9oDspvYRg_7qchrono8calendar3symNtB8_15CalendarSymAtom3newReE0Bc_
FNDA:2,_RNvMs6_NtNtCs6u9oDspvYRg_7qchrono8calendar3symNtB5_15CalendarSymAtom6as_strB9_
FNDA:126,_RNvXs7_NtNtCs6u9oDspvYRg_7qchrono8calendar3symNtB5_11CalendarSymNtNtNtCs2fyPGiZs4Bj_4core3str6traits7FromStr8from_str
FNDA:10,_RNCNvXs7_NtNtCs6u9oDspvYRg_7qchrono8calendar3symNtB7_11CalendarSymNtNtNtCs2fyPGiZs4Bj_4core3str6traits7FromStr8from_str0Bb_
FNDA:10,_RNCNvXs7_NtNtCs6u9oDspvYRg_7qchrono8calendar3symNtB7_11CalendarSymNtNtNtCs2fyPGiZs4Bj_4core3str6traits7FromStr8from_strs_0Bb_
FNDA:64,_RNvXs8_NtNtCs6u9oDspvYRg_7qchrono8calendar3symNtB5_11CalendarSymINtNtCs2fyPGiZs4Bj_4core7convert7TryFromReE8try_fromB9_
FNDA:56,_RNvXs9_NtNtCs6u9oDspvYRg_7qchrono8calendar3symNtB5_11CalendarSymNtNtCs2fyPGiZs4Bj_4core3fmt7Display3fmt
FNDA:8,_RINvXsa_NtNtCs6u9oDspvYRg_7qchrono8calendar3symNtB6_11CalendarSymNtNtCshDylzWGrM8d_5serde3ser9Serialize9serializeQINtNtCsjMEqcGD1gYq_10serde_json3ser10SerializerQINtNtCse0qyoMp9HeL_5alloc3vec3VechEEEBa_
FNDA:4,_RINvXsb_NtNtCs6u9oDspvYRg_7qchrono8calendar3symNtB6_11CalendarSymNtNtCshDylzWGrM8d_5serde2de11Deserialize11deserializeQINtNtCsjMEqcGD1gYq_10serde_json2de12DeserializerNtNtB1Y_4read7StrReadEEBa_
FNDA:240,_RINvMsd_NtNtCs6u9oDspvYRg_7qchrono8calendar3symNtB6_11CalendarSym9single_ofReEBa_
FNDA:47,_RINvMsd_NtNtCs6u9oDspvYRg_7qchrono8calendar3symNtB6_11CalendarSym13any_closed_ofBJ_ABJ_j2_EBa_
FNDA:1,_RINvMsd_NtNtCs6u9oDspvYRg_7qchrono8calendar3symNtB6_11CalendarSym13any_closed_ofReAB1g_j1_EBa_
FNDA:5,_RINvMsd_NtNtCs6u9oDspvYRg_7qchrono8calendar3symNtB6_11CalendarSym13any_closed_ofReAB1g_j2_EBa_
FNDA:2,_RINvMsd_NtNtCs6u9oDspvYRg_7qchrono8calendar3symNtB6_11CalendarSym13any_closed_ofReAB1g_j3_EBa_
FNDA:1,_RINvMsd_NtNtCs6u9oDspvYRg_7qchrono8calendar3symNtB6_11CalendarSym13any_closed_ofReINtNtCse0qyoMp9HeL_5alloc3vec3VecB1g_EEBa_
FNDA:5,_RINvMsd_NtNtCs6u9oDspvYRg_7qchrono8calendar3symNtB6_11CalendarSym13any_closed_ofReINtNtNtCs2fyPGiZs4Bj_4core5array4iter8IntoIterB1g_Kj2_EEBa_
FNDA:4,_RINvMsd_NtNtCs6u9oDspvYRg_7qchrono8calendar3symNtB6_11CalendarSym13any_closed_ofReINtNtNtCs2fyPGiZs4Bj_4core5array4iter8IntoIterB1g_Kj3_EEBa_
FNDA:0,_RNCINvMsd_NtNtCs6u9oDspvYRg_7qchrono8calendar3symNtB8_11CalendarSym13any_closed_ofBL_ABL_j2_E0Bc_
FNDA:0,_RNCINvMsd_NtNtCs6u9oDspvYRg_7qchrono8calendar3symNtB8_11CalendarSym13any_closed_ofReAB1i_j1_E0Bc_
FNDA:0,_RNCINvMsd_NtNtCs6u9oDspvYRg_7qchrono8calendar3symNtB8_11CalendarSym13any_closed_ofReAB1i_j2_E0Bc_
FNDA:0,_RNCINvMsd_NtNtCs6u9oDspvYRg_7qchrono8calendar3symNtB8_11CalendarSym13any_closed_ofReAB1i_j3_E0Bc_
FNDA:1,_RNCINvMsd_NtNtCs6u9oDspvYRg_7qchrono8calendar3symNtB8_11CalendarSym13any_closed_ofReINtNtCse0qyoMp9HeL_5alloc3vec3VecB1i_EE0Bc_
FNDA:0,_RNCINvMsd_NtNtCs6u9oDspvYRg_7qchrono8calendar3symNtB8_11CalendarSym13any_closed_ofReINtNtNtCs2fyPGiZs4Bj_4core5array4iter8IntoIterB1i_Kj2_EE0Bc_
FNDA:0,_RNCINvMsd_NtNtCs6u9oDspvYRg_7qchrono8calendar3symNtB8_11CalendarSym13any_closed_ofReINtNtNtCs2fyPGiZs4Bj_4core5array4iter8IntoIterB1i_Kj3_EE0Bc_
FNDA:41,_RINvMsd_NtNtCs6u9oDspvYRg_7qchrono8calendar3symNtB6_11CalendarSym13all_closed_ofBJ_ABJ_j2_EBa_
FNDA:1,_RINvMsd_NtNtCs6u9oDspvYRg_7qchrono8calendar3symNtB6_11CalendarSym13all_closed_ofReAB1g_j1_EBa_
FNDA:4,_RINvMsd_NtNtCs6u9oDspvYRg_7qchrono8calendar3symNtB6_11CalendarSym13all_closed_ofReAB1g_j2_EBa_
FNDA:2,_RINvMsd_NtNtCs6u9oDspvYRg_7qchrono8calendar3symNtB6_11CalendarSym13all_closed_ofReAB1g_j3_EBa_
FNDA:1,_RINvMsd_NtNtCs6u9oDspvYRg_7qchrono8calendar3symNtB6_11CalendarSym13all_closed_ofReINtNtCse0qyoMp9HeL_5alloc3vec3VecB1g_EEBa_
FNDA:3,_RINvMsd_NtNtCs6u9oDspvYRg_7qchrono8calendar3symNtB6_11CalendarSym13all_closed_ofReINtNtNtCs2fyPGiZs4Bj_4core5array4iter8IntoIterB1g_Kj2_EEBa_
FNDA:2,_RINvMsd_NtNtCs6u9oDspvYRg_7qchrono8calendar3symNtB6_11CalendarSym13all_closed_ofReINtNtNtCs2fyPGiZs4Bj_4core5array4iter8IntoIterB1g_Kj3_EEBa_
FNDA:0,_RNCINvMsd_NtNtCs6u9oDspvYRg_7qchrono8calendar3symNtB8_11CalendarSym13all_closed_ofBL_ABL_j2_E0Bc_
FNDA:0,_RNCINvMsd_NtNtCs6u9oDspvYRg_7qchrono8calendar3symNtB8_11CalendarSym13all_closed_ofReAB1i_j1_E0Bc_
FNDA:0,_RNCINvMsd_NtNtCs6u9oDspvYRg_7qchrono8calendar3symNtB8_11CalendarSym13all_closed_ofReAB1i_j2_E0Bc_
FNDA:0,_RNCINvMsd_NtNtCs6u9oDspvYRg_7qchrono8calendar3symNtB8_11CalendarSym13all_closed_ofReAB1i_j3_E0Bc_
FNDA:1,_RNCINvMsd_NtNtCs6u9oDspvYRg_7qchrono8calendar3symNtB8_11CalendarSym13all_closed_ofReINtNtCse0qyoMp9HeL_5alloc3vec3VecB1i_EE0Bc_
FNDA:0,_RNCINvMsd_NtNtCs6u9oDspvYRg_7qchrono8calendar3symNtB8_11CalendarSym13all_closed_ofReINtNtNtCs2fyPGiZs4Bj_4core5array4iter8IntoIterB1i_Kj2_EE0Bc_
FNDA:0,_RNCINvMsd_NtNtCs6u9oDspvYRg_7qchrono8calendar3symNtB8_11CalendarSym13all_closed_ofReINtNtNtCs2fyPGiZs4Bj_4core5array4iter8IntoIterB1i_Kj3_EE0Bc_
FNDA:6,_RNvMse_NtNtCs6u9oDspvYRg_7qchrono8calendar3symNtB5_11CalendarSym6leavesB9_
FNDA:21,_RNvMse_NtNtCs6u9oDspvYRg_7qchrono8calendar3symNtB5_11CalendarSym14collect_leavesB9_
FNDA:47,_RNvXsf_NtNtCs6u9oDspvYRg_7qchrono8calendar3symNtB5_11CalendarSymNtNtNtCs2fyPGiZs4Bj_4core3ops3bit5BitOr5bitorB9_
FNDA:41,_RNvXsg_NtNtCs6u9oDspvYRg_7qchrono8calendar3symNtB5_11CalendarSymNtNtNtCs2fyPGiZs4Bj_4core3ops3bit6BitAnd6bitandB9_
FNDA:136,_RNvMNtNvXs7_NtNtCs6u9oDspvYRg_7qchrono8calendar3symNtBa_11CalendarSymNtNtNtCs2fyPGiZs4Bj_4core3str6traits7FromStr8from_str7cal_symNtB2_10ParseState3new
FNDA:226,_RNvNtNvXs7_NtNtCs6u9oDspvYRg_7qchrono8calendar3symNtB9_11CalendarSymNtNtNtCs2fyPGiZs4Bj_4core3str6traits7FromStr8from_str7cal_sym14___parse_single
FNDA:204,_RNCNvNtNvXs7_NtNtCs6u9oDspvYRg_7qchrono8calendar3symNtBb_11CalendarSymNtNtNtCs2fyPGiZs4Bj_4core3str6traits7FromStr8from_str7cal_sym14___parse_single0Bf_
FNDA:551,_RNvNtNvXs7_NtNtCs6u9oDspvYRg_7qchrono8calendar3symNtB9_11CalendarSymNtNtNtCs2fyPGiZs4Bj_4core3str6traits7FromStr8from_str7cal_sym9___parse__
FNDA:126,_RNvNtNvXs7_NtNtCs6u9oDspvYRg_7qchrono8calendar3symNtB9_11CalendarSymNtNtNtCs2fyPGiZs4Bj_4core3str6traits7FromStr8from_str7cal_sym5parse
FNDA:153,_RNvNtNvXs7_NtNtCs6u9oDspvYRg_7qchrono8calendar3symNtB9_11CalendarSymNtNtNtCs2fyPGiZs4Bj_4core3str6traits7FromStr8from_str7cal_sym13___parse_parse
FNDA:241,_RINvNvNtNvXs7_NtNtCs6u9oDspvYRg_7qchrono8calendar3symNtBc_11CalendarSymNtNtNtCs2fyPGiZs4Bj_4core3str6traits7FromStr8from_str7cal_sym13___parse_parse13___infix_parseBP_NtB4_10ParseStateEBg_
FNDA:0,_RNCINvNvNtNvXs7_NtNtCs6u9oDspvYRg_7qchrono8calendar3symNtBe_11CalendarSymNtNtNtCs2fyPGiZs4Bj_4core3str6traits7FromStr8from_str7cal_sym13___parse_parse13___infix_parseBR_NtB6_10ParseStateE0Bi_
FNDA:88,_RNCINvNvNtNvXs7_NtNtCs6u9oDspvYRg_7qchrono8calendar3symNtBe_11CalendarSymNtNtNtCs2fyPGiZs4Bj_4core3str6traits7FromStr8from_str7cal_sym13___parse_parse13___infix_parseBR_NtB6_10ParseStateEs_0Bi_
FNDA:241,_RNCNvNtNvXs7_NtNtCs6u9oDspvYRg_7qchrono8calendar3symNtBb_11CalendarSymNtNtNtCs2fyPGiZs4Bj_4core3str6traits7FromStr8from_str7cal_sym13___parse_parse0Bf_
FNDA:15,_RNCNCNvNtNvXs7_NtNtCs6u9oDspvYRg_7qchrono8calendar3symNtBd_11CalendarSymNtNtNtCs2fyPGiZs4Bj_4core3str6traits7FromStr8from_str7cal_sym13___parse_parse00Bh_
FNDA:204,_RNCNCNvNtNvXs7_NtNtCs6u9oDspvYRg_7qchrono8calendar3symNtBd_11CalendarSymNtNtNtCs2fyPGiZs4Bj_4core3str6traits7FromStr8from_str7cal_sym13___parse_parse0s_0Bh_
FNDA:301,_RNCNvNtNvXs7_NtNtCs6u9oDspvYRg_7qchrono8calendar3symNtBb_11CalendarSymNtNtNtCs2fyPGiZs4Bj_4core3str6traits7FromStr8from_str7cal_sym13___parse_parses_0Bf_
FNDA:44,_RNCNCNvNtNvXs7_NtNtCs6u9oDspvYRg_7qchrono8calendar3symNtBd_11CalendarSymNtNtNtCs2fyPGiZs4Bj_4core3str6traits7FromStr8from_str7cal_sym13___parse_parses_00Bh_
FNDA:38,_RNCNCNvNtNvXs7_NtNtCs6u9oDspvYRg_7qchrono8calendar3symNtBd_11CalendarSymNtNtNtCs2fyPGiZs4Bj_4core3str6traits7FromStr8from_str7cal_sym13___parse_parses_0s_0Bh_
FNDA:1,_RNvNtNtNtNtCs6u9oDspvYRg_7qchrono8calendar3sym5tests11test_bitands_6case_1
FNDA:1,_RNvNtNtNtNtCs6u9oDspvYRg_7qchrono8calendar3sym5tests11test_bitands_6case_2
FNDA:1,_RNvNtNtNtNtCs6u9oDspvYRg_7qchrono8calendar3sym5tests11test_bitands_6case_3
FNDA:1,_RNvNtNtNtNtCs6u9oDspvYRg_7qchrono8calendar3sym5tests13test_atom_news_6case_1
FNDA:1,_RNvNtNtNtNtCs6u9oDspvYRg_7qchrono8calendar3sym5tests13test_atom_news_6case_2
FNDA:1,_RNvNtNtNtNtCs6u9oDspvYRg_7qchrono8calendar3sym5tests13test_atom_news_6case_3
FNDA:1,_RNvNtNtNtNtCs6u9oDspvYRg_7qchrono8calendar3sym5tests13test_atom_news_6case_4
FNDA:1,_RNvNtNtNtNtCs6u9oDspvYRg_7qchrono8calendar3sym5tests13test_atom_news_6case_5
FNDA:1,_RNvNtNtNtNtCs6u9oDspvYRg_7qchrono8calendar3sym5tests13test_atom_news_6case_6
FNDA:1,_RNvNtNtNtNtCs6u9oDspvYRg_7qchrono8calendar3sym5tests13test_atom_news_6case_7
FNDA:1,_RNvNtNtNtNtCs6u9oDspvYRg_7qchrono8calendar3sym5tests13test_atom_news_6case_8
FNDA:0,_RNvXs0_NtNtCs6u9oDspvYRg_7qchrono8calendar3symNtB5_15CalendarSymAtomINtNtCs2fyPGiZs4Bj_4core7convert7TryFromReE8try_fromB9_
FNDA:0,_RINvXs2_NtNtCs6u9oDspvYRg_7qchrono8calendar3symNtB6_15CalendarSymAtomNtNtCshDylzWGrM8d_5serde3ser9Serialize9serializepEBa_
FNDA:0,_RINvXs3_NtNtCs6u9oDspvYRg_7qchrono8calendar3symNtB6_15CalendarSymAtomNtNtCshDylzWGrM8d_5serde2de11Deserialize11deserializepEBa_
FNDA:0,_RNvXs5_NtNtCs6u9oDspvYRg_7qchrono8calendar3symNtNtCse0qyoMp9HeL_5alloc6string6StringINtNtCs2fyPGiZs4Bj_4core7convert4FromNtB5_15CalendarSymAtomE4fromB9_
FNDA:0,_RNvMs6_NtNtCs6u9oDspvYRg_7qchrono8calendar3symNtB5_15CalendarSymAtom4takeB9_
FNDA:0,_RNvXsc_NtNtCs6u9oDspvYRg_7qchrono8calendar3symNtB5_11CalendarSymNtCsfZgeB9GPpUp_8schemars10JsonSchema11schema_name
FNDA:0,_RNvXsc_NtNtCs6u9oDspvYRg_7qchrono8calendar3symNtB5_11CalendarSymNtCsfZgeB9GPpUp_8schemars10JsonSchema9schema_id
FNDA:0,_RNvXsc_NtNtCs6u9oDspvYRg_7qchrono8calendar3symNtB5_11CalendarSymNtCsfZgeB9GPpUp_8schemars10JsonSchema11json_schema
FNDA:3,_RNvMs6_NtNtCs2bSmrEEol5z_7qchrono8calendar3symNtB5_15CalendarSymAtom6as_strCslNfvs0bCstK_8qfincore
FNDA:4,_RNvMse_NtNtCs2bSmrEEol5z_7qchrono8calendar3symNtB5_11CalendarSym14collect_leavesCslNfvs0bCstK_8qfincore
FNDA:2,_RNvMse_NtNtCs2bSmrEEol5z_7qchrono8calendar3symNtB5_11CalendarSym6leavesCslNfvs0bCstK_8qfincore
FNDA:0,_RNvXs_NtNtCs2bSmrEEol5z_7qchrono8calendar3symNtB4_15CalendarSymAtomNtNtNtCs2fyPGiZs4Bj_4core3str6traits7FromStr8from_str
FNDA:0,_RNvXs1_NtNtCs2bSmrEEol5z_7qchrono8calendar3symNtB5_15CalendarSymAtomNtNtCs2fyPGiZs4Bj_4core3fmt7Display3fmtB9_
FNDA:39,_RINvMs4_NtNtCs2bSmrEEol5z_7qchrono8calendar3symNtB6_15CalendarSymAtom3newReEBa_
FNDA:117,_RNCINvMs4_NtNtCs2bSmrEEol5z_7qchrono8calendar3symNtB8_15CalendarSymAtom3newReE0Bc_
FNDA:23,_RNvXs7_NtNtCs2bSmrEEol5z_7qchrono8calendar3symNtB5_11CalendarSymNtNtNtCs2fyPGiZs4Bj_4core3str6traits7FromStr8from_str
FNDA:0,_RNCNvXs7_NtNtCs2bSmrEEol5z_7qchrono8calendar3symNtB7_11CalendarSymNtNtNtCs2fyPGiZs4Bj_4core3str6traits7FromStr8from_str0Bb_
FNDA:0,_RNCNvXs7_NtNtCs2bSmrEEol5z_7qchrono8calendar3symNtB7_11CalendarSymNtNtNtCs2fyPGiZs4Bj_4core3str6traits7FromStr8from_strs_0Bb_
FNDA:0,_RNvXs9_NtNtCs2bSmrEEol5z_7qchrono8calendar3symNtB5_11CalendarSymNtNtCs2fyPGiZs4Bj_4core3fmt7Display3fmt
FNDA:2,_RNvXsc_NtNtCs2bSmrEEol5z_7qchrono8calendar3symNtB5_11CalendarSymNtCsfZgeB9GPpUp_8schemars10JsonSchema11schema_name
FNDA:2,_RNvXsc_NtNtCs2bSmrEEol5z_7qchrono8calendar3symNtB5_11CalendarSymNtCsfZgeB9GPpUp_8schemars10JsonSchema9schema_id
FNDA:2,_RNvXsc_NtNtCs2bSmrEEol5z_7qchrono8calendar3symNtB5_11CalendarSymNtCsfZgeB9GPpUp_8schemars10JsonSchema11json_schema
FNDA:39,_RINvMsd_NtNtCs2bSmrEEol5z_7qchrono8calendar3symNtB6_11CalendarSym9single_ofReEBa_
FNDA:16,_RINvMsd_NtNtCs2bSmrEEol5z_7qchrono8calendar3symNtB6_11CalendarSym13any_closed_ofBJ_ABJ_j2_EBa_
FNDA:0,_RNCINvMsd_NtNtCs2bSmrEEol5z_7qchrono8calendar3symNtB8_11CalendarSym13any_closed_ofBL_ABL_j2_E0Bc_
FNDA:0,_RINvMsd_NtNtCs2bSmrEEol5z_7qchrono8calendar3symNtB6_11CalendarSym13all_closed_ofBJ_ABJ_j2_EBa_
FNDA:0,_RNCINvMsd_NtNtCs2bSmrEEol5z_7qchrono8calendar3symNtB8_11CalendarSym13all_closed_ofBL_ABL_j2_E0Bc_
FNDA:16,_RNvXsf_NtNtCs2bSmrEEol5z_7qchrono8calendar3symNtB5_11CalendarSymNtNtNtCs2fyPGiZs4Bj_4core3ops3bit5BitOr5bitorB9_
FNDA:0,_RNvXsg_NtNtCs2bSmrEEol5z_7qchrono8calendar3symNtB5_11CalendarSymNtNtNtCs2fyPGiZs4Bj_4core3ops3bit6BitAnd6bitandB9_
FNDA:23,_RNvMNtNvXs7_NtNtCs2bSmrEEol5z_7qchrono8calendar3symNtBa_11CalendarSymNtNtNtCs2fyPGiZs4Bj_4core3str6traits7FromStr8from_str7cal_symNtB2_10ParseState3new
FNDA:39,_RNvNtNvXs7_NtNtCs2bSmrEEol5z_7qchrono8calendar3symNtB9_11CalendarSymNtNtNtCs2fyPGiZs4Bj_4core3str6traits7FromStr8from_str7cal_sym14___parse_single
FNDA:39,_RNCNvNtNvXs7_NtNtCs2bSmrEEol5z_7qchrono8calendar3symNtBb_11CalendarSymNtNtNtCs2fyPGiZs4Bj_4core3str6traits7FromStr8from_str7cal_sym14___parse_single0Bf_
FNDA:94,_RNvNtNvXs7_NtNtCs2bSmrEEol5z_7qchrono8calendar3symNtB9_11CalendarSymNtNtNtCs2fyPGiZs4Bj_4core3str6traits7FromStr8from_str7cal_sym9___parse__
FNDA:23,_RNvNtNvXs7_NtNtCs2bSmrEEol5z_7qchrono8calendar3symNtB9_11CalendarSymNtNtNtCs2fyPGiZs4Bj_4core3str6traits7FromStr8from_str7cal_sym5parse
FNDA:23,_RNvNtNvXs7_NtNtCs2bSmrEEol5z_7qchrono8calendar3symNtB9_11CalendarSymNtNtNtCs2fyPGiZs4Bj_4core3str6traits7FromStr8from_str7cal_sym13___parse_parse
FNDA:39,_RINvNvNtNvXs7_NtNtCs2bSmrEEol5z_7qchrono8calendar3symNtBc_11CalendarSymNtNtNtCs2fyPGiZs4Bj_4core3str6traits7FromStr8from_str7cal_sym13___parse_parse13___infix_parseBP_NtB4_10ParseStateEBg_
FNDA:0,_RNCINvNvNtNvXs7_NtNtCs2bSmrEEol5z_7qchrono8calendar3symNtBe_11CalendarSymNtNtNtCs2fyPGiZs4Bj_4core3str6traits7FromStr8from_str7cal_sym13___parse_parse13___infix_parseBR_NtB6_10ParseStateE0Bi_
FNDA:16,_RNCINvNvNtNvXs7_NtNtCs2bSmrEEol5z_7qchrono8calendar3symNtBe_11CalendarSymNtNtNtCs2fyPGiZs4Bj_4core3str6traits7FromStr8from_str7cal_sym13___parse_parse13___infix_parseBR_NtB6_10ParseStateEs_0Bi_
FNDA:39,_RNCNvNtNvXs7_NtNtCs2bSmrEEol5z_7qchrono8calendar3symNtBb_11CalendarSymNtNtNtCs2fyPGiZs4Bj_4core3str6traits7FromStr8from_str7cal_sym13___parse_parse0Bf_
FNDA:0,_RNCNCNvNtNvXs7_NtNtCs2bSmrEEol5z_7qchrono8calendar3symNtBd_11CalendarSymNtNtNtCs2fyPGiZs4Bj_4core3str6traits7FromStr8from_str7cal_sym13___parse_parse00Bh_
FNDA:39,_RNCNCNvNtNvXs7_NtNtCs2bSmrEEol5z_7qchrono8calendar3symNtBd_11CalendarSymNtNtNtCs2fyPGiZs4Bj_4core3str6traits7FromStr8from_str7cal_sym13___parse_parse0s_0Bh_
FNDA:55,_RNCNvNtNvXs7_NtNtCs2bSmrEEol5z_7qchrono8calendar3symNtBb_11CalendarSymNtNtNtCs2fyPGiZs4Bj_4core3str6traits7FromStr8from_str7cal_sym13___parse_parses_0Bf_
FNDA:16,_RNCNCNvNtNvXs7_NtNtCs2bSmrEEol5z_7qchrono8calendar3symNtBd_11CalendarSymNtNtNtCs2fyPGiZs4Bj_4core3str6traits7FromStr8from_str7cal_sym13___parse_parses_00Bh_
FNDA:0,_RNCNCNvNtNvXs7_NtNtCs2bSmrEEol5z_7qchrono8calendar3symNtBd_11CalendarSymNtNtNtCs2fyPGiZs4Bj_4core3str6traits7FromStr8from_str7cal_sym13___parse_parses_0s_0Bh_
FNDA:0,_RNvXNtNtCs2bSmrEEol5z_7qchrono8calendar3symNtB2_15CalendarSymAtomINtNtCs2fyPGiZs4Bj_4core6borrow6BorroweE6borrowB6_
FNDA:0,_RNvXs0_NtNtCs2bSmrEEol5z_7qchrono8calendar3symNtB5_15CalendarSymAtomINtNtCs2fyPGiZs4Bj_4core7convert7TryFromReE8try_fromB9_
FNDA:0,_RINvXs2_NtNtCs2bSmrEEol5z_7qchrono8calendar3symNtB6_15CalendarSymAtomNtNtCshDylzWGrM8d_5serde3ser9Serialize9serializepEBa_
FNDA:0,_RINvXs3_NtNtCs2bSmrEEol5z_7qchrono8calendar3symNtB6_15CalendarSymAtomNtNtCshDylzWGrM8d_5serde2de11Deserialize11deserializepEBa_
FNDA:0,_RNvXs5_NtNtCs2bSmrEEol5z_7qchrono8calendar3symNtNtCse0qyoMp9HeL_5alloc6string6StringINtNtCs2fyPGiZs4Bj_4core7convert4FromNtB5_15CalendarSymAtomE4fromB9_
FNDA:0,_RNvMs6_NtNtCs2bSmrEEol5z_7qchrono8calendar3symNtB5_15CalendarSymAtom6as_strB9_
FNDA:0,_RNvMs6_NtNtCs2bSmrEEol5z_7qchrono8calendar3symNtB5_15CalendarSymAtom4takeB9_
FNDA:0,_RNvXs8_NtNtCs2bSmrEEol5z_7qchrono8calendar3symNtB5_11CalendarSymINtNtCs2fyPGiZs4Bj_4core7convert7TryFromReE8try_fromB9_
FNDA:0,_RINvXsa_NtNtCs2bSmrEEol5z_7qchrono8calendar3symNtB6_11CalendarSymNtNtCshDylzWGrM8d_5serde3ser9Serialize9serializepEBa_
FNDA:0,_RINvXsb_NtNtCs2bSmrEEol5z_7qchrono8calendar3symNtB6_11CalendarSymNtNtCshDylzWGrM8d_5serde2de11Deserialize11deserializepEBa_
FNDA:0,_RNvMse_NtNtCs2bSmrEEol5z_7qchrono8calendar3symNtB5_11CalendarSym6leavesB9_
FNDA:0,_RNvMse_NtNtCs2bSmrEEol5z_7qchrono8calendar3symNtB5_11CalendarSym14collect_leavesB9_
FNDA:42,_RNvMse_NtNtCs2bSmrEEol5z_7qchrono8calendar3symNtB5_11CalendarSym14collect_leavesCsg8mytIw4ZXd_6qmodel
FNDA:14,_RNvMse_NtNtCs2bSmrEEol5z_7qchrono8calendar3symNtB5_11CalendarSym6leavesCsg8mytIw4ZXd_6qmodel
FNF:51
FNH:46
DA:33,6
DA:34,6
DA:35,6
DA:44,8
DA:45,8
DA:46,8
DA:53,0
DA:54,0
DA:55,0
DA:60,36
DA:61,36
DA:62,36
DA:67,0
DA:68,0
DA:69,0
DA:74,0
DA:75,0
DA:76,0
DA:77,0
DA:89,352
DA:90,352
DA:91,823
DA:92,352
DA:93,2
DA:94,350
DA:95,350
DA:96,340
DA:98,10
DA:100,352
DA:105,0
DA:106,0
DA:107,0
DA:116,5
DA:117,5
DA:118,5
DA:122,0
DA:123,0
DA:124,0
DA:173,149
DA:174,159
DA:175,265
DA:176,243
DA:177,243
DA:178,159
DA:179,159
DA:180,159
DA:181,645
DA:182,159
DA:183,159
DA:184,916
DA:185,159
DA:186,159
DA:187,159
DA:188,159
DA:189,159
DA:190,243
DA:191,159
DA:192,159
DA:193,149
DA:194,149
DA:195,149
DA:196,149
DA:197,149
DA:204,64
DA:205,64
DA:206,64
DA:210,56
DA:211,56
DA:212,36
DA:213,12
DA:214,12
DA:215,12
DA:216,24
DA:217,12
DA:219,12
DA:221,8
DA:222,8
DA:223,8
DA:224,8
DA:225,4
DA:226,4
DA:228,16
DA:229,8
DA:230,4
DA:231,4
DA:234,8
DA:237,56
DA:242,8
DA:243,8
DA:244,8
DA:248,4
DA:249,4
DA:250,4
DA:251,4
DA:254,2
DA:255,2
DA:256,2
DA:257,2
DA:258,2
DA:259,2
DA:260,2
DA:261,2
DA:262,2
DA:263,2
DA:264,2
DA:265,2
DA:266,2
DA:267,2
DA:268,2
DA:269,2
DA:270,2
DA:271,2
DA:272,2
DA:298,279
DA:299,279
DA:300,279
DA:308,81
DA:309,81
DA:310,81
DA:311,81
DA:312,81
DA:313,81
DA:314,164
DA:315,164
DA:316,7
DA:317,7
DA:318,7
DA:319,156
DA:320,156
DA:321,156
DA:324,80
DA:325,80
DA:326,80
DA:327,81
DA:335,54
DA:336,54
DA:337,54
DA:338,54
DA:339,54
DA:340,54
DA:341,108
DA:342,108
DA:343,5
DA:344,5
DA:345,5
DA:346,102
DA:347,102
DA:348,102
DA:351,53
DA:352,53
DA:353,53
DA:354,54
DA:375,22
DA:376,22
DA:377,22
DA:378,22
DA:379,22
DA:382,67
DA:383,67
DA:384,45
DA:385,45
DA:386,45
DA:387,19
DA:388,44
DA:389,44
DA:390,44
DA:393,67
DA:403,63
DA:404,63
DA:405,63
DA:406,63
DA:413,41
DA:414,41
DA:415,41
DA:416,41
DA:425,8
DA:445,8
DA:468,1
DA:469,1
DA:470,1
DA:471,0
DA:473,1
DA:474,1
DA:475,1
DA:476,1
DA:477,1
DA:478,1
DA:480,1
DA:481,1
DA:482,1
DA:483,0
DA:485,1
DA:486,1
DA:487,1
DA:489,1
DA:490,1
DA:491,1
DA:492,0
DA:494,1
DA:495,1
DA:496,1
DA:497,1
DA:499,1
DA:500,1
DA:501,1
DA:502,0
DA:504,1
DA:505,1
DA:506,1
DA:508,1
DA:509,1
DA:510,1
DA:511,0
DA:513,1
DA:514,1
DA:515,1
DA:516,1
DA:518,1
DA:519,1
DA:520,1
DA:521,0
DA:523,1
DA:524,1
DA:525,1
DA:528,1
DA:529,1
DA:531,1
DA:532,1
DA:533,1
DA:536,1
DA:537,1
DA:538,1
DA:539,0
DA:541,1
DA:542,1
DA:543,1
DA:544,1
DA:545,1
DA:546,1
DA:548,1
DA:549,1
DA:550,0
DA:552,1
DA:553,1
DA:554,1
DA:556,1
DA:557,1
DA:558,1
DA:559,0
DA:561,1
DA:562,1
DA:563,1
DA:564,1
DA:566,1
DA:567,1
DA:568,1
DA:569,0
DA:571,1
DA:572,1
DA:573,1
DA:575,1
DA:576,1
DA:577,1
DA:578,0
DA:580,1
DA:581,1
DA:582,1
DA:584,1
DA:585,1
DA:586,1
DA:587,0
DA:589,1
DA:590,1
DA:591,1
DA:592,1
DA:595,1
DA:596,1
DA:598,1
DA:599,1
DA:600,1
DA:603,1
DA:604,1
DA:605,1
DA:606,1
DA:608,1
DA:609,1
DA:612,1
DA:613,1
DA:614,1
DA:615,1
DA:616,1
DA:618,1
DA:619,1
DA:620,1
DA:621,1
DA:622,1
DA:625,1
DA:626,1
DA:627,1
DA:628,1
DA:629,1
DA:631,1
DA:632,1
DA:633,1
DA:634,1
DA:635,1
DA:637,1
DA:638,1
DA:639,1
DA:640,1
DA:641,1
DA:644,1
DA:645,1
DA:646,1
DA:647,1
DA:648,1
DA:650,1
DA:651,1
DA:652,1
DA:653,1
DA:654,1
DA:657,1
DA:658,1
DA:659,1
DA:660,1
DA:661,1
DA:663,1
DA:664,1
DA:665,1
DA:666,1
DA:667,1
DA:669,1
DA:670,1
DA:671,1
DA:672,1
DA:673,1
DA:675,1
DA:676,1
DA:677,1
DA:678,1
DA:679,1
DA:681,1
DA:682,1
DA:683,1
DA:684,1
DA:685,1
DA:688,1
DA:689,1
DA:691,1
DA:692,1
DA:694,1
DA:695,1
DA:697,1
DA:698,1
DA:700,1
DA:701,1
DA:703,1
DA:704,1
DA:706,1
DA:707,1
DA:709,1
DA:710,1
DA:711,1
DA:713,4
DA:724,4
DA:735,4
DA:749,1
DA:750,1
DA:751,1
DA:752,1
DA:753,1
DA:754,1
DA:755,1
DA:756,1
DA:757,1
DA:759,3
DA:773,3
BRF:0
BRH:0
LF:411
LH:383
end_of_record
SF:/home/runner/work/qrs/qrs/libs/core/qchrono/src/duration/duration_impl.rs
FN:196,_RNvNtNtNtNtCs6u9oDspvYRg_7qchrono8duration13duration_impl5tests16test_approx_secss_6case_1
FN:196,_RNvNtNtNtNtCs6u9oDspvYRg_7qchrono8duration13duration_impl5tests16test_approx_secss_6case_2
FN:196,_RNvNtNtNtNtCs6u9oDspvYRg_7qchrono8duration13duration_impl5tests16test_approx_secss_6case_3
FN:196,_RNvNtNtNtNtCs6u9oDspvYRg_7qchrono8duration13duration_impl5tests16test_approx_secss_6case_4
FN:196,_RNvNtNtNtNtCs6u9oDspvYRg_7qchrono8duration13duration_impl5tests16test_approx_secss_6case_5
FN:196,_RNvNtNtNtNtCs6u9oDspvYRg_7qchrono8duration13duration_impl5tests16test_approx_secss_6case_6
FN:196,_RNvNtNtNtNtCs6u9oDspvYRg_7qchrono8duration13duration_impl5tests16test_approx_secss_6case_7
FN:196,_RNvNtNtNtNtCs6u9oDspvYRg_7qchrono8duration13duration_impl5tests16test_approx_secss_6case_8
FN:196,_RNvNtNtNtNtCs6u9oDspvYRg_7qchrono8duration13duration_impl5tests16test_approx_secss_6case_9
FN:23,_RNvXs_NtNtCs6u9oDspvYRg_7qchrono8duration13duration_implNtB4_8DurationINtNtCs2fyPGiZs4Bj_4core7convert4FromNtNtCs9T1gxOhu6ob_6chrono10time_delta9TimeDeltaE4fromB8_
FN:33,_RNvMs0_NtNtCs6u9oDspvYRg_7qchrono8duration13duration_implNtB5_8Duration13with_nanosecsB9_
FN:49,_RNvMs0_NtNtCs6u9oDspvYRg_7qchrono8duration13duration_implNtB5_8Duration9with_secsB9_
FN:53,_RNvMs0_NtNtCs6u9oDspvYRg_7qchrono8duration13duration_implNtB5_8Duration13try_with_secsB9_
FN:57,_RNvMs0_NtNtCs6u9oDspvYRg_7qchrono8duration13duration_implNtB5_8Duration9with_minsB9_
FN:65,_RNvMs0_NtNtCs6u9oDspvYRg_7qchrono8duration13duration_implNtB5_8Duration10with_hoursB9_
FN:73,_RNvMs0_NtNtCs6u9oDspvYRg_7qchrono8duration13duration_implNtB5_8Duration9with_daysB9_
FN:105,_RNvMs1_NtNtCs6u9oDspvYRg_7qchrono8duration13duration_implNtB5_8Duration11approx_secsB9_
FN:128,_RNvXs3_NtNtCs6u9oDspvYRg_7qchrono8duration13duration_implNtB5_8DurationNtNtNtCs2fyPGiZs4Bj_4core3ops5arith3Add3addB9_
FN:162,_RNvXs7_NtNtCs6u9oDspvYRg_7qchrono8duration13duration_implNtB5_8DurationNtNtCs3hlyyetf6no_10num_traits10identities4Zero4zeroB9_
FN:194,_RNvNtNtNtCs6u9oDspvYRg_7qchrono8duration13duration_impl5testss_4test
FN:196,_RNvNtNtNtCs6u9oDspvYRg_7qchrono8duration13duration_impl5tests16test_approx_secs
FN:17,_RNvXNtNtCs6u9oDspvYRg_7qchrono8duration13duration_implNtNtCs9T1gxOhu6ob_6chrono10time_delta9TimeDeltaINtNtCs2fyPGiZs4Bj_4core7convert4FromNtB2_8DurationE4fromB6_
FN:37,_RNvMs0_NtNtCs6u9oDspvYRg_7qchrono8duration13duration_implNtB5_8Duration14with_microsecsB9_
FN:41,_RNvMs0_NtNtCs6u9oDspvYRg_7qchrono8duration13duration_implNtB5_8Duration14with_millisecsB9_
FN:45,_RNvMs0_NtNtCs6u9oDspvYRg_7qchrono8duration13duration_implNtB5_8Duration17try_with_millsecsB9_
FN:61,_RNvMs0_NtNtCs6u9oDspvYRg_7qchrono8duration13duration_implNtB5_8Duration13try_with_minsB9_
FN:69,_RNvMs0_NtNtCs6u9oDspvYRg_7qchrono8duration13duration_implNtB5_8Duration14try_with_hoursB9_
FN:77,_RNvMs0_NtNtCs6u9oDspvYRg_7qchrono8duration13duration_implNtB5_8Duration13try_with_daysB9_
FN:119,_RNvXs2_NtNtCs6u9oDspvYRg_7qchrono8duration13duration_implNtB5_8DurationNtNtNtCs2fyPGiZs4Bj_4core3ops5arith3Neg3negB9_
FN:137,_RNvXs4_NtNtCs6u9oDspvYRg_7qchrono8duration13duration_implNtB5_8DurationNtNtNtCs2fyPGiZs4Bj_4core3ops5arith3Sub3subB9_
FN:146,_RNvXs5_NtNtCs6u9oDspvYRg_7qchrono8duration13duration_implNtB5_8DurationINtNtNtCs2fyPGiZs4Bj_4core3ops5arith3MullE3mulB9_
FN:155,_RNvXs6_NtNtCs6u9oDspvYRg_7qchrono8duration13duration_implNtB5_8DurationINtNtNtCs2fyPGiZs4Bj_4core3ops5arith3DivlE3divB9_
FN:167,_RNvXs7_NtNtCs6u9oDspvYRg_7qchrono8duration13duration_implNtB5_8DurationNtNtCs3hlyyetf6no_10num_traits10identities4Zero7is_zeroB9_
FN:176,_RNvXs8_NtNtCs6u9oDspvYRg_7qchrono8duration13duration_implNtB5_8DurationNtNtNtCsiuWCqEApz1O_5qmath3num6relpos6RelPos14relpos_betweenB9_
FN:105,_RNvMs1_NtNtCs2bSmrEEol5z_7qchrono8duration13duration_implNtB5_8Duration11approx_secsCslNfvs0bCstK_8qfincore
FN:23,_RNvXs_NtNtCs2bSmrEEol5z_7qchrono8duration13duration_implNtB4_8DurationINtNtCs2fyPGiZs4Bj_4core7convert4FromNtNtCs9T1gxOhu6ob_6chrono10time_delta9TimeDeltaE4fromCslNfvs0bCstK_8qfincore
FN:17,_RNvXNtNtCs2bSmrEEol5z_7qchrono8duration13duration_implNtNtCs9T1gxOhu6ob_6chrono10time_delta9TimeDeltaINtNtCs2fyPGiZs4Bj_4core7convert4FromNtB2_8DurationE4fromB6_
FN:23,_RNvXs_NtNtCs2bSmrEEol5z_7qchrono8duration13duration_implNtB4_8DurationINtNtCs2fyPGiZs4Bj_4core7convert4FromNtNtCs9T1gxOhu6ob_6chrono10time_delta9TimeDeltaE4fromB8_
FN:33,_RNvMs0_NtNtCs2bSmrEEol5z_7qchrono8duration13duration_implNtB5_8Duration13with_nanosecsB9_
FN:37,_RNvMs0_NtNtCs2bSmrEEol5z_7qchrono8duration13duration_implNtB5_8Duration14with_microsecsB9_
FN:41,_RNvMs0_NtNtCs2bSmrEEol5z_7qchrono8duration13duration_implNtB5_8Duration14with_millisecsB9_
FN:45,_RNvMs0_NtNtCs2bSmrEEol5z_7qchrono8duration13duration_implNtB5_8Duration17try_with_millsecsB9_
FN:49,_RNvMs0_NtNtCs2bSmrEEol5z_7qchrono8duration13duration_implNtB5_8Duration9with_secsB9_
FN:53,_RNvMs0_NtNtCs2bSmrEEol5z_7qchrono8duration13duration_implNtB5_8Duration13try_with_secsB9_
FN:57,_RNvMs0_NtNtCs2bSmrEEol5z_7qchrono8duration13duration_implNtB5_8Duration9with_minsB9_
FN:61,_RNvMs0_NtNtCs2bSmrEEol5z_7qchrono8duration13duration_implNtB5_8Duration13try_with_minsB9_
FN:65,_RNvMs0_NtNtCs2bSmrEEol5z_7qchrono8duration13duration_implNtB5_8Duration10with_hoursB9_
FN:69,_RNvMs0_NtNtCs2bSmrEEol5z_7qchrono8duration13duration_implNtB5_8Duration14try_with_hoursB9_
FN:73,_RNvMs0_NtNtCs2bSmrEEol5z_7qchrono8duration13duration_implNtB5_8Duration9with_daysB9_
FN:77,_RNvMs0_NtNtCs2bSmrEEol5z_7qchrono8duration13duration_implNtB5_8Duration13try_with_daysB9_
FN:105,_RNvMs1_NtNtCs2bSmrEEol5z_7qchrono8duration13duration_implNtB5_8Duration11approx_secsB9_
FN:119,_RNvXs2_NtNtCs2bSmrEEol5z_7qchrono8duration13duration_implNtB5_8DurationNtNtNtCs2fyPGiZs4Bj_4core3ops5arith3Neg3negB9_
FN:128,_RNvXs3_NtNtCs2bSmrEEol5z_7qchrono8duration13duration_implNtB5_8DurationNtNtNtCs2fyPGiZs4Bj_4core3ops5arith3Add3addB9_
FN:137,_RNvXs4_NtNtCs2bSmrEEol5z_7qchrono8duration13duration_implNtB5_8DurationNtNtNtCs2fyPGiZs4Bj_4core3ops5arith3Sub3subB9_
FN:146,_RNvXs5_NtNtCs2bSmrEEol5z_7qchrono8duration13duration_implNtB5_8DurationINtNtNtCs2fyPGiZs4Bj_4core3ops5arith3MullE3mulB9_
FN:155,_RNvXs6_NtNtCs2bSmrEEol5z_7qchrono8duration13duration_implNtB5_8DurationINtNtNtCs2fyPGiZs4Bj_4core3ops5arith3DivlE3divB9_
FN:162,_RNvXs7_NtNtCs2bSmrEEol5z_7qchrono8duration13duration_implNtB5_8DurationNtNtCs3hlyyetf6no_10num_traits10identities4Zero4zeroB9_
FN:167,_RNvXs7_NtNtCs2bSmrEEol5z_7qchrono8duration13duration_implNtB5_8DurationNtNtCs3hlyyetf6no_10num_traits10identities4Zero7is_zeroB9_
FN:176,_RNvXs8_NtNtCs2bSmrEEol5z_7qchrono8duration13duration_implNtB5_8DurationNtNtNtCsiuWCqEApz1O_5qmath3num6relpos6RelPos14relpos_betweenB9_
FN:105,_RNvMs1_NtNtCs2bSmrEEol5z_7qchrono8duration13duration_implNtB5_8Duration11approx_secsCsg8mytIw4ZXd_6qmodel
FN:23,_RNvXs_NtNtCs2bSmrEEol5z_7qchrono8duration13duration_implNtB4_8DurationINtNtCs2fyPGiZs4Bj_4core7convert4FromNtNtCs9T1gxOhu6ob_6chrono10time_delta9TimeDeltaE4fromCsg8mytIw4ZXd_6qmodel
FNDA:1,_RNvNtNtNtNtCs6u9oDspvYRg_7qchrono8duration13duration_impl5tests16test_approx_secss_6case_1
FNDA:1,_RNvNtNtNtNtCs6u9oDspvYRg_7qchrono8duration13duration_impl5tests16test_approx_secss_6case_2
FNDA:1,_RNvNtNtNtNtCs6u9oDspvYRg_7qchrono8duration13duration_impl5tests16test_approx_secss_6case_3
FNDA:1,_RNvNtNtNtNtCs6u9oDspvYRg_7qchrono8duration13duration_impl5tests16test_approx_secss_6case_4
FNDA:1,_RNvNtNtNtNtCs6u9oDspvYRg_7qchrono8duration13duration_impl5tests16test_approx_secss_6case_5
FNDA:1,_RNvNtNtNtNtCs6u9oDspvYRg_7qchrono8duration13duration_impl5tests16test_approx_secss_6case_6
FNDA:1,_RNvNtNtNtNtCs6u9oDspvYRg_7qchrono8duration13duration_impl5tests16test_approx_secss_6case_7
FNDA:1,_RNvNtNtNtNtCs6u9oDspvYRg_7qchrono8duration13duration_impl5tests16test_approx_secss_6case_8
FNDA:1,_RNvNtNtNtNtCs6u9oDspvYRg_7qchrono8duration13duration_impl5tests16test_approx_secss_6case_9
FNDA:13,_RNvXs_NtNtCs6u9oDspvYRg_7qchrono8duration13duration_implNtB4_8DurationINtNtCs2fyPGiZs4Bj_4core7convert4FromNtNtCs9T1gxOhu6ob_6chrono10time_delta9TimeDeltaE4fromB8_
FNDA:3,_RNvMs0_NtNtCs6u9oDspvYRg_7qchrono8duration13duration_implNtB5_8Duration13with_nanosecsB9_
FNDA:2,_RNvMs0_NtNtCs6u9oDspvYRg_7qchrono8duration13duration_implNtB5_8Duration9with_secsB9_
FNDA:1,_RNvMs0_NtNtCs6u9oDspvYRg_7qchrono8duration13duration_implNtB5_8Duration13try_with_secsB9_
FNDA:2,_RNvMs0_NtNtCs6u9oDspvYRg_7qchrono8duration13duration_implNtB5_8Duration9with_minsB9_
FNDA:1,_RNvMs0_NtNtCs6u9oDspvYRg_7qchrono8duration13duration_implNtB5_8Duration10with_hoursB9_
FNDA:1,_RNvMs0_NtNtCs6u9oDspvYRg_7qchrono8duration13duration_implNtB5_8Duration9with_daysB9_
FNDA:9,_RNvMs1_NtNtCs6u9oDspvYRg_7qchrono8duration13duration_implNtB5_8Duration11approx_secsB9_
FNDA:2,_RNvXs3_NtNtCs6u9oDspvYRg_7qchrono8duration13duration_implNtB5_8DurationNtNtNtCs2fyPGiZs4Bj_4core3ops5arith3Add3addB9_
FNDA:1,_RNvXs7_NtNtCs6u9oDspvYRg_7qchrono8duration13duration_implNtB5_8DurationNtNtCs3hlyyetf6no_10num_traits10identities4Zero4zeroB9_
FNDA:1,_RNvNtNtNtCs6u9oDspvYRg_7qchrono8duration13duration_impl5testss_4test
FNDA:9,_RNvNtNtNtCs6u9oDspvYRg_7qchrono8duration13duration_impl5tests16test_approx_secs
FNDA:0,_RNvXNtNtCs6u9oDspvYRg_7qchrono8duration13duration_implNtNtCs9T1gxOhu6ob_6chrono10time_delta9TimeDeltaINtNtCs2fyPGiZs4Bj_4core7convert4FromNtB2_8DurationE4fromB6_
FNDA:0,_RNvMs0_NtNtCs6u9oDspvYRg_7qchrono8duration13duration_implNtB5_8Duration14with_microsecsB9_
FNDA:0,_RNvMs0_NtNtCs6u9oDspvYRg_7qchrono8duration13duration_implNtB5_8Duration14with_millisecsB9_
FNDA:0,_RNvMs0_NtNtCs6u9oDspvYRg_7qchrono8duration13duration_implNtB5_8Duration17try_with_millsecsB9_
FNDA:0,_RNvMs0_NtNtCs6u9oDspvYRg_7qchrono8duration13duration_implNtB5_8Duration13try_with_minsB9_
FNDA:0,_RNvMs0_NtNtCs6u9oDspvYRg_7qchrono8duration13duration_implNtB5_8Duration14try_with_hoursB9_
FNDA:0,_RNvMs0_NtNtCs6u9oDspvYRg_7qchrono8duration13duration_implNtB5_8Duration13try_with_daysB9_
FNDA:0,_RNvXs2_NtNtCs6u9oDspvYRg_7qchrono8duration13duration_implNtB5_8DurationNtNtNtCs2fyPGiZs4Bj_4core3ops5arith3Neg3negB9_
FNDA:0,_RNvXs4_NtNtCs6u9oDspvYRg_7qchrono8duration13duration_implNtB5_8DurationNtNtNtCs2fyPGiZs4Bj_4core3ops5arith3Sub3subB9_
FNDA:0,_RNvXs5_NtNtCs6u9oDspvYRg_7qchrono8duration13duration_implNtB5_8DurationINtNtNtCs2fyPGiZs4Bj_4core3ops5arith3MullE3mulB9_
FNDA:0,_RNvXs6_NtNtCs6u9oDspvYRg_7qchrono8duration13duration_implNtB5_8DurationINtNtNtCs2fyPGiZs4Bj_4core3ops5arith3DivlE3divB9_
FNDA:0,_RNvXs7_NtNtCs6u9oDspvYRg_7qchrono8duration13duration_implNtB5_8DurationNtNtCs3hlyyetf6no_10num_traits10identities4Zero7is_zeroB9_
FNDA:0,_RNvXs8_NtNtCs6u9oDspvYRg_7qchrono8duration13duration_implNtB5_8DurationNtNtNtCsiuWCqEApz1O_5qmath3num6relpos6RelPos14relpos_betweenB9_
FNDA:42,_RNvMs1_NtNtCs2bSmrEEol5z_7qchrono8duration13duration_implNtB5_8Duration11approx_secsCslNfvs0bCstK_8qfincore
FNDA:42,_RNvXs_NtNtCs2bSmrEEol5z_7qchrono8duration13duration_implNtB4_8DurationINtNtCs2fyPGiZs4Bj_4core7convert4FromNtNtCs9T1gxOhu6ob_6chrono10time_delta9TimeDeltaE4fromCslNfvs0bCstK_8qfincore
FNDA:0,_RNvXNtNtCs2bSmrEEol5z_7qchrono8duration13duration_implNtNtCs9T1gxOhu6ob_6chrono10time_delta9TimeDeltaINtNtCs2fyPGiZs4Bj_4core7convert4FromNtB2_8DurationE4fromB6_
FNDA:0,_RNvXs_NtNtCs2bSmrEEol5z_7qchrono8duration13duration_implNtB4_8DurationINtNtCs2fyPGiZs4Bj_4core7convert4FromNtNtCs9T1gxOhu6ob_6chrono10time_delta9TimeDeltaE4fromB8_
FNDA:0,_RNvMs0_NtNtCs2bSmrEEol5z_7qchrono8duration13duration_implNtB5_8Duration13with_nanosecsB9_
FNDA:0,_RNvMs0_NtNtCs2bSmrEEol5z_7qchrono8duration13duration_implNtB5_8Duration14with_microsecsB9_
FNDA:0,_RNvMs0_NtNtCs2bSmrEEol5z_7qchrono8duration13duration_implNtB5_8Duration14with_millisecsB9_
FNDA:0,_RNvMs0_NtNtCs2bSmrEEol5z_7qchrono8duration13duration_implNtB5_8Duration17try_with_millsecsB9_
FNDA:0,_RNvMs0_NtNtCs2bSmrEEol5z_7qchrono8duration13duration_implNtB5_8Duration9with_secsB9_
FNDA:0,_RNvMs0_NtNtCs2bSmrEEol5z_7qchrono8duration13duration_implNtB5_8Duration13try_with_secsB9_
FNDA:0,_RNvMs0_NtNtCs2bSmrEEol5z_7qchrono8duration13duration_implNtB5_8Duration9with_minsB9_
FNDA:0,_RNvMs0_NtNtCs2bSmrEEol5z_7qchrono8duration13duration_implNtB5_8Duration13try_with_minsB9_
FNDA:0,_RNvMs0_NtNtCs2bSmrEEol5z_7qchrono8duration13duration_implNtB5_8Duration10with_hoursB9_
FNDA:0,_RNvMs0_NtNtCs2bSmrEEol5z_7qchrono8duration13duration_implNtB5_8Duration14try_with_hoursB9_
FNDA:0,_RNvMs0_NtNtCs2bSmrEEol5z_7qchrono8duration13duration_implNtB5_8Duration9with_daysB9_
FNDA:0,_RNvMs0_NtNtCs2bSmrEEol5z_7qchrono8duration13duration_implNtB5_8Duration13try_with_daysB9_
FNDA:0,_RNvMs1_NtNtCs2bSmrEEol5z_7qchrono8duration13duration_implNtB5_8Duration11approx_secsB9_
FNDA:0,_RNvXs2_NtNtCs2bSmrEEol5z_7qchrono8duration13duration_implNtB5_8DurationNtNtNtCs2fyPGiZs4Bj_4core3ops5arith3Neg3negB9_
FNDA:0,_RNvXs3_NtNtCs2bSmrEEol5z_7qchrono8duration13duration_implNtB5_8DurationNtNtNtCs2fyPGiZs4Bj_4core3ops5arith3Add3addB9_
FNDA:0,_RNvXs4_NtNtCs2bSmrEEol5z_7qchrono8duration13duration_implNtB5_8DurationNtNtNtCs2fyPGiZs4Bj_4core3ops5arith3Sub3subB9_
FNDA:0,_RNvXs5_NtNtCs2bSmrEEol5z_7qchrono8duration13duration_implNtB5_8DurationINtNtNtCs2fyPGiZs4Bj_4core3ops5arith3MullE3mulB9_
FNDA:0,_RNvXs6_NtNtCs2bSmrEEol5z_7qchrono8duration13duration_implNtB5_8DurationINtNtNtCs2fyPGiZs4Bj_4core3ops5arith3DivlE3divB9_
FNDA:0,_RNvXs7_NtNtCs2bSmrEEol5z_7qchrono8duration13duration_implNtB5_8DurationNtNtCs3hlyyetf6no_10num_traits10identities4Zero4zeroB9_
FNDA:0,_RNvXs7_NtNtCs2bSmrEEol5z_7qchrono8duration13duration_implNtB5_8DurationNtNtCs3hlyyetf6no_10num_traits10identities4Zero7is_zeroB9_
FNDA:0,_RNvXs8_NtNtCs2bSmrEEol5z_7qchrono8duration13duration_implNtB5_8DurationNtNtNtCsiuWCqEApz1O_5qmath3num6relpos6RelPos14relpos_betweenB9_
FNDA:80,_RNvMs1_NtNtCs2bSmrEEol5z_7qchrono8duration13duration_implNtB5_8Duration11approx_secsCsg8mytIw4ZXd_6qmodel
FNDA:80,_RNvXs_NtNtCs2bSmrEEol5z_7qchrono8duration13duration_implNtB4_8DurationINtNtCs2fyPGiZs4Bj_4core7convert4FromNtNtCs9T1gxOhu6ob_6chrono10time_delta9TimeDeltaE4fromCsg8mytIw4ZXd_6qmodel
FNF:25
FNH:12
DA:17,0
DA:18,0
DA:19,0
DA:23,135
DA:24,135
DA:25,135
DA:33,3
DA:34,3
DA:35,3
DA:37,0
DA:38,0
DA:39,0
DA:41,0
DA:42,0
DA:43,0
DA:45,0
DA:46,0
DA:47,0
DA:49,2
DA:50,2
DA:51,2
DA:53,1
DA:54,1
DA:55,1
DA:57,2
DA:58,2
DA:59,2
DA:61,0
DA:62,0
DA:63,0
DA:65,1
DA:66,1
DA:67,1
DA:69,0
DA:70,0
DA:71,0
DA:73,1
DA:74,1
DA:75,1
DA:77,0
DA:78,0
DA:79,0
DA:105,131
DA:106,131
DA:107,131
DA:108,131
DA:109,131
DA:119,0
DA:120,0
DA:121,0
DA:128,2
DA:129,2
DA:130,2
DA:137,0
DA:138,0
DA:139,0
DA:146,0
DA:147,0
DA:148,0
DA:155,0
DA:156,0
DA:157,0
DA:162,1
DA:163,1
DA:164,1
DA:167,0
DA:168,0
DA:169,0
DA:176,0
DA:177,0
DA:178,0
DA:179,0
DA:181,0
DA:182,0
DA:184,0
DA:194,1
DA:196,9
BRF:0
BRH:0
LF:77
LH:34
end_of_record
SF:/home/runner/work/qrs/qrs/libs/core/qchrono/src/duration/tenor.rs
FN:148,_RNvXs6_NtNtCs6u9oDspvYRg_7qchrono8duration5tenorNtNtNtCs9T1gxOhu6ob_6chrono5naive4date9NaiveDateINtNtNtCs2fyPGiZs4Bj_4core3ops5arith3AddNtB5_5TenorE3add
FN:195,_RNvXs7_NtNtCs6u9oDspvYRg_7qchrono8duration5tenorNtNtNtCs9T1gxOhu6ob_6chrono5naive4date9NaiveDateINtNtNtCs2fyPGiZs4Bj_4core3ops5arith3SubNtB5_5TenorE3sub
FN:205,_RNvNtNtNtNtNtCs6u9oDspvYRg_7qchrono8duration5tenor5tests12test_display6n_4_42s_14suffix_1___D__
FN:205,_RNvNtNtNtNtNtCs6u9oDspvYRg_7qchrono8duration5tenor5tests12test_display6n_4_42s_14suffix_2___W__
FN:205,_RNvNtNtNtNtNtCs6u9oDspvYRg_7qchrono8duration5tenor5tests12test_display6n_4_42s_14suffix_3___M__
FN:205,_RNvNtNtNtNtNtCs6u9oDspvYRg_7qchrono8duration5tenor5tests12test_display6n_4_42s_14suffix_4___Y__
FN:205,_RNvNtNtNtNtNtCs6u9oDspvYRg_7qchrono8duration5tenor5tests12test_display7n_5__42s_14suffix_1___D__
FN:205,_RNvNtNtNtNtNtCs6u9oDspvYRg_7qchrono8duration5tenor5tests12test_display7n_5__42s_14suffix_2___W__
FN:205,_RNvNtNtNtNtNtCs6u9oDspvYRg_7qchrono8duration5tenor5tests12test_display7n_5__42s_14suffix_3___M__
FN:205,_RNvNtNtNtNtNtCs6u9oDspvYRg_7qchrono8duration5tenor5tests12test_display7n_5__42s_14suffix_4___Y__
FN:224,_RNvNtNtNtNtNtCs6u9oDspvYRg_7qchrono8duration5tenor5tests13test_from_str5n_2_1s_14suffix_1___D__
FN:224,_RNvNtNtNtNtNtCs6u9oDspvYRg_7qchrono8duration5tenor5tests13test_from_str5n_2_1s_14suffix_2___W__
FN:224,_RNvNtNtNtNtNtCs6u9oDspvYRg_7qchrono8duration5tenor5tests13test_from_str5n_2_1s_14suffix_3___M__
FN:224,_RNvNtNtNtNtNtCs6u9oDspvYRg_7qchrono8duration5tenor5tests13test_from_str5n_2_1s_14suffix_4___Y__
FN:205,_RNvNtNtNtCs6u9oDspvYRg_7qchrono8duration5tenor5tests12test_display
FN:224,_RNvNtNtNtCs6u9oDspvYRg_7qchrono8duration5tenor5tests13test_from_str
FN:269,_RNvNtNtNtCs6u9oDspvYRg_7qchrono8duration5tenor5tests17test_from_str_err
FN:294,_RNvNtNtNtCs6u9oDspvYRg_7qchrono8duration5tenor5tests8test_neg
FN:329,_RNvNtNtNtCs6u9oDspvYRg_7qchrono8duration5tenor5tests8test_mul
FN:329,_RNvNtNtNtNtNtCs6u9oDspvYRg_7qchrono8duration5tenor5tests8test_mul6n_4_42s_5m_1_0
FN:329,_RNvNtNtNtNtNtCs6u9oDspvYRg_7qchrono8duration5tenor5tests8test_mul6n_4_42s_5m_2_1
FN:329,_RNvNtNtNtNtNtCs6u9oDspvYRg_7qchrono8duration5tenor5tests8test_mul6n_4_42s_6m_3__1
FN:329,_RNvNtNtNtNtNtCs6u9oDspvYRg_7qchrono8duration5tenor5tests8test_mul6n_4_42s_6m_4_42
FN:329,_RNvNtNtNtNtNtCs6u9oDspvYRg_7qchrono8duration5tenor5tests8test_mul6n_4_42s_7m_5__42
FN:372,_RNvNtNtNtCs6u9oDspvYRg_7qchrono8duration5tenor5tests13test_add_days
FN:394,_RNvNtNtNtCs6u9oDspvYRg_7qchrono8duration5tenor5tests14test_add_weeks
FN:411,_RNvNtNtNtCs6u9oDspvYRg_7qchrono8duration5tenor5tests15test_add_months
FN:435,_RNvNtNtNtCs6u9oDspvYRg_7qchrono8duration5tenor5tests14test_add_years
FN:452,_RNvNtNtNtCs6u9oDspvYRg_7qchrono8duration5tenor5tests8test_sub
FN:452,_RNvNtNtNtNtCs6u9oDspvYRg_7qchrono8duration5tenor5tests8test_subs_7case_01
FN:452,_RNvNtNtNtNtCs6u9oDspvYRg_7qchrono8duration5tenor5tests8test_subs_7case_02
FN:452,_RNvNtNtNtNtCs6u9oDspvYRg_7qchrono8duration5tenor5tests8test_subs_7case_03
FN:452,_RNvNtNtNtNtCs6u9oDspvYRg_7qchrono8duration5tenor5tests8test_subs_7case_04
FN:452,_RNvNtNtNtNtCs6u9oDspvYRg_7qchrono8duration5tenor5tests8test_subs_7case_05
FN:452,_RNvNtNtNtNtCs6u9oDspvYRg_7qchrono8duration5tenor5tests8test_subs_7case_06
FN:452,_RNvNtNtNtNtCs6u9oDspvYRg_7qchrono8duration5tenor5tests8test_subs_7case_07
FN:452,_RNvNtNtNtNtCs6u9oDspvYRg_7qchrono8duration5tenor5tests8test_subs_7case_08
FN:452,_RNvNtNtNtNtCs6u9oDspvYRg_7qchrono8duration5tenor5tests8test_subs_7case_09
FN:452,_RNvNtNtNtNtCs6u9oDspvYRg_7qchrono8duration5tenor5tests8test_subs_7case_10
FN:452,_RNvNtNtNtNtCs6u9oDspvYRg_7qchrono8duration5tenor5tests8test_subs_7case_11
FN:452,_RNvNtNtNtNtCs6u9oDspvYRg_7qchrono8duration5tenor5tests8test_subs_7case_12
FN:452,_RNvNtNtNtNtCs6u9oDspvYRg_7qchrono8duration5tenor5tests8test_subs_7case_13
FN:452,_RNvNtNtNtNtCs6u9oDspvYRg_7qchrono8duration5tenor5tests8test_subs_7case_14
FN:452,_RNvNtNtNtNtCs6u9oDspvYRg_7qchrono8duration5tenor5tests8test_subs_7case_15
FN:452,_RNvNtNtNtNtCs6u9oDspvYRg_7qchrono8duration5tenor5tests8test_subs_7case_16
FN:452,_RNvNtNtNtNtCs6u9oDspvYRg_7qchrono8duration5tenor5tests8test_subs_7case_17
FN:452,_RNvNtNtNtNtCs6u9oDspvYRg_7qchrono8duration5tenor5tests8test_subs_7case_18
FN:452,_RNvNtNtNtNtCs6u9oDspvYRg_7qchrono8duration5tenor5tests8test_subs_7case_19
FN:452,_RNvNtNtNtNtCs6u9oDspvYRg_7qchrono8duration5tenor5tests8test_subs_7case_20
FN:452,_RNvNtNtNtNtCs6u9oDspvYRg_7qchrono8duration5tenor5tests8test_subs_7case_21
FN:452,_RNvNtNtNtNtCs6u9oDspvYRg_7qchrono8duration5tenor5tests8test_subs_7case_22
FN:452,_RNvNtNtNtNtCs6u9oDspvYRg_7qchrono8duration5tenor5tests8test_subs_7case_23
FN:452,_RNvNtNtNtNtCs6u9oDspvYRg_7qchrono8duration5tenor5tests8test_subs_7case_24
FN:452,_RNvNtNtNtNtCs6u9oDspvYRg_7qchrono8duration5tenor5tests8test_subs_7case_25
FN:452,_RNvNtNtNtNtCs6u9oDspvYRg_7qchrono8duration5tenor5tests8test_subs_7case_26
FN:452,_RNvNtNtNtNtCs6u9oDspvYRg_7qchrono8duration5tenor5tests8test_subs_7case_27
FN:452,_RNvNtNtNtNtCs6u9oDspvYRg_7qchrono8duration5tenor5tests8test_subs_7case_28
FN:452,_RNvNtNtNtNtCs6u9oDspvYRg_7qchrono8duration5tenor5tests8test_subs_7case_29
FN:452,_RNvNtNtNtNtCs6u9oDspvYRg_7qchrono8duration5tenor5tests8test_subs_7case_30
FN:452,_RNvNtNtNtNtCs6u9oDspvYRg_7qchrono8duration5tenor5tests8test_subs_7case_31
FN:452,_RNvNtNtNtNtCs6u9oDspvYRg_7qchrono8duration5tenor5tests8test_subs_7case_32
FN:452,_RNvNtNtNtNtCs6u9oDspvYRg_7qchrono8duration5tenor5tests8test_subs_7case_33
FN:329,_RNvNtNtNtNtNtCs6u9oDspvYRg_7qchrono8duration5tenor5tests8test_mul7n_5__42s_5m_1_0
FN:329,_RNvNtNtNtNtNtCs6u9oDspvYRg_7qchrono8duration5tenor5tests8test_mul7n_5__42s_5m_2_1
FN:329,_RNvNtNtNtNtNtCs6u9oDspvYRg_7qchrono8duration5tenor5tests8test_mul7n_5__42s_6m_3__1
FN:329,_RNvNtNtNtNtNtCs6u9oDspvYRg_7qchrono8duration5tenor5tests8test_mul7n_5__42s_6m_4_42
FN:329,_RNvNtNtNtNtNtCs6u9oDspvYRg_7qchrono8duration5tenor5tests8test_mul7n_5__42s_7m_5__42
FN:269,_RNvNtNtNtNtCs6u9oDspvYRg_7qchrono8duration5tenor5tests17test_from_str_errs_13case_01_empty
FN:269,_RNvNtNtNtNtCs6u9oDspvYRg_7qchrono8duration5tenor5tests17test_from_str_errs_18case_02_whitespace
FN:269,_RNvNtNtNtNtCs6u9oDspvYRg_7qchrono8duration5tenor5tests17test_from_str_errs_22case_03_without_prefix
FN:269,_RNvNtNtNtNtCs6u9oDspvYRg_7qchrono8duration5tenor5tests17test_from_str_errs_22case_04_without_prefix
FN:269,_RNvNtNtNtNtCs6u9oDspvYRg_7qchrono8duration5tenor5tests17test_from_str_errs_22case_05_without_prefix
FN:269,_RNvNtNtNtNtCs6u9oDspvYRg_7qchrono8duration5tenor5tests17test_from_str_errs_22case_06_without_prefix
FN:269,_RNvNtNtNtNtCs6u9oDspvYRg_7qchrono8duration5tenor5tests17test_from_str_errs_22case_07_invalid_suffix
FN:269,_RNvNtNtNtNtCs6u9oDspvYRg_7qchrono8duration5tenor5tests17test_from_str_errs_22case_08_invalid_suffix
FN:269,_RNvNtNtNtNtCs6u9oDspvYRg_7qchrono8duration5tenor5tests17test_from_str_errs_22case_09_invalid_number
FN:269,_RNvNtNtNtNtCs6u9oDspvYRg_7qchrono8duration5tenor5tests17test_from_str_errs_22case_10_invalid_number
FN:269,_RNvNtNtNtNtCs6u9oDspvYRg_7qchrono8duration5tenor5tests17test_from_str_errs_22case_11_invalid_number
FN:269,_RNvNtNtNtNtCs6u9oDspvYRg_7qchrono8duration5tenor5tests17test_from_str_errs_22case_12_invalid_number
FN:269,_RNvNtNtNtNtCs6u9oDspvYRg_7qchrono8duration5tenor5tests17test_from_str_errs_19case_13_non_trimmed
FN:269,_RNvNtNtNtNtCs6u9oDspvYRg_7qchrono8duration5tenor5tests17test_from_str_errs_19case_14_non_trimmed
FN:269,_RNvNtNtNtNtCs6u9oDspvYRg_7qchrono8duration5tenor5tests17test_from_str_errs_19case_15_non_trimmed
FN:269,_RNvNtNtNtNtCs6u9oDspvYRg_7qchrono8duration5tenor5tests17test_from_str_errs_19case_16_non_trimmed
FN:269,_RNvNtNtNtNtCs6u9oDspvYRg_7qchrono8duration5tenor5tests17test_from_str_errs_19case_17_non_trimmed
FN:269,_RNvNtNtNtNtCs6u9oDspvYRg_7qchrono8duration5tenor5tests17test_from_str_errs_19case_18_non_trimmed
FN:329,_RNvNtNtNtNtNtCs6u9oDspvYRg_7qchrono8duration5tenor5tests8test_mul5n_2_1s_5m_1_0
FN:329,_RNvNtNtNtNtNtCs6u9oDspvYRg_7qchrono8duration5tenor5tests8test_mul5n_2_1s_5m_2_1
FN:329,_RNvNtNtNtNtNtCs6u9oDspvYRg_7qchrono8duration5tenor5tests8test_mul5n_2_1s_6m_3__1
FN:329,_RNvNtNtNtNtNtCs6u9oDspvYRg_7qchrono8duration5tenor5tests8test_mul5n_2_1s_6m_4_42
FN:329,_RNvNtNtNtNtNtCs6u9oDspvYRg_7qchrono8duration5tenor5tests8test_mul5n_2_1s_7m_5__42
FN:205,_RNvNtNtNtNtNtCs6u9oDspvYRg_7qchrono8duration5tenor5tests12test_display6n_3__1s_14suffix_1___D__
FN:205,_RNvNtNtNtNtNtCs6u9oDspvYRg_7qchrono8duration5tenor5tests12test_display6n_3__1s_14suffix_2___W__
FN:205,_RNvNtNtNtNtNtCs6u9oDspvYRg_7qchrono8duration5tenor5tests12test_display6n_3__1s_14suffix_3___M__
FN:205,_RNvNtNtNtNtNtCs6u9oDspvYRg_7qchrono8duration5tenor5tests12test_display6n_3__1s_14suffix_4___Y__
FN:224,_RNvNtNtNtNtNtCs6u9oDspvYRg_7qchrono8duration5tenor5tests13test_from_str5n_1_0s_14suffix_1___D__
FN:224,_RNvNtNtNtNtNtCs6u9oDspvYRg_7qchrono8duration5tenor5tests13test_from_str5n_1_0s_14suffix_2___W__
FN:224,_RNvNtNtNtNtNtCs6u9oDspvYRg_7qchrono8duration5tenor5tests13test_from_str5n_1_0s_14suffix_3___M__
FN:224,_RNvNtNtNtNtNtCs6u9oDspvYRg_7qchrono8duration5tenor5tests13test_from_str5n_1_0s_14suffix_4___Y__
FN:294,_RNvNtNtNtNtCs6u9oDspvYRg_7qchrono8duration5tenor5tests8test_negs_5n_1_0
FN:294,_RNvNtNtNtNtCs6u9oDspvYRg_7qchrono8duration5tenor5tests8test_negs_5n_2_1
FN:294,_RNvNtNtNtNtCs6u9oDspvYRg_7qchrono8duration5tenor5tests8test_negs_6n_3__1
FN:294,_RNvNtNtNtNtCs6u9oDspvYRg_7qchrono8duration5tenor5tests8test_negs_6n_4_42
FN:294,_RNvNtNtNtNtCs6u9oDspvYRg_7qchrono8duration5tenor5tests8test_negs_7n_5__42
FN:205,_RNvNtNtNtNtNtCs6u9oDspvYRg_7qchrono8duration5tenor5tests12test_display5n_1_0s_14suffix_1___D__
FN:205,_RNvNtNtNtNtNtCs6u9oDspvYRg_7qchrono8duration5tenor5tests12test_display5n_1_0s_14suffix_2___W__
FN:205,_RNvNtNtNtNtNtCs6u9oDspvYRg_7qchrono8duration5tenor5tests12test_display5n_1_0s_14suffix_3___M__
FN:205,_RNvNtNtNtNtNtCs6u9oDspvYRg_7qchrono8duration5tenor5tests12test_display5n_1_0s_14suffix_4___Y__
FN:25,_RNvXNtNtCs6u9oDspvYRg_7qchrono8duration5tenorNtB2_5TenorNtNtCs2fyPGiZs4Bj_4core3fmt7Display3fmt
FN:39,_RNvXs_NtNtCs6u9oDspvYRg_7qchrono8duration5tenorNtB4_5TenorNtNtNtCs2fyPGiZs4Bj_4core3str6traits7FromStr8from_str
FN:60,_RNCNvXs_NtNtCs6u9oDspvYRg_7qchrono8duration5tenorNtB6_5TenorNtNtNtCs2fyPGiZs4Bj_4core3str6traits7FromStr8from_str0Ba_
FN:112,_RNvXs3_NtNtCs6u9oDspvYRg_7qchrono8duration5tenorNtB5_5TenorNtNtNtCs2fyPGiZs4Bj_4core3ops5arith3Neg3negB9_
FN:126,_RNvXs4_NtNtCs6u9oDspvYRg_7qchrono8duration5tenorNtB5_5TenorINtNtNtCs2fyPGiZs4Bj_4core3ops5arith3MulsE3mulB9_
FN:140,_RNvXs5_NtNtCs6u9oDspvYRg_7qchrono8duration5tenorsINtNtNtCs2fyPGiZs4Bj_4core3ops5arith3MulNtB5_5TenorE3mulB9_
FN:329,_RNvNtNtNtNtNtCs6u9oDspvYRg_7qchrono8duration5tenor5tests8test_mul6n_3__1s_5m_1_0
FN:329,_RNvNtNtNtNtNtCs6u9oDspvYRg_7qchrono8duration5tenor5tests8test_mul6n_3__1s_5m_2_1
FN:329,_RNvNtNtNtNtNtCs6u9oDspvYRg_7qchrono8duration5tenor5tests8test_mul6n_3__1s_6m_3__1
FN:329,_RNvNtNtNtNtNtCs6u9oDspvYRg_7qchrono8duration5tenor5tests8test_mul6n_3__1s_6m_4_42
FN:329,_RNvNtNtNtNtNtCs6u9oDspvYRg_7qchrono8duration5tenor5tests8test_mul6n_3__1s_7m_5__42
FN:394,_RNvNtNtNtNtCs6u9oDspvYRg_7qchrono8duration5tenor5tests14test_add_weekss_6case_1
FN:394,_RNvNtNtNtNtCs6u9oDspvYRg_7qchrono8duration5tenor5tests14test_add_weekss_6case_2
FN:394,_RNvNtNtNtNtCs6u9oDspvYRg_7qchrono8duration5tenor5tests14test_add_weekss_6case_3
FN:394,_RNvNtNtNtNtCs6u9oDspvYRg_7qchrono8duration5tenor5tests14test_add_weekss_6case_4
FN:394,_RNvNtNtNtNtCs6u9oDspvYRg_7qchrono8duration5tenor5tests14test_add_weekss_6case_5
FN:394,_RNvNtNtNtNtCs6u9oDspvYRg_7qchrono8duration5tenor5tests14test_add_weekss_6case_6
FN:394,_RNvNtNtNtNtCs6u9oDspvYRg_7qchrono8duration5tenor5tests14test_add_weekss_6case_7
FN:224,_RNvNtNtNtNtNtCs6u9oDspvYRg_7qchrono8duration5tenor5tests13test_from_str6n_3_42s_14suffix_1___D__
FN:224,_RNvNtNtNtNtNtCs6u9oDspvYRg_7qchrono8duration5tenor5tests13test_from_str6n_3_42s_14suffix_2___W__
FN:224,_RNvNtNtNtNtNtCs6u9oDspvYRg_7qchrono8duration5tenor5tests13test_from_str6n_3_42s_14suffix_3___M__
FN:224,_RNvNtNtNtNtNtCs6u9oDspvYRg_7qchrono8duration5tenor5tests13test_from_str6n_3_42s_14suffix_4___Y__
FN:411,_RNvNtNtNtNtCs6u9oDspvYRg_7qchrono8duration5tenor5tests15test_add_monthss_15case_01_typical
FN:411,_RNvNtNtNtNtCs6u9oDspvYRg_7qchrono8duration5tenor5tests15test_add_monthss_15case_02_typical
FN:411,_RNvNtNtNtNtCs6u9oDspvYRg_7qchrono8duration5tenor5tests15test_add_monthss_15case_03_typical
FN:411,_RNvNtNtNtNtCs6u9oDspvYRg_7qchrono8duration5tenor5tests15test_add_monthss_15case_04_typical
FN:411,_RNvNtNtNtNtCs6u9oDspvYRg_7qchrono8duration5tenor5tests15test_add_monthss_15case_05_typical
FN:411,_RNvNtNtNtNtCs6u9oDspvYRg_7qchrono8duration5tenor5tests15test_add_monthss_17case_06_not_exist
FN:411,_RNvNtNtNtNtCs6u9oDspvYRg_7qchrono8duration5tenor5tests15test_add_monthss_17case_07_not_exist
FN:411,_RNvNtNtNtNtCs6u9oDspvYRg_7qchrono8duration5tenor5tests15test_add_monthss_17case_08_not_exist
FN:411,_RNvNtNtNtNtCs6u9oDspvYRg_7qchrono8duration5tenor5tests15test_add_monthss_17case_09_not_exist
FN:411,_RNvNtNtNtNtCs6u9oDspvYRg_7qchrono8duration5tenor5tests15test_add_monthss_17case_10_not_exist
FN:329,_RNvNtNtNtNtNtCs6u9oDspvYRg_7qchrono8duration5tenor5tests8test_mul5n_1_0s_5m_1_0
FN:329,_RNvNtNtNtNtNtCs6u9oDspvYRg_7qchrono8duration5tenor5tests8test_mul5n_1_0s_5m_2_1
FN:329,_RNvNtNtNtNtNtCs6u9oDspvYRg_7qchrono8duration5tenor5tests8test_mul5n_1_0s_6m_3__1
FN:329,_RNvNtNtNtNtNtCs6u9oDspvYRg_7qchrono8duration5tenor5tests8test_mul5n_1_0s_6m_4_42
FN:329,_RNvNtNtNtNtNtCs6u9oDspvYRg_7qchrono8duration5tenor5tests8test_mul5n_1_0s_7m_5__42
FN:205,_RNvNtNtNtNtNtCs6u9oDspvYRg_7qchrono8duration5tenor5tests12test_display5n_2_1s_14suffix_1___D__
FN:205,_RNvNtNtNtNtNtCs6u9oDspvYRg_7qchrono8duration5tenor5tests12test_display5n_2_1s_14suffix_2___W__
FN:205,_RNvNtNtNtNtNtCs6u9oDspvYRg_7qchrono8duration5tenor5tests12test_display5n_2_1s_14suffix_3___M__
FN:205,_RNvNtNtNtNtNtCs6u9oDspvYRg_7qchrono8duration5tenor5tests12test_display5n_2_1s_14suffix_4___Y__
FN:435,_RNvNtNtNtNtCs6u9oDspvYRg_7qchrono8duration5tenor5tests14test_add_yearss_14case_1_typical
FN:435,_RNvNtNtNtNtCs6u9oDspvYRg_7qchrono8duration5tenor5tests14test_add_yearss_14case_2_typical
FN:435,_RNvNtNtNtNtCs6u9oDspvYRg_7qchrono8duration5tenor5tests14test_add_yearss_14case_3_typical
FN:435,_RNvNtNtNtNtCs6u9oDspvYRg_7qchrono8duration5tenor5tests14test_add_yearss_14case_4_typical
FN:435,_RNvNtNtNtNtCs6u9oDspvYRg_7qchrono8duration5tenor5tests14test_add_yearss_14case_5_typical
FN:435,_RNvNtNtNtNtCs6u9oDspvYRg_7qchrono8duration5tenor5tests14test_add_yearss_16case_6_not_exist
FN:435,_RNvNtNtNtNtCs6u9oDspvYRg_7qchrono8duration5tenor5tests14test_add_yearss_16case_7_not_exist
FN:74,_RINvXs0_NtNtCs6u9oDspvYRg_7qchrono8duration5tenorNtB6_5TenorNtNtCshDylzWGrM8d_5serde3ser9Serialize9serializepEBa_
FN:80,_RINvXs1_NtNtCs6u9oDspvYRg_7qchrono8duration5tenorNtB6_5TenorNtNtCshDylzWGrM8d_5serde2de11Deserialize11deserializepEBa_
FN:87,_RNvXs2_NtNtCs6u9oDspvYRg_7qchrono8duration5tenorNtB5_5TenorNtCsfZgeB9GPpUp_8schemars10JsonSchema11schema_name
FN:90,_RNvXs2_NtNtCs6u9oDspvYRg_7qchrono8duration5tenorNtB5_5TenorNtCsfZgeB9GPpUp_8schemars10JsonSchema9schema_id
FN:94,_RNvXs2_NtNtCs6u9oDspvYRg_7qchrono8duration5tenorNtB5_5TenorNtCsfZgeB9GPpUp_8schemars10JsonSchema11json_schema
FN:372,_RNvNtNtNtNtCs6u9oDspvYRg_7qchrono8duration5tenor5tests13test_add_dayss_6case_1
FN:372,_RNvNtNtNtNtCs6u9oDspvYRg_7qchrono8duration5tenor5tests13test_add_dayss_6case_2
FN:372,_RNvNtNtNtNtCs6u9oDspvYRg_7qchrono8duration5tenor5tests13test_add_dayss_6case_3
FN:372,_RNvNtNtNtNtCs6u9oDspvYRg_7qchrono8duration5tenor5tests13test_add_dayss_6case_4
FN:372,_RNvNtNtNtNtCs6u9oDspvYRg_7qchrono8duration5tenor5tests13test_add_dayss_6case_5
FN:372,_RNvNtNtNtNtCs6u9oDspvYRg_7qchrono8duration5tenor5tests13test_add_dayss_6case_6
FN:372,_RNvNtNtNtNtCs6u9oDspvYRg_7qchrono8duration5tenor5tests13test_add_dayss_6case_7
FN:25,_RNvXNtNtCs2bSmrEEol5z_7qchrono8duration5tenorNtB2_5TenorNtNtCs2fyPGiZs4Bj_4core3fmt7Display3fmt
FN:39,_RNvXs_NtNtCs2bSmrEEol5z_7qchrono8duration5tenorNtB4_5TenorNtNtNtCs2fyPGiZs4Bj_4core3str6traits7FromStr8from_str
FN:60,_RNCNvXs_NtNtCs2bSmrEEol5z_7qchrono8duration5tenorNtB6_5TenorNtNtNtCs2fyPGiZs4Bj_4core3str6traits7FromStr8from_str0Ba_
FN:87,_RNvXs2_NtNtCs2bSmrEEol5z_7qchrono8duration5tenorNtB5_5TenorNtCsfZgeB9GPpUp_8schemars10JsonSchema11schema_name
FN:90,_RNvXs2_NtNtCs2bSmrEEol5z_7qchrono8duration5tenorNtB5_5TenorNtCsfZgeB9GPpUp_8schemars10JsonSchema9schema_id
FN:94,_RNvXs2_NtNtCs2bSmrEEol5z_7qchrono8duration5tenorNtB5_5TenorNtCsfZgeB9GPpUp_8schemars10JsonSchema11json_schema
FN:112,_RNvXs3_NtNtCs2bSmrEEol5z_7qchrono8duration5tenorNtB5_5TenorNtNtNtCs2fyPGiZs4Bj_4core3ops5arith3Neg3negB9_
FN:148,_RNvXs6_NtNtCs2bSmrEEol5z_7qchrono8duration5tenorNtNtNtCs9T1gxOhu6ob_6chrono5naive4date9NaiveDateINtNtNtCs2fyPGiZs4Bj_4core3ops5arith3AddNtB5_5TenorE3add
FN:195,_RNvXs7_NtNtCs2bSmrEEol5z_7qchrono8duration5tenorNtNtNtCs9T1gxOhu6ob_6chrono5naive4date9NaiveDateINtNtNtCs2fyPGiZs4Bj_4core3ops5arith3SubNtB5_5TenorE3sub
FN:74,_RINvXs0_NtNtCs2bSmrEEol5z_7qchrono8duration5tenorNtB6_5TenorNtNtCshDylzWGrM8d_5serde3ser9Serialize9serializepEBa_
FN:80,_RINvXs1_NtNtCs2bSmrEEol5z_7qchrono8duration5tenorNtB6_5TenorNtNtCshDylzWGrM8d_5serde2de11Deserialize11deserializepEBa_
FN:126,_RNvXs4_NtNtCs2bSmrEEol5z_7qchrono8duration5tenorNtB5_5TenorINtNtNtCs2fyPGiZs4Bj_4core3ops5arith3MulsE3mulB9_
FN:140,_RNvXs5_NtNtCs2bSmrEEol5z_7qchrono8duration5tenorsINtNtNtCs2fyPGiZs4Bj_4core3ops5arith3MulNtB5_5TenorE3mulB9_
FN:112,_RNvXs3_NtNtCs2bSmrEEol5z_7qchrono8duration5tenorNtB5_5TenorNtNtNtCs2fyPGiZs4Bj_4core3ops5arith3Neg3negCsg8mytIw4ZXd_6qmodel
FNDA:111,_RNvXs6_NtNtCs6u9oDspvYRg_7qchrono8duration5tenorNtNtNtCs9T1gxOhu6ob_6chrono5naive4date9NaiveDateINtNtNtCs2fyPGiZs4Bj_4core3ops5arith3AddNtB5_5TenorE3add
FNDA:33,_RNvXs7_NtNtCs6u9oDspvYRg_7qchrono8duration5tenorNtNtNtCs9T1gxOhu6ob_6chrono5naive4date9NaiveDateINtNtNtCs2fyPGiZs4Bj_4core3ops5arith3SubNtB5_5TenorE3sub
FNDA:1,_RNvNtNtNtNtNtCs6u9oDspvYRg_7qchrono8duration5tenor5tests12test_display6n_4_42s_14suffix_1___D__
FNDA:1,_RNvNtNtNtNtNtCs6u9oDspvYRg_7qchrono8duration5tenor5tests12test_display6n_4_42s_14suffix_2___W__
FNDA:1,_RNvNtNtNtNtNtCs6u9oDspvYRg_7qchrono8duration5tenor5tests12test_display6n_4_42s_14suffix_3___M__
FNDA:1,_RNvNtNtNtNtNtCs6u9oDspvYRg_7qchrono8duration5tenor5tests12test_display6n_4_42s_14suffix_4___Y__
FNDA:1,_RNvNtNtNtNtNtCs6u9oDspvYRg_7qchrono8duration5tenor5tests12test_display7n_5__42s_14suffix_1___D__
FNDA:1,_RNvNtNtNtNtNtCs6u9oDspvYRg_7qchrono8duration5tenor5tests12test_display7n_5__42s_14suffix_2___W__
FNDA:1,_RNvNtNtNtNtNtCs6u9oDspvYRg_7qchrono8duration5tenor5tests12test_display7n_5__42s_14suffix_3___M__
FNDA:1,_RNvNtNtNtNtNtCs6u9oDspvYRg_7qchrono8duration5tenor5tests12test_display7n_5__42s_14suffix_4___Y__
FNDA:1,_RNvNtNtNtNtNtCs6u9oDspvYRg_7qchrono8duration5tenor5tests13test_from_str5n_2_1s_14suffix_1___D__
FNDA:1,_RNvNtNtNtNtNtCs6u9oDspvYRg_7qchrono8duration5tenor5tests13test_from_str5n_2_1s_14suffix_2___W__
FNDA:1,_RNvNtNtNtNtNtCs6u9oDspvYRg_7qchrono8duration5tenor5tests13test_from_str5n_2_1s_14suffix_3___M__
FNDA:1,_RNvNtNtNtNtNtCs6u9oDspvYRg_7qchrono8duration5tenor5tests13test_from_str5n_2_1s_14suffix_4___Y__
FNDA:20,_RNvNtNtNtCs6u9oDspvYRg_7qchrono8duration5tenor5tests12test_display
FNDA:12,_RNvNtNtNtCs6u9oDspvYRg_7qchrono8duration5tenor5tests13test_from_str
FNDA:18,_RNvNtNtNtCs6u9oDspvYRg_7qchrono8duration5tenor5tests17test_from_str_err
FNDA:5,_RNvNtNtNtCs6u9oDspvYRg_7qchrono8duration5tenor5tests8test_neg
FNDA:25,_RNvNtNtNtCs6u9oDspvYRg_7qchrono8duration5tenor5tests8test_mul
FNDA:1,_RNvNtNtNtNtNtCs6u9oDspvYRg_7qchrono8duration5tenor5tests8test_mul6n_4_42s_5m_1_0
FNDA:1,_RNvNtNtNtNtNtCs6u9oDspvYRg_7qchrono8duration5tenor5tests8test_mul6n_4_42s_5m_2_1
FNDA:1,_RNvNtNtNtNtNtCs6u9oDspvYRg_7qchrono8duration5tenor5tests8test_mul6n_4_42s_6m_3__1
FNDA:1,_RNvNtNtNtNtNtCs6u9oDspvYRg_7qchrono8duration5tenor5tests8test_mul6n_4_42s_6m_4_42
FNDA:1,_RNvNtNtNtNtNtCs6u9oDspvYRg_7qchrono8duration5tenor5tests8test_mul6n_4_42s_7m_5__42
FNDA:7,_RNvNtNtNtCs6u9oDspvYRg_7qchrono8duration5tenor5tests13test_add_days
FNDA:7,_RNvNtNtNtCs6u9oDspvYRg_7qchrono8duration5tenor5tests14test_add_weeks
FNDA:10,_RNvNtNtNtCs6u9oDspvYRg_7qchrono8duration5tenor5tests15test_add_months
FNDA:7,_RNvNtNtNtCs6u9oDspvYRg_7qchrono8duration5tenor5tests14test_add_years
FNDA:33,_RNvNtNtNtCs6u9oDspvYRg_7qchrono8duration5tenor5tests8test_sub
FNDA:1,_RNvNtNtNtNtCs6u9oDspvYRg_7qchrono8duration5tenor5tests8test_subs_7case_01
FNDA:1,_RNvNtNtNtNtCs6u9oDspvYRg_7qchrono8duration5tenor5tests8test_subs_7case_02
FNDA:1,_RNvNtNtNtNtCs6u9oDspvYRg_7qchrono8duration5tenor5tests8test_subs_7case_03
FNDA:1,_RNvNtNtNtNtCs6u9oDspvYRg_7qchrono8duration5tenor5tests8test_subs_7case_04
FNDA:1,_RNvNtNtNtNtCs6u9oDspvYRg_7qchrono8duration5tenor5tests8test_subs_7case_05
FNDA:1,_RNvNtNtNtNtCs6u9oDspvYRg_7qchrono8duration5tenor5tests8test_subs_7case_06
FNDA:1,_RNvNtNtNtNtCs6u9oDspvYRg_7qchrono8duration5tenor5tests8test_subs_7case_07
FNDA:1,_RNvNtNtNtNtCs6u9oDspvYRg_7qchrono8duration5tenor5tests8test_subs_7case_08
FNDA:1,_RNvNtNtNtNtCs6u9oDspvYRg_7qchrono8duration5tenor5tests8test_subs_7case_09
FNDA:1,_RNvNtNtNtNtCs6u9oDspvYRg_7qchrono8duration5tenor5tests8test_subs_7case_10
FNDA:1,_RNvNtNtNtNtCs6u9oDspvYRg_7qchrono8duration5tenor5tests8test_subs_7case_11
FNDA:1,_RNvNtNtNtNtCs6u9oDspvYRg_7qchrono8duration5tenor5tests8test_subs_7case_12
FNDA:1,_RNvNtNtNtNtCs6u9oDspvYRg_7qchrono8duration5tenor5tests8test_subs_7case_13
FNDA:1,_RNvNtNtNtNtCs6u9oDspvYRg_7qchrono8duration5tenor5tests8test_subs_7case_14
FNDA:1,_RNvNtNtNtNtCs6u9oDspvYRg_7qchrono8duration5tenor5tests8test_subs_7case_15
FNDA:1,_RNvNtNtNtNtCs6u9oDspvYRg_7qchrono8duration5tenor5tests8test_subs_7case_16
FNDA:1,_RNvNtNtNtNtCs6u9oDspvYRg_7qchrono8duration5tenor5tests8test_subs_7case_17
FNDA:1,_RNvNtNtNtNtCs6u9oDspvYRg_7qchrono8duration5tenor5tests8test_subs_7case_18
FNDA:1,_RNvNtNtNtNtCs6u9oDspvYRg_7qchrono8duration5tenor5tests8test_subs_7case_19
FNDA:1,_RNvNtNtNtNtCs6u9oDspvYRg_7qchrono8duration5tenor5tests8test_subs_7case_20
FNDA:1,_RNvNtNtNtNtCs6u9oDspvYRg_7qchrono8duration5tenor5tests8test_subs_7case_21
FNDA:1,_RNvNtNtNtNtCs6u9oDspvYRg_7qchrono8duration5tenor5tests8test_subs_7case_22
FNDA:1,_RNvNtNtNtNtCs6u9oDspvYRg_7qchrono8duration5tenor5tests8test_subs_7case_23
FNDA:1,_RNvNtNtNtNtCs6u9oDspvYRg_7qchrono8duration5tenor5tests8test_subs_7case_24
FNDA:1,_RNvNtNtNtNtCs6u9oDspvYRg_7qchrono8duration5tenor5tests8test_subs_7case_25
FNDA:1,_RNvNtNtNtNtCs6u9oDspvYRg_7qchrono8duration5tenor5tests8test_subs_7case_26
FNDA:1,_RNvNtNtNtNtCs6u9oDspvYRg_7qchrono8duration5tenor5tests8test_subs_7case_27
FNDA:1,_RNvNtNtNtNtCs6u9oDspvYRg_7qchrono8duration5tenor5tests8test_subs_7case_28
FNDA:1,_RNvNtNtNtNtCs6u9oDspvYRg_7qchrono8duration5tenor5tests8test_subs_7case_29
FNDA:1,_RNvNtNtNtNtCs6u9oDspvYRg_7qchrono8duration5tenor5tests8test_subs_7case_30
FNDA:1,_RNvNtNtNtNtCs6u9oDspvYRg_7qchrono8duration5tenor5tests8test_subs_7case_31
FNDA:1,_RNvNtNtNtNtCs6u9oDspvYRg_7qchrono8duration5tenor5tests8test_subs_7case_32
FNDA:1,_RNvNtNtNtNtCs6u9oDspvYRg_7qchrono8duration5tenor5tests8test_subs_7case_33
FNDA:1,_RNvNtNtNtNtNtCs6u9oDspvYRg_7qchrono8duration5tenor5tests8test_mul7n_5__42s_5m_1_0
FNDA:1,_RNvNtNtNtNtNtCs6u9oDspvYRg_7qchrono8duration5tenor5tests8test_mul7n_5__42s_5m_2_1
FNDA:1,_RNvNtNtNtNtNtCs6u9oDspvYRg_7qchrono8duration5tenor5tests8test_mul7n_5__42s_6m_3__1
FNDA:1,_RNvNtNtNtNtNtCs6u9oDspvYRg_7qchrono8duration5tenor5tests8test_mul7n_5__42s_6m_4_42
FNDA:1,_RNvNtNtNtNtNtCs6u9oDspvYRg_7qchrono8duration5tenor5tests8test_mul7n_5__42s_7m_5__42
FNDA:1,_RNvNtNtNtNtCs6u9oDspvYRg_7qchrono8duration5tenor5tests17test_from_str_errs_13case_01_empty
FNDA:1,_RNvNtNtNtNtCs6u9oDspvYRg_7qchrono8duration5tenor5tests17test_from_str_errs_18case_02_whitespace
FNDA:1,_RNvNtNtNtNtCs6u9oDspvYRg_7qchrono8duration5tenor5tests17test_from_str_errs_22case_03_without_prefix
FNDA:1,_RNvNtNtNtNtCs6u9oDspvYRg_7qchrono8duration5tenor5tests17test_from_str_errs_22case_04_without_prefix
FNDA:1,_RNvNtNtNtNtCs6u9oDspvYRg_7qchrono8duration5tenor5tests17test_from_str_errs_22case_05_without_prefix
FNDA:1,_RNvNtNtNtNtCs6u9oDspvYRg_7qchrono8duration5tenor5tests17test_from_str_errs_22case_06_without_prefix
FNDA:1,_RNvNtNtNtNtCs6u9oDspvYRg_7qchrono8duration5tenor5tests17test_from_str_errs_22case_07_invalid_suffix
FNDA:1,_RNvNtNtNtNtCs6u9oDspvYRg_7qchrono8duration5tenor5tests17test_from_str_errs_22case_08_invalid_suffix
FNDA:1,_RNvNtNtNtNtCs6u9oDspvYRg_7qchrono8duration5tenor5tests17test_from_str_errs_22case_09_invalid_number
FNDA:1,_RNvNtNtNtNtCs6u9oDspvYRg_7qchrono8duration5tenor5tests17test_from_str_errs_22case_10_invalid_number
FNDA:1,_RNvNtNtNtNtCs6u9oDspvYRg_7qchrono8duration5tenor5tests17test_from_str_errs_22case_11_invalid_number
FNDA:1,_RNvNtNtNtNtCs6u9oDspvYRg_7qchrono8duration5tenor5tests17test_from_str_errs_22case_12_invalid_number
FNDA:1,_RNvNtNtNtNtCs6u9oDspvYRg_7qchrono8duration5tenor5tests17test_from_str_errs_19case_13_non_trimmed
FNDA:1,_RNvNtNtNtNtCs6u9oDspvYRg_7qchrono8duration5tenor5tests17test_from_str_errs_19case_14_non_trimmed
FNDA:1,_RNvNtNtNtNtCs6u9oDspvYRg_7qchrono8duration5tenor5tests17test_from_str_errs_19case_15_non_trimmed
FNDA:1,_RNvNtNtNtNtCs6u9oDspvYRg_7qchrono8duration5tenor5tests17test_from_str_errs_19case_16_non_trimmed
FNDA:1,_RNvNtNtNtNtCs6u9oDspvYRg_7qchrono8duration5tenor5tests17test_from_str_errs_19case_17_non_trimmed
FNDA:1,_RNvNtNtNtNtCs6u9oDspvYRg_7qchrono8duration5tenor5tests17test_from_str_errs_19case_18_non_trimmed
FNDA:1,_RNvNtNtNtNtNtCs6u9oDspvYRg_7qchrono8duration5tenor5tests8test_mul5n_2_1s_5m_1_0
FNDA:1,_RNvNtNtNtNtNtCs6u9oDspvYRg_7qchrono8duration5tenor5tests8test_mul5n_2_1s_5m_2_1
FNDA:1,_RNvNtNtNtNtNtCs6u9oDspvYRg_7qchrono8duration5tenor5tests8test_mul5n_2_1s_6m_3__1
FNDA:1,_RNvNtNtNtNtNtCs6u9oDspvYRg_7qchrono8duration5tenor5tests8test_mul5n_2_1s_6m_4_42
FNDA:1,_RNvNtNtNtNtNtCs6u9oDspvYRg_7qchrono8duration5tenor5tests8test_mul5n_2_1s_7m_5__42
FNDA:1,_RNvNtNtNtNtNtCs6u9oDspvYRg_7qchrono8duration5tenor5tests12test_display6n_3__1s_14suffix_1___D__
FNDA:1,_RNvNtNtNtNtNtCs6u9oDspvYRg_7qchrono8duration5tenor5tests12test_display6n_3__1s_14suffix_2___W__
FNDA:1,_RNvNtNtNtNtNtCs6u9oDspvYRg_7qchrono8duration5tenor5tests12test_display6n_3__1s_14suffix_3___M__
FNDA:1,_RNvNtNtNtNtNtCs6u9oDspvYRg_7qchrono8duration5tenor5tests12test_display6n_3__1s_14suffix_4___Y__
FNDA:1,_RNvNtNtNtNtNtCs6u9oDspvYRg_7qchrono8duration5tenor5tests13test_from_str5n_1_0s_14suffix_1___D__
FNDA:1,_RNvNtNtNtNtNtCs6u9oDspvYRg_7qchrono8duration5tenor5tests13test_from_str5n_1_0s_14suffix_2___W__
FNDA:1,_RNvNtNtNtNtNtCs6u9oDspvYRg_7qchrono8duration5tenor5tests13test_from_str5n_1_0s_14suffix_3___M__
FNDA:1,_RNvNtNtNtNtNtCs6u9oDspvYRg_7qchrono8duration5tenor5tests13test_from_str5n_1_0s_14suffix_4___Y__
FNDA:1,_RNvNtNtNtNtCs6u9oDspvYRg_7qchrono8duration5tenor5tests8test_negs_5n_1_0
FNDA:1,_RNvNtNtNtNtCs6u9oDspvYRg_7qchrono8duration5tenor5tests8test_negs_5n_2_1
FNDA:1,_RNvNtNtNtNtCs6u9oDspvYRg_7qchrono8duration5tenor5tests8test_negs_6n_3__1
FNDA:1,_RNvNtNtNtNtCs6u9oDspvYRg_7qchrono8duration5tenor5tests8test_negs_6n_4_42
FNDA:1,_RNvNtNtNtNtCs6u9oDspvYRg_7qchrono8duration5tenor5tests8test_negs_7n_5__42
FNDA:1,_RNvNtNtNtNtNtCs6u9oDspvYRg_7qchrono8duration5tenor5tests12test_display5n_1_0s_14suffix_1___D__
FNDA:1,_RNvNtNtNtNtNtCs6u9oDspvYRg_7qchrono8duration5tenor5tests12test_display5n_1_0s_14suffix_2___W__
FNDA:1,_RNvNtNtNtNtNtCs6u9oDspvYRg_7qchrono8duration5tenor5tests12test_display5n_1_0s_14suffix_3___M__
FNDA:1,_RNvNtNtNtNtNtCs6u9oDspvYRg_7qchrono8duration5tenor5tests12test_display5n_1_0s_14suffix_4___Y__
FNDA:20,_RNvXNtNtCs6u9oDspvYRg_7qchrono8duration5tenorNtB2_5TenorNtNtCs2fyPGiZs4Bj_4core3fmt7Display3fmt
FNDA:54,_RNvXs_NtNtCs6u9oDspvYRg_7qchrono8duration5tenorNtB4_5TenorNtNtNtCs2fyPGiZs4Bj_4core3str6traits7FromStr8from_str
FNDA:8,_RNCNvXs_NtNtCs6u9oDspvYRg_7qchrono8duration5tenorNtB6_5TenorNtNtNtCs2fyPGiZs4Bj_4core3str6traits7FromStr8from_str0Ba_
FNDA:86,_RNvXs3_NtNtCs6u9oDspvYRg_7qchrono8duration5tenorNtB5_5TenorNtNtNtCs2fyPGiZs4Bj_4core3ops5arith3Neg3negB9_
FNDA:200,_RNvXs4_NtNtCs6u9oDspvYRg_7qchrono8duration5tenorNtB5_5TenorINtNtNtCs2fyPGiZs4Bj_4core3ops5arith3MulsE3mulB9_
FNDA:100,_RNvXs5_NtNtCs6u9oDspvYRg_7qchrono8duration5tenorsINtNtNtCs2fyPGiZs4Bj_4core3ops5arith3MulNtB5_5TenorE3mulB9_
FNDA:1,_RNvNtNtNtNtNtCs6u9oDspvYRg_7qchrono8duration5tenor5tests8test_mul6n_3__1s_5m_1_0
FNDA:1,_RNvNtNtNtNtNtCs6u9oDspvYRg_7qchrono8duration5tenor5tests8test_mul6n_3__1s_5m_2_1
FNDA:1,_RNvNtNtNtNtNtCs6u9oDspvYRg_7qchrono8duration5tenor5tests8test_mul6n_3__1s_6m_3__1
FNDA:1,_RNvNtNtNtNtNtCs6u9oDspvYRg_7qchrono8duration5tenor5tests8test_mul6n_3__1s_6m_4_42
FNDA:1,_RNvNtNtNtNtNtCs6u9oDspvYRg_7qchrono8duration5tenor5tests8test_mul6n_3__1s_7m_5__42
FNDA:1,_RNvNtNtNtNtCs6u9oDspvYRg_7qchrono8duration5tenor5tests14test_add_weekss_6case_1
FNDA:1,_RNvNtNtNtNtCs6u9oDspvYRg_7qchrono8duration5tenor5tests14test_add_weekss_6case_2
FNDA:1,_RNvNtNtNtNtCs6u9oDspvYRg_7qchrono8duration5tenor5tests14test_add_weekss_6case_3
FNDA:1,_RNvNtNtNtNtCs6u9oDspvYRg_7qchrono8duration5tenor5tests14test_add_weekss_6case_4
FNDA:1,_RNvNtNtNtNtCs6u9oDspvYRg_7qchrono8duration5tenor5tests14test_add_weekss_6case_5
FNDA:1,_RNvNtNtNtNtCs6u9oDspvYRg_7qchrono8duration5tenor5tests14test_add_weekss_6case_6
FNDA:1,_RNvNtNtNtNtCs6u9oDspvYRg_7qchrono8duration5tenor5tests14test_add_weekss_6case_7
FNDA:1,_RNvNtNtNtNtNtCs6u9oDspvYRg_7qchrono8duration5tenor5tests13test_from_str6n_3_42s_14suffix_1___D__
FNDA:1,_RNvNtNtNtNtNtCs6u9oDspvYRg_7qchrono8duration5tenor5tests13test_from_str6n_3_42s_14suffix_2___W__
FNDA:1,_RNvNtNtNtNtNtCs6u9oDspvYRg_7qchrono8duration5tenor5tests13test_from_str6n_3_42s_14suffix_3___M__
FNDA:1,_RNvNtNtNtNtNtCs6u9oDspvYRg_7qchrono8duration5tenor5tests13test_from_str6n_3_42s_14suffix_4___Y__
FNDA:1,_RNvNtNtNtNtCs6u9oDspvYRg_7qchrono8duration5tenor5tests15test_add_monthss_15case_01_typical
FNDA:1,_RNvNtNtNtNtCs6u9oDspvYRg_7qchrono8duration5tenor5tests15test_add_monthss_15case_02_typical
FNDA:1,_RNvNtNtNtNtCs6u9oDspvYRg_7qchrono8duration5tenor5tests15test_add_monthss_15case_03_typical
FNDA:1,_RNvNtNtNtNtCs6u9oDspvYRg_7qchrono8duration5tenor5tests15test_add_monthss_15case_04_typical
FNDA:1,_RNvNtNtNtNtCs6u9oDspvYRg_7qchrono8duration5tenor5tests15test_add_monthss_15case_05_typical
FNDA:1,_RNvNtNtNtNtCs6u9oDspvYRg_7qchrono8duration5tenor5tests15test_add_monthss_17case_06_not_exist
FNDA:1,_RNvNtNtNtNtCs6u9oDspvYRg_7qchrono8duration5tenor5tests15test_add_monthss_17case_07_not_exist
FNDA:1,_RNvNtNtNtNtCs6u9oDspvYRg_7qchrono8duration5tenor5tests15test_add_monthss_17case_08_not_exist
FNDA:1,_RNvNtNtNtNtCs6u9oDspvYRg_7qchrono8duration5tenor5tests15test_add_monthss_17case_09_not_exist
FNDA:1,_RNvNtNtNtNtCs6u9oDspvYRg_7qchrono8duration5tenor5tests15test_add_monthss_17case_10_not_exist
FNDA:1,_RNvNtNtNtNtNtCs6u9oDspvYRg_7qchrono8duration5tenor5tests8test_mul5n_1_0s_5m_1_0
FNDA:1,_RNvNtNtNtNtNtCs6u9oDspvYRg_7qchrono8duration5tenor5tests8test_mul5n_1_0s_5m_2_1
FNDA:1,_RNvNtNtNtNtNtCs6u9oDspvYRg_7qchrono8duration5tenor5tests8test_mul5n_1_0s_6m_3__1
FNDA:1,_RNvNtNtNtNtNtCs6u9oDspvYRg_7qchrono8duration5tenor5tests8test_mul5n_1_0s_6m_4_42
FNDA:1,_RNvNtNtNtNtNtCs6u9oDspvYRg_7qchrono8duration5tenor5tests8test_mul5n_1_0s_7m_5__42
FNDA:1,_RNvNtNtNtNtNtCs6u9oDspvYRg_7qchrono8duration5tenor5tests12test_display5n_2_1s_14suffix_1___D__
FNDA:1,_RNvNtNtNtNtNtCs6u9oDspvYRg_7qchrono8duration5tenor5tests12test_display5n_2_1s_14suffix_2___W__
FNDA:1,_RNvNtNtNtNtNtCs6u9oDspvYRg_7qchrono8duration5tenor5tests12test_display5n_2_1s_14suffix_3___M__
FNDA:1,_RNvNtNtNtNtNtCs6u9oDspvYRg_7qchrono8duration5tenor5tests12test_display5n_2_1s_14suffix_4___Y__
FNDA:1,_RNvNtNtNtNtCs6u9oDspvYRg_7qchrono8duration5tenor5tests14test_add_yearss_14case_1_typical
FNDA:1,_RNvNtNtNtNtCs6u9oDspvYRg_7qchrono8duration5tenor5tests14test_add_yearss_14case_2_typical
FNDA:1,_RNvNtNtNtNtCs6u9oDspvYRg_7qchrono8duration5tenor5tests14test_add_yearss_14case_3_typical
FNDA:1,_RNvNtNtNtNtCs6u9oDspvYRg_7qchrono8duration5tenor5tests14test_add_yearss_14case_4_typical
FNDA:1,_RNvNtNtNtNtCs6u9oDspvYRg_7qchrono8duration5tenor5tests14test_add_yearss_14case_5_typical
FNDA:1,_RNvNtNtNtNtCs6u9oDspvYRg_7qchrono8duration5tenor5tests14test_add_yearss_16case_6_not_exist
FNDA:1,_RNvNtNtNtNtCs6u9oDspvYRg_7qchrono8duration5tenor5tests14test_add_yearss_16case_7_not_exist
FNDA:0,_RINvXs0_NtNtCs6u9oDspvYRg_7qchrono8duration5tenorNtB6_5TenorNtNtCshDylzWGrM8d_5serde3ser9Serialize9serializepEBa_
FNDA:0,_RINvXs1_NtNtCs6u9oDspvYRg_7qchrono8duration5tenorNtB6_5TenorNtNtCshDylzWGrM8d_5serde2de11Deserialize11deserializepEBa_
FNDA:0,_RNvXs2_NtNtCs6u9oDspvYRg_7qchrono8duration5tenorNtB5_5TenorNtCsfZgeB9GPpUp_8schemars10JsonSchema11schema_name
FNDA:0,_RNvXs2_NtNtCs6u9oDspvYRg_7qchrono8duration5tenorNtB5_5TenorNtCsfZgeB9GPpUp_8schemars10JsonSchema9schema_id
FNDA:0,_RNvXs2_NtNtCs6u9oDspvYRg_7qchrono8duration5tenorNtB5_5TenorNtCsfZgeB9GPpUp_8schemars10JsonSchema11json_schema
FNDA:1,_RNvNtNtNtNtCs6u9oDspvYRg_7qchrono8duration5tenor5tests13test_add_dayss_6case_1
FNDA:1,_RNvNtNtNtNtCs6u9oDspvYRg_7qchrono8duration5tenor5tests13test_add_dayss_6case_2
FNDA:1,_RNvNtNtNtNtCs6u9oDspvYRg_7qchrono8duration5tenor5tests13test_add_dayss_6case_3
FNDA:1,_RNvNtNtNtNtCs6u9oDspvYRg_7qchrono8duration5tenor5tests13test_add_dayss_6case_4
FNDA:1,_RNvNtNtNtNtCs6u9oDspvYRg_7qchrono8duration5tenor5tests13test_add_dayss_6case_5
FNDA:1,_RNvNtNtNtNtCs6u9oDspvYRg_7qchrono8duration5tenor5tests13test_add_dayss_6case_6
FNDA:1,_RNvNtNtNtNtCs6u9oDspvYRg_7qchrono8duration5tenor5tests13test_add_dayss_6case_7
FNDA:4,_RNvXNtNtCs2bSmrEEol5z_7qchrono8duration5tenorNtB2_5TenorNtNtCs2fyPGiZs4Bj_4core3fmt7Display3fmt
FNDA:9,_RNvXs_NtNtCs2bSmrEEol5z_7qchrono8duration5tenorNtB4_5TenorNtNtNtCs2fyPGiZs4Bj_4core3str6traits7FromStr8from_str
FNDA:0,_RNCNvXs_NtNtCs2bSmrEEol5z_7qchrono8duration5tenorNtB6_5TenorNtNtNtCs2fyPGiZs4Bj_4core3str6traits7FromStr8from_str0Ba_
FNDA:1,_RNvXs2_NtNtCs2bSmrEEol5z_7qchrono8duration5tenorNtB5_5TenorNtCsfZgeB9GPpUp_8schemars10JsonSchema11schema_name
FNDA:1,_RNvXs2_NtNtCs2bSmrEEol5z_7qchrono8duration5tenorNtB5_5TenorNtCsfZgeB9GPpUp_8schemars10JsonSchema9schema_id
FNDA:1,_RNvXs2_NtNtCs2bSmrEEol5z_7qchrono8duration5tenorNtB5_5TenorNtCsfZgeB9GPpUp_8schemars10JsonSchema11json_schema
FNDA:0,_RNvXs3_NtNtCs2bSmrEEol5z_7qchrono8duration5tenorNtB5_5TenorNtNtNtCs2fyPGiZs4Bj_4core3ops5arith3Neg3negB9_
FNDA:28,_RNvXs6_NtNtCs2bSmrEEol5z_7qchrono8duration5tenorNtNtNtCs9T1gxOhu6ob_6chrono5naive4date9NaiveDateINtNtNtCs2fyPGiZs4Bj_4core3ops5arith3AddNtB5_5TenorE3add
FNDA:0,_RNvXs7_NtNtCs2bSmrEEol5z_7qchrono8duration5tenorNtNtNtCs9T1gxOhu6ob_6chrono5naive4date9NaiveDateINtNtNtCs2fyPGiZs4Bj_4core3ops5arith3SubNtB5_5TenorE3sub
FNDA:0,_RINvXs0_NtNtCs2bSmrEEol5z_7qchrono8duration5tenorNtB6_5TenorNtNtCshDylzWGrM8d_5serde3ser9Serialize9serializepEBa_
FNDA:0,_RINvXs1_NtNtCs2bSmrEEol5z_7qchrono8duration5tenorNtB6_5TenorNtNtCshDylzWGrM8d_5serde2de11Deserialize11deserializepEBa_
FNDA:0,_RNvXs4_NtNtCs2bSmrEEol5z_7qchrono8duration5tenorNtB5_5TenorINtNtNtCs2fyPGiZs4Bj_4core3ops5arith3MulsE3mulB9_
FNDA:0,_RNvXs5_NtNtCs2bSmrEEol5z_7qchrono8duration5tenorsINtNtNtCs2fyPGiZs4Bj_4core3ops5arith3MulNtB5_5TenorE3mulB9_
FNDA:28,_RNvXs3_NtNtCs2bSmrEEol5z_7qchrono8duration5tenorNtB5_5TenorNtNtNtCs2fyPGiZs4Bj_4core3ops5arith3Neg3negCsg8mytIw4ZXd_6qmodel
FNF:23
FNH:21
DA:25,24
DA:26,24
DA:27,9
DA:28,5
DA:29,5
DA:30,5
DA:32,24
DA:33,24
DA:39,63
DA:40,63
DA:41,12
DA:42,12
DA:43,39
DA:46,63
DA:47,8
DA:48,8
DA:49,8
DA:50,8
DA:52,55
DA:53,55
DA:55,2
DA:56,2
DA:57,2
DA:60,53
DA:61,8
DA:62,53
DA:63,45
DA:64,18
DA:65,9
DA:66,9
DA:67,9
DA:68,0
DA:70,63
DA:74,0
DA:75,0
DA:76,0
DA:80,0
DA:81,0
DA:82,0
DA:83,0
DA:87,1
DA:88,1
DA:89,1
DA:90,1
DA:91,1
DA:92,1
DA:94,1
DA:95,1
DA:96,1
DA:97,1
DA:98,1
DA:99,1
DA:100,1
DA:101,1
DA:102,1
DA:112,114
DA:113,114
DA:114,47
DA:115,19
DA:116,29
DA:117,19
DA:119,114
DA:126,200
DA:127,200
DA:128,50
DA:129,50
DA:130,50
DA:131,50
DA:133,200
DA:140,100
DA:141,100
DA:142,100
DA:148,139
DA:149,139
DA:150,56
DA:151,56
DA:152,12
DA:153,12
DA:155,44
DA:156,44
DA:159,21
DA:160,21
DA:161,21
DA:162,9
DA:163,9
DA:165,12
DA:166,12
DA:169,41
DA:170,41
DA:171,18
DA:172,18
DA:174,23
DA:175,23
DA:178,21
DA:179,21
DA:180,21
DA:181,7
DA:182,7
DA:184,14
DA:185,14
DA:189,139
DA:195,33
DA:196,33
DA:197,33
DA:205,20
DA:224,12
DA:269,18
DA:294,5
DA:329,25
DA:372,7
DA:394,7
DA:411,10
DA:435,7
DA:452,33
BRF:0
BRH:0
LF:116
LH:108
end_of_record
SF:/home/runner/work/qrs/qrs/libs/core/qchrono/src/timepoint/datetime.rs
FN:438,_RNvNtNtNtCs6u9oDspvYRg_7qchrono9timepoint8datetime5tests14test_parse_utc
FN:452,_RNvNtNtNtCs6u9oDspvYRg_7qchrono9timepoint8datetime5tests23test_parse_fixed_offset
FN:466,_RNvNtNtNtCs6u9oDspvYRg_7qchrono9timepoint8datetime5tests18test_parse_with_tz
FN:466,_RNvNtNtNtNtCs6u9oDspvYRg_7qchrono9timepoint8datetime5tests18test_parse_with_tzs_7case_01
FN:466,_RNvNtNtNtNtCs6u9oDspvYRg_7qchrono9timepoint8datetime5tests18test_parse_with_tzs_7case_02
FN:466,_RNvNtNtNtNtCs6u9oDspvYRg_7qchrono9timepoint8datetime5tests18test_parse_with_tzs_7case_03
FN:466,_RNvNtNtNtNtCs6u9oDspvYRg_7qchrono9timepoint8datetime5tests18test_parse_with_tzs_7case_04
FN:466,_RNvNtNtNtNtCs6u9oDspvYRg_7qchrono9timepoint8datetime5tests18test_parse_with_tzs_7case_05
FN:466,_RNvNtNtNtNtCs6u9oDspvYRg_7qchrono9timepoint8datetime5tests18test_parse_with_tzs_7case_06
FN:466,_RNvNtNtNtNtCs6u9oDspvYRg_7qchrono9timepoint8datetime5tests18test_parse_with_tzs_7case_07
FN:466,_RNvNtNtNtNtCs6u9oDspvYRg_7qchrono9timepoint8datetime5tests18test_parse_with_tzs_7case_08
FN:466,_RNvNtNtNtNtCs6u9oDspvYRg_7qchrono9timepoint8datetime5tests18test_parse_with_tzs_7case_09
FN:466,_RNvNtNtNtNtCs6u9oDspvYRg_7qchrono9timepoint8datetime5tests18test_parse_with_tzs_7case_10
FN:466,_RNvNtNtNtNtCs6u9oDspvYRg_7qchrono9timepoint8datetime5tests18test_parse_with_tzs_7case_11
FN:466,_RNvNtNtNtNtCs6u9oDspvYRg_7qchrono9timepoint8datetime5tests18test_parse_with_tzs_7case_12
FN:466,_RNvNtNtNtNtCs6u9oDspvYRg_7qchrono9timepoint8datetime5tests18test_parse_with_tzs_7case_13
FN:466,_RNvNtNtNtNtCs6u9oDspvYRg_7qchrono9timepoint8datetime5tests18test_parse_with_tzs_7case_14
FN:466,_RNvNtNtNtNtCs6u9oDspvYRg_7qchrono9timepoint8datetime5tests18test_parse_with_tzs_7case_15
FN:466,_RNvNtNtNtNtCs6u9oDspvYRg_7qchrono9timepoint8datetime5tests18test_parse_with_tzs_7case_16
FN:466,_RNvNtNtNtNtCs6u9oDspvYRg_7qchrono9timepoint8datetime5tests18test_parse_with_tzs_7case_17
FN:466,_RNvNtNtNtNtCs6u9oDspvYRg_7qchrono9timepoint8datetime5tests18test_parse_with_tzs_7case_18
FN:466,_RNvNtNtNtNtCs6u9oDspvYRg_7qchrono9timepoint8datetime5tests18test_parse_with_tzs_7case_19
FN:466,_RNvNtNtNtNtCs6u9oDspvYRg_7qchrono9timepoint8datetime5tests18test_parse_with_tzs_7case_20
FN:466,_RNvNtNtNtNtCs6u9oDspvYRg_7qchrono9timepoint8datetime5tests18test_parse_with_tzs_7case_21
FN:466,_RNvNtNtNtNtCs6u9oDspvYRg_7qchrono9timepoint8datetime5tests18test_parse_with_tzs_7case_22
FN:466,_RNvNtNtNtNtCs6u9oDspvYRg_7qchrono9timepoint8datetime5tests18test_parse_with_tzs_7case_23
FN:466,_RNvNtNtNtNtCs6u9oDspvYRg_7qchrono9timepoint8datetime5tests18test_parse_with_tzs_7case_24
FN:466,_RNvNtNtNtNtCs6u9oDspvYRg_7qchrono9timepoint8datetime5tests18test_parse_with_tzs_7case_25
FN:466,_RNvNtNtNtNtCs6u9oDspvYRg_7qchrono9timepoint8datetime5tests18test_parse_with_tzs_7case_26
FN:466,_RNvNtNtNtNtCs6u9oDspvYRg_7qchrono9timepoint8datetime5tests18test_parse_with_tzs_7case_27
FN:466,_RNvNtNtNtNtCs6u9oDspvYRg_7qchrono9timepoint8datetime5tests18test_parse_with_tzs_7case_28
FN:557,_RNvNtNtNtCs6u9oDspvYRg_7qchrono9timepoint8datetime5tests14test_parse_err
FN:586,_RNvNtNtNtCs6u9oDspvYRg_7qchrono9timepoint8datetime5tests14test_to_string
FN:452,_RNvNtNtNtNtCs6u9oDspvYRg_7qchrono9timepoint8datetime5tests23test_parse_fixed_offsets_6case_1
FN:452,_RNvNtNtNtNtCs6u9oDspvYRg_7qchrono9timepoint8datetime5tests23test_parse_fixed_offsets_6case_2
FN:452,_RNvNtNtNtNtCs6u9oDspvYRg_7qchrono9timepoint8datetime5tests23test_parse_fixed_offsets_6case_3
FN:452,_RNvNtNtNtNtCs6u9oDspvYRg_7qchrono9timepoint8datetime5tests23test_parse_fixed_offsets_6case_4
FN:452,_RNvNtNtNtNtCs6u9oDspvYRg_7qchrono9timepoint8datetime5tests23test_parse_fixed_offsets_6case_5
FN:452,_RNvNtNtNtNtCs6u9oDspvYRg_7qchrono9timepoint8datetime5tests23test_parse_fixed_offsets_6case_6
FN:438,_RNvNtNtNtNtCs6u9oDspvYRg_7qchrono9timepoint8datetime5tests14test_parse_utcs_6case_1
FN:438,_RNvNtNtNtNtCs6u9oDspvYRg_7qchrono9timepoint8datetime5tests14test_parse_utcs_6case_2
FN:438,_RNvNtNtNtNtCs6u9oDspvYRg_7qchrono9timepoint8datetime5tests14test_parse_utcs_6case_3
FN:557,_RNvNtNtNtNtCs6u9oDspvYRg_7qchrono9timepoint8datetime5tests14test_parse_errs_13case_01_no_tz
FN:557,_RNvNtNtNtNtCs6u9oDspvYRg_7qchrono9timepoint8datetime5tests14test_parse_errs_13case_02_no_tz
FN:557,_RNvNtNtNtNtCs6u9oDspvYRg_7qchrono9timepoint8datetime5tests14test_parse_errs_18case_03_invalid_tp
FN:557,_RNvNtNtNtNtCs6u9oDspvYRg_7qchrono9timepoint8datetime5tests14test_parse_errs_18case_04_invalid_tp
FN:557,_RNvNtNtNtNtCs6u9oDspvYRg_7qchrono9timepoint8datetime5tests14test_parse_errs_18case_05_invalid_tp
FN:557,_RNvNtNtNtNtCs6u9oDspvYRg_7qchrono9timepoint8datetime5tests14test_parse_errs_18case_06_invalid_tp
FN:557,_RNvNtNtNtNtCs6u9oDspvYRg_7qchrono9timepoint8datetime5tests14test_parse_errs_18case_07_invalid_tp
FN:557,_RNvNtNtNtNtCs6u9oDspvYRg_7qchrono9timepoint8datetime5tests14test_parse_errs_18case_08_invalid_tp
FN:557,_RNvNtNtNtNtCs6u9oDspvYRg_7qchrono9timepoint8datetime5tests14test_parse_errs_18case_09_invalid_tp
FN:557,_RNvNtNtNtNtCs6u9oDspvYRg_7qchrono9timepoint8datetime5tests14test_parse_errs_18case_10_invalid_tp
FN:557,_RNvNtNtNtNtCs6u9oDspvYRg_7qchrono9timepoint8datetime5tests14test_parse_errs_18case_11_invalid_tp
FN:557,_RNvNtNtNtNtCs6u9oDspvYRg_7qchrono9timepoint8datetime5tests14test_parse_errs_18case_12_invalid_tp
FN:557,_RNvNtNtNtNtCs6u9oDspvYRg_7qchrono9timepoint8datetime5tests14test_parse_errs_18case_13_invalid_tp
FN:557,_RNvNtNtNtNtCs6u9oDspvYRg_7qchrono9timepoint8datetime5tests14test_parse_errs_18case_14_invalid_tz
FN:557,_RNvNtNtNtNtCs6u9oDspvYRg_7qchrono9timepoint8datetime5tests14test_parse_errs_18case_15_invalid_tz
FN:557,_RNvNtNtNtNtCs6u9oDspvYRg_7qchrono9timepoint8datetime5tests14test_parse_errs_18case_16_invalid_tz
FN:557,_RNvNtNtNtNtCs6u9oDspvYRg_7qchrono9timepoint8datetime5tests14test_parse_errs_18case_17_invalid_tz
FN:557,_RNvNtNtNtNtCs6u9oDspvYRg_7qchrono9timepoint8datetime5tests14test_parse_errs_18case_18_invalid_tz
FN:557,_RNvNtNtNtNtCs6u9oDspvYRg_7qchrono9timepoint8datetime5tests14test_parse_errs_18case_19_invalid_tz
FN:557,_RNvNtNtNtNtCs6u9oDspvYRg_7qchrono9timepoint8datetime5tests14test_parse_errs_19case_20_non_trimmed
FN:557,_RNvNtNtNtNtCs6u9oDspvYRg_7qchrono9timepoint8datetime5tests14test_parse_errs_19case_21_non_trimmed
FN:557,_RNvNtNtNtNtCs6u9oDspvYRg_7qchrono9timepoint8datetime5tests14test_parse_errs_19case_22_non_trimmed
FN:32,_RNvXNtNtCs6u9oDspvYRg_7qchrono9timepoint8datetimeNtB2_8DateTimeNtNtCs2fyPGiZs4Bj_4core3cmp9PartialEq2eqB6_
FN:68,_RNvXs4_NtNtCs6u9oDspvYRg_7qchrono9timepoint8datetimeNtB5_8DateTimeINtNtCs2fyPGiZs4Bj_4core7convert4FromINtNtCs9T1gxOhu6ob_6chrono8datetime8DateTimeNtNtB7_8timezone2TzEE4fromB9_
FN:87,_RNvXs6_NtNtCs6u9oDspvYRg_7qchrono9timepoint8datetimeNtB5_8DateTimeINtNtCs2fyPGiZs4Bj_4core7convert4FromINtNtCs9T1gxOhu6ob_6chrono8datetime8DateTimeNtNtNtB1I_6offset5fixed11FixedOffsetEE4fromB9_
FN:104,_RNvXs8_NtNtCs6u9oDspvYRg_7qchrono9timepoint8datetimeNtB5_8DateTimeNtNtCs2fyPGiZs4Bj_4core3fmt7Display3fmt
FN:124,_RNvXs9_NtNtCs6u9oDspvYRg_7qchrono9timepoint8datetimeNtB5_8DateTimeNtNtNtCs2fyPGiZs4Bj_4core3str6traits7FromStr8from_str
FN:126,_RNCNvXs9_NtNtCs6u9oDspvYRg_7qchrono9timepoint8datetimeNtB7_8DateTimeNtNtNtCs2fyPGiZs4Bj_4core3str6traits7FromStr8from_str0Bb_
FN:135,_RNCNvXs9_NtNtCs6u9oDspvYRg_7qchrono9timepoint8datetimeNtB7_8DateTimeNtNtNtCs2fyPGiZs4Bj_4core3str6traits7FromStr8from_strs_0Bb_
FN:139,_RNCNvXs9_NtNtCs6u9oDspvYRg_7qchrono9timepoint8datetimeNtB7_8DateTimeNtNtNtCs2fyPGiZs4Bj_4core3str6traits7FromStr8from_strs0_0Bb_
FN:154,_RNCNvXs9_NtNtCs6u9oDspvYRg_7qchrono9timepoint8datetimeNtB7_8DateTimeNtNtNtCs2fyPGiZs4Bj_4core3str6traits7FromStr8from_strs1_0Bb_
FN:17,_RNvXsl_NtNtCs6u9oDspvYRg_7qchrono9timepoint8datetimeNtB5_8DateTimeNtNtCs2fyPGiZs4Bj_4core3fmt5Debug3fmt
FN:586,_RNvNtNtNtNtCs6u9oDspvYRg_7qchrono9timepoint8datetime5tests14test_to_strings_7case_01
FN:586,_RNvNtNtNtNtCs6u9oDspvYRg_7qchrono9timepoint8datetime5tests14test_to_strings_7case_02
FN:586,_RNvNtNtNtNtCs6u9oDspvYRg_7qchrono9timepoint8datetime5tests14test_to_strings_7case_03
FN:586,_RNvNtNtNtNtCs6u9oDspvYRg_7qchrono9timepoint8datetime5tests14test_to_strings_7case_04
FN:586,_RNvNtNtNtNtCs6u9oDspvYRg_7qchrono9timepoint8datetime5tests14test_to_strings_7case_05
FN:586,_RNvNtNtNtNtCs6u9oDspvYRg_7qchrono9timepoint8datetime5tests14test_to_strings_7case_06
FN:586,_RNvNtNtNtNtCs6u9oDspvYRg_7qchrono9timepoint8datetime5tests14test_to_strings_7case_07
FN:586,_RNvNtNtNtNtCs6u9oDspvYRg_7qchrono9timepoint8datetime5tests14test_to_strings_7case_08
FN:586,_RNvNtNtNtNtCs6u9oDspvYRg_7qchrono9timepoint8datetime5tests14test_to_strings_7case_09
FN:586,_RNvNtNtNtNtCs6u9oDspvYRg_7qchrono9timepoint8datetime5tests14test_to_strings_7case_10
FN:586,_RNvNtNtNtNtCs6u9oDspvYRg_7qchrono9timepoint8datetime5tests14test_to_strings_7case_11
FN:586,_RNvNtNtNtNtCs6u9oDspvYRg_7qchrono9timepoint8datetime5tests14test_to_strings_7case_12
FN:40,_RNvXs0_NtNtCs6u9oDspvYRg_7qchrono9timepoint8datetimeNtB5_8DateTimeNtNtCs2fyPGiZs4Bj_4core3cmp10PartialOrd11partial_cmpB9_
FN:46,_RNvXs1_NtNtCs6u9oDspvYRg_7qchrono9timepoint8datetimeNtB5_8DateTimeNtNtCs2fyPGiZs4Bj_4core3cmp3Ord3cmpB9_
FN:52,_RINvXs2_NtNtCs6u9oDspvYRg_7qchrono9timepoint8datetimeNtB6_8DateTimeNtNtCs2fyPGiZs4Bj_4core4hash4Hash4hashpEBa_
FN:62,_RNvXs3_NtNtCs6u9oDspvYRg_7qchrono9timepoint8datetimeINtNtCs9T1gxOhu6ob_6chrono8datetime8DateTimeNtNtB7_8timezone2TzEINtNtCs2fyPGiZs4Bj_4core7convert4FromNtB5_8DateTimeE4fromB9_
FN:81,_RNvXs5_NtNtCs6u9oDspvYRg_7qchrono9timepoint8datetimeNtB5_8DateTimeINtNtCs2fyPGiZs4Bj_4core7convert4FromINtNtCs9T1gxOhu6ob_6chrono8datetime8DateTimeNtNtNtB1I_6offset3utc3UtcEE4fromB9_
FN:95,_RNvXs7_NtNtCs6u9oDspvYRg_7qchrono9timepoint8datetimeNtB5_8DateTimeINtNtCs2fyPGiZs4Bj_4core7convert4FromINtNtCs9T1gxOhu6ob_6chrono8datetime8DateTimeNtNtCs2y6e2uO2zGp_9chrono_tz9timezones2TzEE4fromB9_
FN:164,_RINvXsa_NtNtCs6u9oDspvYRg_7qchrono9timepoint8datetimeNtB6_8DateTimeNtNtCshDylzWGrM8d_5serde3ser9Serialize9serializepEBa_
FN:174,_RINvXsb_NtNtCs6u9oDspvYRg_7qchrono9timepoint8datetimeNtB6_8DateTimeNtNtCshDylzWGrM8d_5serde2de11Deserialize11deserializepEBa_
FN:184,_RNvXsc_NtNtCs6u9oDspvYRg_7qchrono9timepoint8datetimeNtB5_8DateTimeNtCsfZgeB9GPpUp_8schemars10JsonSchema11schema_name
FN:187,_RNvXsc_NtNtCs6u9oDspvYRg_7qchrono9timepoint8datetimeNtB5_8DateTimeNtCsfZgeB9GPpUp_8schemars10JsonSchema9schema_id
FN:191,_RNvXsc_NtNtCs6u9oDspvYRg_7qchrono9timepoint8datetimeNtB5_8DateTimeNtCsfZgeB9GPpUp_8schemars10JsonSchema11json_schema
FN:213,_RNvXsd_NtNtCs6u9oDspvYRg_7qchrono9timepoint8datetimeNtB5_8DateTimeNtNtCs9T1gxOhu6ob_6chrono6traits8Datelike4yearB9_
FN:218,_RNvXsd_NtNtCs6u9oDspvYRg_7qchrono9timepoint8datetimeNtB5_8DateTimeNtNtCs9T1gxOhu6ob_6chrono6traits8Datelike5monthB9_
FN:223,_RNvXsd_NtNtCs6u9oDspvYRg_7qchrono9timepoint8datetimeNtB5_8DateTimeNtNtCs9T1gxOhu6ob_6chrono6traits8Datelike6month0B9_
FN:228,_RNvXsd_NtNtCs6u9oDspvYRg_7qchrono9timepoint8datetimeNtB5_8DateTimeNtNtCs9T1gxOhu6ob_6chrono6traits8Datelike3dayB9_
FN:233,_RNvXsd_NtNtCs6u9oDspvYRg_7qchrono9timepoint8datetimeNtB5_8DateTimeNtNtCs9T1gxOhu6ob_6chrono6traits8Datelike7ordinalB9_
FN:238,_RNvXsd_NtNtCs6u9oDspvYRg_7qchrono9timepoint8datetimeNtB5_8DateTimeNtNtCs9T1gxOhu6ob_6chrono6traits8Datelike7weekdayB9_
FN:243,_RNvXsd_NtNtCs6u9oDspvYRg_7qchrono9timepoint8datetimeNtB5_8DateTimeNtNtCs9T1gxOhu6ob_6chrono6traits8Datelike8iso_weekB9_
FN:248,_RNvXsd_NtNtCs6u9oDspvYRg_7qchrono9timepoint8datetimeNtB5_8DateTimeNtNtCs9T1gxOhu6ob_6chrono6traits8Datelike8with_dayB9_
FN:249,_RNCNvXsd_NtNtCs6u9oDspvYRg_7qchrono9timepoint8datetimeNtB7_8DateTimeNtNtCs9T1gxOhu6ob_6chrono6traits8Datelike8with_day0Bb_
FN:253,_RNvXsd_NtNtCs6u9oDspvYRg_7qchrono9timepoint8datetimeNtB5_8DateTimeNtNtCs9T1gxOhu6ob_6chrono6traits8Datelike4day0B9_
FN:258,_RNvXsd_NtNtCs6u9oDspvYRg_7qchrono9timepoint8datetimeNtB5_8DateTimeNtNtCs9T1gxOhu6ob_6chrono6traits8Datelike16num_days_from_ceB9_
FN:263,_RNvXsd_NtNtCs6u9oDspvYRg_7qchrono9timepoint8datetimeNtB5_8DateTimeNtNtCs9T1gxOhu6ob_6chrono6traits8Datelike8ordinal0B9_
FN:268,_RNvXsd_NtNtCs6u9oDspvYRg_7qchrono9timepoint8datetimeNtB5_8DateTimeNtNtCs9T1gxOhu6ob_6chrono6traits8Datelike9with_day0B9_
FN:269,_RNCNvXsd_NtNtCs6u9oDspvYRg_7qchrono9timepoint8datetimeNtB7_8DateTimeNtNtCs9T1gxOhu6ob_6chrono6traits8Datelike9with_day00Bb_
FN:273,_RNvXsd_NtNtCs6u9oDspvYRg_7qchrono9timepoint8datetimeNtB5_8DateTimeNtNtCs9T1gxOhu6ob_6chrono6traits8Datelike10with_monthB9_
FN:274,_RNCNvXsd_NtNtCs6u9oDspvYRg_7qchrono9timepoint8datetimeNtB7_8DateTimeNtNtCs9T1gxOhu6ob_6chrono6traits8Datelike10with_month0Bb_
FN:278,_RNvXsd_NtNtCs6u9oDspvYRg_7qchrono9timepoint8datetimeNtB5_8DateTimeNtNtCs9T1gxOhu6ob_6chrono6traits8Datelike11with_month0B9_
FN:279,_RNCNvXsd_NtNtCs6u9oDspvYRg_7qchrono9timepoint8datetimeNtB7_8DateTimeNtNtCs9T1gxOhu6ob_6chrono6traits8Datelike11with_month00Bb_
FN:283,_RNvXsd_NtNtCs6u9oDspvYRg_7qchrono9timepoint8datetimeNtB5_8DateTimeNtNtCs9T1gxOhu6ob_6chrono6traits8Datelike9with_yearB9_
FN:284,_RNCNvXsd_NtNtCs6u9oDspvYRg_7qchrono9timepoint8datetimeNtB7_8DateTimeNtNtCs9T1gxOhu6ob_6chrono6traits8Datelike9with_year0Bb_
FN:288,_RNvXsd_NtNtCs6u9oDspvYRg_7qchrono9timepoint8datetimeNtB5_8DateTimeNtNtCs9T1gxOhu6ob_6chrono6traits8Datelike12with_ordinalB9_
FN:289,_RNCNvXsd_NtNtCs6u9oDspvYRg_7qchrono9timepoint8datetimeNtB7_8DateTimeNtNtCs9T1gxOhu6ob_6chrono6traits8Datelike12with_ordinal0Bb_
FN:293,_RNvXsd_NtNtCs6u9oDspvYRg_7qchrono9timepoint8datetimeNtB5_8DateTimeNtNtCs9T1gxOhu6ob_6chrono6traits8Datelike13with_ordinal0B9_
FN:294,_RNCNvXsd_NtNtCs6u9oDspvYRg_7qchrono9timepoint8datetimeNtB7_8DateTimeNtNtCs9T1gxOhu6ob_6chrono6traits8Datelike13with_ordinal00Bb_
FN:298,_RNvXsd_NtNtCs6u9oDspvYRg_7qchrono9timepoint8datetimeNtB5_8DateTimeNtNtCs9T1gxOhu6ob_6chrono6traits8Datelike7year_ceB9_
FN:305,_RNvXse_NtNtCs6u9oDspvYRg_7qchrono9timepoint8datetimeNtB5_8DateTimeNtNtCs9T1gxOhu6ob_6chrono6traits8Timelike4hourB9_
FN:310,_RNvXse_NtNtCs6u9oDspvYRg_7qchrono9timepoint8datetimeNtB5_8DateTimeNtNtCs9T1gxOhu6ob_6chrono6traits8Timelike6minuteB9_
FN:315,_RNvXse_NtNtCs6u9oDspvYRg_7qchrono9timepoint8datetimeNtB5_8DateTimeNtNtCs9T1gxOhu6ob_6chrono6traits8Timelike6secondB9_
FN:320,_RNvXse_NtNtCs6u9oDspvYRg_7qchrono9timepoint8datetimeNtB5_8DateTimeNtNtCs9T1gxOhu6ob_6chrono6traits8Timelike6hour12B9_
FN:325,_RNvXse_NtNtCs6u9oDspvYRg_7qchrono9timepoint8datetimeNtB5_8DateTimeNtNtCs9T1gxOhu6ob_6chrono6traits8Timelike10nanosecondB9_
FN:330,_RNvXse_NtNtCs6u9oDspvYRg_7qchrono9timepoint8datetimeNtB5_8DateTimeNtNtCs9T1gxOhu6ob_6chrono6traits8Timelike25num_seconds_from_midnightB9_
FN:335,_RNvXse_NtNtCs6u9oDspvYRg_7qchrono9timepoint8datetimeNtB5_8DateTimeNtNtCs9T1gxOhu6ob_6chrono6traits8Timelike9with_hourB9_
FN:336,_RNCNvXse_NtNtCs6u9oDspvYRg_7qchrono9timepoint8datetimeNtB7_8DateTimeNtNtCs9T1gxOhu6ob_6chrono6traits8Timelike9with_hour0Bb_
FN:340,_RNvXse_NtNtCs6u9oDspvYRg_7qchrono9timepoint8datetimeNtB5_8DateTimeNtNtCs9T1gxOhu6ob_6chrono6traits8Timelike11with_minuteB9_
FN:341,_RNCNvXse_NtNtCs6u9oDspvYRg_7qchrono9timepoint8datetimeNtB7_8DateTimeNtNtCs9T1gxOhu6ob_6chrono6traits8Timelike11with_minute0Bb_
FN:345,_RNvXse_NtNtCs6u9oDspvYRg_7qchrono9timepoint8datetimeNtB5_8DateTimeNtNtCs9T1gxOhu6ob_6chrono6traits8Timelike15with_nanosecondB9_
FN:346,_RNCNvXse_NtNtCs6u9oDspvYRg_7qchrono9timepoint8datetimeNtB7_8DateTimeNtNtCs9T1gxOhu6ob_6chrono6traits8Timelike15with_nanosecond0Bb_
FN:350,_RNvXse_NtNtCs6u9oDspvYRg_7qchrono9timepoint8datetimeNtB5_8DateTimeNtNtCs9T1gxOhu6ob_6chrono6traits8Timelike11with_secondB9_
FN:351,_RNCNvXse_NtNtCs6u9oDspvYRg_7qchrono9timepoint8datetimeNtB7_8DateTimeNtNtCs9T1gxOhu6ob_6chrono6traits8Timelike11with_second0Bb_
FN:362,_RNvXsf_NtNtCs6u9oDspvYRg_7qchrono9timepoint8datetimeNtB5_8DateTimeNtNtNtCs2fyPGiZs4Bj_4core3ops5arith3Sub3subB9_
FN:371,_RNvXsg_NtNtCs6u9oDspvYRg_7qchrono9timepoint8datetimeRNtB5_8DateTimeNtNtNtCs2fyPGiZs4Bj_4core3ops5arith3Sub3subB9_
FN:380,_RNvXsh_NtNtCs6u9oDspvYRg_7qchrono9timepoint8datetimeNtB5_8DateTimeINtNtNtCs2fyPGiZs4Bj_4core3ops5arith3SubRBO_E3subB9_
FN:389,_RNvXsi_NtNtCs6u9oDspvYRg_7qchrono9timepoint8datetimeNtB5_8DateTimeINtNtNtCs2fyPGiZs4Bj_4core3ops5arith3AddNtNtNtB9_8duration13duration_impl8DurationE3addB9_
FN:398,_RNvXsj_NtNtCs6u9oDspvYRg_7qchrono9timepoint8datetimeNtB5_8DateTimeINtNtNtCs2fyPGiZs4Bj_4core3ops5arith3SubNtNtNtB9_8duration13duration_impl8DurationE3subB9_
FN:408,_RNvMsk_NtNtCs6u9oDspvYRg_7qchrono9timepoint8datetimeNtB5_8DateTime4dateB9_
FN:412,_RNvMsk_NtNtCs6u9oDspvYRg_7qchrono9timepoint8datetimeNtB5_8DateTime4timeB9_
FN:417,_RNvMsk_NtNtCs6u9oDspvYRg_7qchrono9timepoint8datetimeNtB5_8DateTime9add_tenorB9_
FN:427,_RNvMsk_NtNtCs6u9oDspvYRg_7qchrono9timepoint8datetimeNtB5_8DateTime8timezoneB9_
FN:362,_RNvXsf_NtNtCs2bSmrEEol5z_7qchrono9timepoint8datetimeNtB5_8DateTimeNtNtNtCs2fyPGiZs4Bj_4core3ops5arith3Sub3subCslNfvs0bCstK_8qfincore
FN:371,_RNvXsg_NtNtCs2bSmrEEol5z_7qchrono9timepoint8datetimeRNtB5_8DateTimeNtNtNtCs2fyPGiZs4Bj_4core3ops5arith3Sub3subCslNfvs0bCstK_8qfincore
FN:68,_RNvXs4_NtNtCs2bSmrEEol5z_7qchrono9timepoint8datetimeNtB5_8DateTimeINtNtCs2fyPGiZs4Bj_4core7convert4FromINtNtCs9T1gxOhu6ob_6chrono8datetime8DateTimeNtNtB7_8timezone2TzEE4fromB9_
FN:87,_RNvXs6_NtNtCs2bSmrEEol5z_7qchrono9timepoint8datetimeNtB5_8DateTimeINtNtCs2fyPGiZs4Bj_4core7convert4FromINtNtCs9T1gxOhu6ob_6chrono8datetime8DateTimeNtNtNtB1I_6offset5fixed11FixedOffsetEE4fromB9_
FN:104,_RNvXs8_NtNtCs2bSmrEEol5z_7qchrono9timepoint8datetimeNtB5_8DateTimeNtNtCs2fyPGiZs4Bj_4core3fmt7Display3fmt
FN:124,_RNvXs9_NtNtCs2bSmrEEol5z_7qchrono9timepoint8datetimeNtB5_8DateTimeNtNtNtCs2fyPGiZs4Bj_4core3str6traits7FromStr8from_str
FN:126,_RNCNvXs9_NtNtCs2bSmrEEol5z_7qchrono9timepoint8datetimeNtB7_8DateTimeNtNtNtCs2fyPGiZs4Bj_4core3str6traits7FromStr8from_str0Bb_
FN:135,_RNCNvXs9_NtNtCs2bSmrEEol5z_7qchrono9timepoint8datetimeNtB7_8DateTimeNtNtNtCs2fyPGiZs4Bj_4core3str6traits7FromStr8from_strs_0Bb_
FN:139,_RNCNvXs9_NtNtCs2bSmrEEol5z_7qchrono9timepoint8datetimeNtB7_8DateTimeNtNtNtCs2fyPGiZs4Bj_4core3str6traits7FromStr8from_strs0_0Bb_
FN:154,_RNCNvXs9_NtNtCs2bSmrEEol5z_7qchrono9timepoint8datetimeNtB7_8DateTimeNtNtNtCs2fyPGiZs4Bj_4core3str6traits7FromStr8from_strs1_0Bb_
FN:184,_RNvXsc_NtNtCs2bSmrEEol5z_7qchrono9timepoint8datetimeNtB5_8DateTimeNtCsfZgeB9GPpUp_8schemars10JsonSchema11schema_name
FN:187,_RNvXsc_NtNtCs2bSmrEEol5z_7qchrono9timepoint8datetimeNtB5_8DateTimeNtCsfZgeB9GPpUp_8schemars10JsonSchema9schema_id
FN:191,_RNvXsc_NtNtCs2bSmrEEol5z_7qchrono9timepoint8datetimeNtB5_8DateTimeNtCsfZgeB9GPpUp_8schemars10JsonSchema11json_schema
FN:17,_RNvXsl_NtNtCs2bSmrEEol5z_7qchrono9timepoint8datetimeNtB5_8DateTimeNtNtCs2fyPGiZs4Bj_4core3fmt5Debug3fmt
FN:32,_RNvXNtNtCs2bSmrEEol5z_7qchrono9timepoint8datetimeNtB2_8DateTimeNtNtCs2fyPGiZs4Bj_4core3cmp9PartialEq2eqB6_
FN:40,_RNvXs0_NtNtCs2bSmrEEol5z_7qchrono9timepoint8datetimeNtB5_8DateTimeNtNtCs2fyPGiZs4Bj_4core3cmp10PartialOrd11partial_cmpB9_
FN:46,_RNvXs1_NtNtCs2bSmrEEol5z_7qchrono9timepoint8datetimeNtB5_8DateTimeNtNtCs2fyPGiZs4Bj_4core3cmp3Ord3cmpB9_
FN:52,_RINvXs2_NtNtCs2bSmrEEol5z_7qchrono9timepoint8datetimeNtB6_8DateTimeNtNtCs2fyPGiZs4Bj_4core4hash4Hash4hashpEBa_
FN:62,_RNvXs3_NtNtCs2bSmrEEol5z_7qchrono9timepoint8datetimeINtNtCs9T1gxOhu6ob_6chrono8datetime8DateTimeNtNtB7_8timezone2TzEINtNtCs2fyPGiZs4Bj_4core7convert4FromNtB5_8DateTimeE4fromB9_
FN:81,_RNvXs5_NtNtCs2bSmrEEol5z_7qchrono9timepoint8datetimeNtB5_8DateTimeINtNtCs2fyPGiZs4Bj_4core7convert4FromINtNtCs9T1gxOhu6ob_6chrono8datetime8DateTimeNtNtNtB1I_6offset3utc3UtcEE4fromB9_
FN:95,_RNvXs7_NtNtCs2bSmrEEol5z_7qchrono9timepoint8datetimeNtB5_8DateTimeINtNtCs2fyPGiZs4Bj_4core7convert4FromINtNtCs9T1gxOhu6ob_6chrono8datetime8DateTimeNtNtCs2y6e2uO2zGp_9chrono_tz9timezones2TzEE4fromB9_
FN:164,_RINvXsa_NtNtCs2bSmrEEol5z_7qchrono9timepoint8datetimeNtB6_8DateTimeNtNtCshDylzWGrM8d_5serde3ser9Serialize9serializepEBa_
FN:174,_RINvXsb_NtNtCs2bSmrEEol5z_7qchrono9timepoint8datetimeNtB6_8DateTimeNtNtCshDylzWGrM8d_5serde2de11Deserialize11deserializepEBa_
FN:213,_RNvXsd_NtNtCs2bSmrEEol5z_7qchrono9timepoint8datetimeNtB5_8DateTimeNtNtCs9T1gxOhu6ob_6chrono6traits8Datelike4yearB9_
FN:218,_RNvXsd_NtNtCs2bSmrEEol5z_7qchrono9timepoint8datetimeNtB5_8DateTimeNtNtCs9T1gxOhu6ob_6chrono6traits8Datelike5monthB9_
FN:223,_RNvXsd_NtNtCs2bSmrEEol5z_7qchrono9timepoint8datetimeNtB5_8DateTimeNtNtCs9T1gxOhu6ob_6chrono6traits8Datelike6month0B9_
FN:228,_RNvXsd_NtNtCs2bSmrEEol5z_7qchrono9timepoint8datetimeNtB5_8DateTimeNtNtCs9T1gxOhu6ob_6chrono6traits8Datelike3dayB9_
FN:233,_RNvXsd_NtNtCs2bSmrEEol5z_7qchrono9timepoint8datetimeNtB5_8DateTimeNtNtCs9T1gxOhu6ob_6chrono6traits8Datelike7ordinalB9_
FN:238,_RNvXsd_NtNtCs2bSmrEEol5z_7qchrono9timepoint8datetimeNtB5_8DateTimeNtNtCs9T1gxOhu6ob_6chrono6traits8Datelike7weekdayB9_
FN:243,_RNvXsd_NtNtCs2bSmrEEol5z_7qchrono9timepoint8datetimeNtB5_8DateTimeNtNtCs9T1gxOhu6ob_6chrono6traits8Datelike8iso_weekB9_
FN:248,_RNvXsd_NtNtCs2bSmrEEol5z_7qchrono9timepoint8datetimeNtB5_8DateTimeNtNtCs9T1gxOhu6ob_6chrono6traits8Datelike8with_dayB9_
FN:249,_RNCNvXsd_NtNtCs2bSmrEEol5z_7qchrono9timepoint8datetimeNtB7_8DateTimeNtNtCs9T1gxOhu6ob_6chrono6traits8Datelike8with_day0Bb_
FN:253,_RNvXsd_NtNtCs2bSmrEEol5z_7qchrono9timepoint8datetimeNtB5_8DateTimeNtNtCs9T1gxOhu6ob_6chrono6traits8Datelike4day0B9_
FN:258,_RNvXsd_NtNtCs2bSmrEEol5z_7qchrono9timepoint8datetimeNtB5_8DateTimeNtNtCs9T1gxOhu6ob_6chrono6traits8Datelike16num_days_from_ceB9_
FN:263,_RNvXsd_NtNtCs2bSmrEEol5z_7qchrono9timepoint8datetimeNtB5_8DateTimeNtNtCs9T1gxOhu6ob_6chrono6traits8Datelike8ordinal0B9_
FN:268,_RNvXsd_NtNtCs2bSmrEEol5z_7qchrono9timepoint8datetimeNtB5_8DateTimeNtNtCs9T1gxOhu6ob_6chrono6traits8Datelike9with_day0B9_
FN:269,_RNCNvXsd_NtNtCs2bSmrEEol5z_7qchrono9timepoint8datetimeNtB7_8DateTimeNtNtCs9T1gxOhu6ob_6chrono6traits8Datelike9with_day00Bb_
FN:273,_RNvXsd_NtNtCs2bSmrEEol5z_7qchrono9timepoint8datetimeNtB5_8DateTimeNtNtCs9T1gxOhu6ob_6chrono6traits8Datelike10with_monthB9_
FN:274,_RNCNvXsd_NtNtCs2bSmrEEol5z_7qchrono9timepoint8datetimeNtB7_8DateTimeNtNtCs9T1gxOhu6ob_6chrono6traits8Datelike10with_month0Bb_
FN:278,_RNvXsd_NtNtCs2bSmrEEol5z_7qchrono9timepoint8datetimeNtB5_8DateTimeNtNtCs9T1gxOhu6ob_6chrono6traits8Datelike11with_month0B9_
FN:279,_RNCNvXsd_NtNtCs2bSmrEEol5z_7qchrono9timepoint8datetimeNtB7_8DateTimeNtNtCs9T1gxOhu6ob_6chrono6traits8Datelike11with_month00Bb_
FN:283,_RNvXsd_NtNtCs2bSmrEEol5z_7qchrono9timepoint8datetimeNtB5_8DateTimeNtNtCs9T1gxOhu6ob_6chrono6traits8Datelike9with_yearB9_
FN:284,_RNCNvXsd_NtNtCs2bSmrEEol5z_7qchrono9timepoint8datetimeNtB7_8DateTimeNtNtCs9T1gxOhu6ob_6chrono6traits8Datelike9with_year0Bb_
FN:288,_RNvXsd_NtNtCs2bSmrEEol5z_7qchrono9timepoint8datetimeNtB5_8DateTimeNtNtCs9T1gxOhu6ob_6chrono6traits8Datelike12with_ordinalB9_
FN:289,_RNCNvXsd_NtNtCs2bSmrEEol5z_7qchrono9timepoint8datetimeNtB7_8DateTimeNtNtCs9T1gxOhu6ob_6chrono6traits8Datelike12with_ordinal0Bb_
FN:293,_RNvXsd_NtNtCs2bSmrEEol5z_7qchrono9timepoint8datetimeNtB5_8DateTimeNtNtCs9T1gxOhu6ob_6chrono6traits8Datelike13with_ordinal0B9_
FN:294,_RNCNvXsd_NtNtCs2bSmrEEol5z_7qchrono9timepoint8datetimeNtB7_8DateTimeNtNtCs9T1gxOhu6ob_6chrono6traits8Datelike13with_ordinal00Bb_
FN:298,_RNvXsd_NtNtCs2bSmrEEol5z_7qchrono9timepoint8datetimeNtB5_8DateTimeNtNtCs9T1gxOhu6ob_6chrono6traits8Datelike7year_ceB9_
FN:305,_RNvXse_NtNtCs2bSmrEEol5z_7qchrono9timepoint8datetimeNtB5_8DateTimeNtNtCs9T1gxOhu6ob_6chrono6traits8Timelike4hourB9_
FN:310,_RNvXse_NtNtCs2bSmrEEol5z_7qchrono9timepoint8datetimeNtB5_8DateTimeNtNtCs9T1gxOhu6ob_6chrono6traits8Timelike6minuteB9_
FN:315,_RNvXse_NtNtCs2bSmrEEol5z_7qchrono9timepoint8datetimeNtB5_8DateTimeNtNtCs9T1gxOhu6ob_6chrono6traits8Timelike6secondB9_
FN:320,_RNvXse_NtNtCs2bSmrEEol5z_7qchrono9timepoint8datetimeNtB5_8DateTimeNtNtCs9T1gxOhu6ob_6chrono6traits8Timelike6hour12B9_
FN:325,_RNvXse_NtNtCs2bSmrEEol5z_7qchrono9timepoint8datetimeNtB5_8DateTimeNtNtCs9T1gxOhu6ob_6chrono6traits8Timelike10nanosecondB9_
FN:330,_RNvXse_NtNtCs2bSmrEEol5z_7qchrono9timepoint8datetimeNtB5_8DateTimeNtNtCs9T1gxOhu6ob_6chrono6traits8Timelike25num_seconds_from_midnightB9_
FN:335,_RNvXse_NtNtCs2bSmrEEol5z_7qchrono9timepoint8datetimeNtB5_8DateTimeNtNtCs9T1gxOhu6ob_6chrono6traits8Timelike9with_hourB9_
FN:336,_RNCNvXse_NtNtCs2bSmrEEol5z_7qchrono9timepoint8datetimeNtB7_8DateTimeNtNtCs9T1gxOhu6ob_6chrono6traits8Timelike9with_hour0Bb_
FN:340,_RNvXse_NtNtCs2bSmrEEol5z_7qchrono9timepoint8datetimeNtB5_8DateTimeNtNtCs9T1gxOhu6ob_6chrono6traits8Timelike11with_minuteB9_
FN:341,_RNCNvXse_NtNtCs2bSmrEEol5z_7qchrono9timepoint8datetimeNtB7_8DateTimeNtNtCs9T1gxOhu6ob_6chrono6traits8Timelike11with_minute0Bb_
FN:345,_RNvXse_NtNtCs2bSmrEEol5z_7qchrono9timepoint8datetimeNtB5_8DateTimeNtNtCs9T1gxOhu6ob_6chrono6traits8Timelike15with_nanosecondB9_
FN:346,_RNCNvXse_NtNtCs2bSmrEEol5z_7qchrono9timepoint8datetimeNtB7_8DateTimeNtNtCs9T1gxOhu6ob_6chrono6traits8Timelike15with_nanosecond0Bb_
FN:350,_RNvXse_NtNtCs2bSmrEEol5z_7qchrono9timepoint8datetimeNtB5_8DateTimeNtNtCs9T1gxOhu6ob_6chrono6traits8Timelike11with_secondB9_
FN:351,_RNCNvXse_NtNtCs2bSmrEEol5z_7qchrono9timepoint8datetimeNtB7_8DateTimeNtNtCs9T1gxOhu6ob_6chrono6traits8Timelike11with_second0Bb_
FN:362,_RNvXsf_NtNtCs2bSmrEEol5z_7qchrono9timepoint8datetimeNtB5_8DateTimeNtNtNtCs2fyPGiZs4Bj_4core3ops5arith3Sub3subB9_
FN:371,_RNvXsg_NtNtCs2bSmrEEol5z_7qchrono9timepoint8datetimeRNtB5_8DateTimeNtNtNtCs2fyPGiZs4Bj_4core3ops5arith3Sub3subB9_
FN:380,_RNvXsh_NtNtCs2bSmrEEol5z_7qchrono9timepoint8datetimeNtB5_8DateTimeINtNtNtCs2fyPGiZs4Bj_4core3ops5arith3SubRBO_E3subB9_
FN:389,_RNvXsi_NtNtCs2bSmrEEol5z_7qchrono9timepoint8datetimeNtB5_8DateTimeINtNtNtCs2fyPGiZs4Bj_4core3ops5arith3AddNtNtNtB9_8duration13duration_impl8DurationE3addB9_
FN:398,_RNvXsj_NtNtCs2bSmrEEol5z_7qchrono9timepoint8datetimeNtB5_8DateTimeINtNtNtCs2fyPGiZs4Bj_4core3ops5arith3SubNtNtNtB9_8duration13duration_impl8DurationE3subB9_
FN:408,_RNvMsk_NtNtCs2bSmrEEol5z_7qchrono9timepoint8datetimeNtB5_8DateTime4dateB9_
FN:412,_RNvMsk_NtNtCs2bSmrEEol5z_7qchrono9timepoint8datetimeNtB5_8DateTime4timeB9_
FN:417,_RNvMsk_NtNtCs2bSmrEEol5z_7qchrono9timepoint8datetimeNtB5_8DateTime9add_tenorB9_
FN:427,_RNvMsk_NtNtCs2bSmrEEol5z_7qchrono9timepoint8datetimeNtB5_8DateTime8timezoneB9_
FN:408,_RNvMsk_NtNtCs2bSmrEEol5z_7qchrono9timepoint8datetimeNtB5_8DateTime4dateCsg8mytIw4ZXd_6qmodel
FN:412,_RNvMsk_NtNtCs2bSmrEEol5z_7qchrono9timepoint8datetimeNtB5_8DateTime4timeCsg8mytIw4ZXd_6qmodel
FN:417,_RNvMsk_NtNtCs2bSmrEEol5z_7qchrono9timepoint8datetimeNtB5_8DateTime9add_tenorCsg8mytIw4ZXd_6qmodel
FN:32,_RNvXNtNtCs2bSmrEEol5z_7qchrono9timepoint8datetimeNtB2_8DateTimeNtNtCs2fyPGiZs4Bj_4core3cmp9PartialEq2eqCsg8mytIw4ZXd_6qmodel
FN:40,_RNvXs0_NtNtCs2bSmrEEol5z_7qchrono9timepoint8datetimeNtB5_8DateTimeNtNtCs2fyPGiZs4Bj_4core3cmp10PartialOrd11partial_cmpCsg8mytIw4ZXd_6qmodel
FN:362,_RNvXsf_NtNtCs2bSmrEEol5z_7qchrono9timepoint8datetimeNtB5_8DateTimeNtNtNtCs2fyPGiZs4Bj_4core3ops5arith3Sub3subCsg8mytIw4ZXd_6qmodel
FN:371,_RNvXsg_NtNtCs2bSmrEEol5z_7qchrono9timepoint8datetimeRNtB5_8DateTimeNtNtNtCs2fyPGiZs4Bj_4core3ops5arith3Sub3subCsg8mytIw4ZXd_6qmodel
FN:408,_RNvMsk_NtNtCs2bSmrEEol5z_7qchrono9timepoint8datetimeNtB5_8DateTime4dateCs4yCwz0hjEDq_8qfincore
FN:412,_RNvMsk_NtNtCs2bSmrEEol5z_7qchrono9timepoint8datetimeNtB5_8DateTime4timeCs4yCwz0hjEDq_8qfincore
FN:427,_RNvMsk_NtNtCs2bSmrEEol5z_7qchrono9timepoint8datetimeNtB5_8DateTime8timezoneCs4yCwz0hjEDq_8qfincore
FNDA:3,_RNvNtNtNtCs6u9oDspvYRg_7qchrono9timepoint8datetime5tests14test_parse_utc
FNDA:6,_RNvNtNtNtCs6u9oDspvYRg_7qchrono9timepoint8datetime5tests23test_parse_fixed_offset
FNDA:28,_RNvNtNtNtCs6u9oDspvYRg_7qchrono9timepoint8datetime5tests18test_parse_with_tz
FNDA:1,_RNvNtNtNtNtCs6u9oDspvYRg_7qchrono9timepoint8datetime5tests18test_parse_with_tzs_7case_01
FNDA:1,_RNvNtNtNtNtCs6u9oDspvYRg_7qchrono9timepoint8datetime5tests18test_parse_with_tzs_7case_02
FNDA:1,_RNvNtNtNtNtCs6u9oDspvYRg_7qchrono9timepoint8datetime5tests18test_parse_with_tzs_7case_03
FNDA:1,_RNvNtNtNtNtCs6u9oDspvYRg_7qchrono9timepoint8datetime5tests18test_parse_with_tzs_7case_04
FNDA:1,_RNvNtNtNtNtCs6u9oDspvYRg_7qchrono9timepoint8datetime5tests18test_parse_with_tzs_7case_05
FNDA:1,_RNvNtNtNtNtCs6u9oDspvYRg_7qchrono9timepoint8datetime5tests18test_parse_with_tzs_7case_06
FNDA:1,_RNvNtNtNtNtCs6u9oDspvYRg_7qchrono9timepoint8datetime5tests18test_parse_with_tzs_7case_07
FNDA:1,_RNvNtNtNtNtCs6u9oDspvYRg_7qchrono9timepoint8datetime5tests18test_parse_with_tzs_7case_08
FNDA:1,_RNvNtNtNtNtCs6u9oDspvYRg_7qchrono9timepoint8datetime5tests18test_parse_with_tzs_7case_09
FNDA:1,_RNvNtNtNtNtCs6u9oDspvYRg_7qchrono9timepoint8datetime5tests18test_parse_with_tzs_7case_10
FNDA:1,_RNvNtNtNtNtCs6u9oDspvYRg_7qchrono9timepoint8datetime5tests18test_parse_with_tzs_7case_11
FNDA:1,_RNvNtNtNtNtCs6u9oDspvYRg_7qchrono9timepoint8datetime5tests18test_parse_with_tzs_7case_12
FNDA:1,_RNvNtNtNtNtCs6u9oDspvYRg_7qchrono9timepoint8datetime5tests18test_parse_with_tzs_7case_13
FNDA:1,_RNvNtNtNtNtCs6u9oDspvYRg_7qchrono9timepoint8datetime5tests18test_parse_with_tzs_7case_14
FNDA:1,_RNvNtNtNtNtCs6u9oDspvYRg_7qchrono9timepoint8datetime5tests18test_parse_with_tzs_7case_15
FNDA:1,_RNvNtNtNtNtCs6u9oDspvYRg_7qchrono9timepoint8datetime5tests18test_parse_with_tzs_7case_16
FNDA:1,_RNvNtNtNtNtCs6u9oDspvYRg_7qchrono9timepoint8datetime5tests18test_parse_with_tzs_7case_17
FNDA:1,_RNvNtNtNtNtCs6u9oDspvYRg_7qchrono9timepoint8datetime5tests18test_parse_with_tzs_7case_18
FNDA:1,_RNvNtNtNtNtCs6u9oDspvYRg_7qchrono9timepoint8datetime5tests18test_parse_with_tzs_7case_19
FNDA:1,_RNvNtNtNtNtCs6u9oDspvYRg_7qchrono9timepoint8datetime5tests18test_parse_with_tzs_7case_20
FNDA:1,_RNvNtNtNtNtCs6u9oDspvYRg_7qchrono9timepoint8datetime5tests18test_parse_with_tzs_7case_21
FNDA:1,_RNvNtNtNtNtCs6u9oDspvYRg_7qchrono9timepoint8datetime5tests18test_parse_with_tzs_7case_22
FNDA:1,_RNvNtNtNtNtCs6u9oDspvYRg_7qchrono9timepoint8datetime5tests18test_parse_with_tzs_7case_23
FNDA:1,_RNvNtNtNtNtCs6u9oDspvYRg_7qchrono9timepoint8datetime5tests18test_parse_with_tzs_7case_24
FNDA:1,_RNvNtNtNtNtCs6u9oDspvYRg_7qchrono9timepoint8datetime5tests18test_parse_with_tzs_7case_25
FNDA:1,_RNvNtNtNtNtCs6u9oDspvYRg_7qchrono9timepoint8datetime5tests18test_parse_with_tzs_7case_26
FNDA:1,_RNvNtNtNtNtCs6u9oDspvYRg_7qchrono9timepoint8datetime5tests18test_parse_with_tzs_7case_27
FNDA:1,_RNvNtNtNtNtCs6u9oDspvYRg_7qchrono9timepoint8datetime5tests18test_parse_with_tzs_7case_28
FNDA:22,_RNvNtNtNtCs6u9oDspvYRg_7qchrono9timepoint8datetime5tests14test_parse_err
FNDA:12,_RNvNtNtNtCs6u9oDspvYRg_7qchrono9timepoint8datetime5tests14test_to_string
FNDA:1,_RNvNtNtNtNtCs6u9oDspvYRg_7qchrono9timepoint8datetime5tests23test_parse_fixed_offsets_6case_1
FNDA:1,_RNvNtNtNtNtCs6u9oDspvYRg_7qchrono9timepoint8datetime5tests23test_parse_fixed_offsets_6case_2
FNDA:1,_RNvNtNtNtNtCs6u9oDspvYRg_7qchrono9timepoint8datetime5tests23test_parse_fixed_offsets_6case_3
FNDA:1,_RNvNtNtNtNtCs6u9oDspvYRg_7qchrono9timepoint8datetime5tests23test_parse_fixed_offsets_6case_4
FNDA:1,_RNvNtNtNtNtCs6u9oDspvYRg_7qchrono9timepoint8datetime5tests23test_parse_fixed_offsets_6case_5
FNDA:1,_RNvNtNtNtNtCs6u9oDspvYRg_7qchrono9timepoint8datetime5tests23test_parse_fixed_offsets_6case_6
FNDA:1,_RNvNtNtNtNtCs6u9oDspvYRg_7qchrono9timepoint8datetime5tests14test_parse_utcs_6case_1
FNDA:1,_RNvNtNtNtNtCs6u9oDspvYRg_7qchrono9timepoint8datetime5tests14test_parse_utcs_6case_2
FNDA:1,_RNvNtNtNtNtCs6u9oDspvYRg_7qchrono9timepoint8datetime5tests14test_parse_utcs_6case_3
FNDA:1,_RNvNtNtNtNtCs6u9oDspvYRg_7qchrono9timepoint8datetime5tests14test_parse_errs_13case_01_no_tz
FNDA:1,_RNvNtNtNtNtCs6u9oDspvYRg_7qchrono9timepoint8datetime5tests14test_parse_errs_13case_02_no_tz
FNDA:1,_RNvNtNtNtNtCs6u9oDspvYRg_7qchrono9timepoint8datetime5tests14test_parse_errs_18case_03_invalid_tp
FNDA:1,_RNvNtNtNtNtCs6u9oDspvYRg_7qchrono9timepoint8datetime5tests14test_parse_errs_18case_04_invalid_tp
FNDA:1,_RNvNtNtNtNtCs6u9oDspvYRg_7qchrono9timepoint8datetime5tests14test_parse_errs_18case_05_invalid_tp
FNDA:1,_RNvNtNtNtNtCs6u9oDspvYRg_7qchrono9timepoint8datetime5tests14test_parse_errs_18case_06_invalid_tp
FNDA:1,_RNvNtNtNtNtCs6u9oDspvYRg_7qchrono9timepoint8datetime5tests14test_parse_errs_18case_07_invalid_tp
FNDA:1,_RNvNtNtNtNtCs6u9oDspvYRg_7qchrono9timepoint8datetime5tests14test_parse_errs_18case_08_invalid_tp
FNDA:1,_RNvNtNtNtNtCs6u9oDspvYRg_7qchrono9timepoint8datetime5tests14test_parse_errs_18case_09_invalid_tp
FNDA:1,_RNvNtNtNtNtCs6u9oDspvYRg_7qchrono9timepoint8datetime5tests14test_parse_errs_18case_10_invalid_tp
FNDA:1,_RNvNtNtNtNtCs6u9oDspvYRg_7qchrono9timepoint8datetime5tests14test_parse_errs_18case_11_invalid_tp
FNDA:1,_RNvNtNtNtNtCs6u9oDspvYRg_7qchrono9timepoint8datetime5tests14test_parse_errs_18case_12_invalid_tp
FNDA:1,_RNvNtNtNtNtCs6u9oDspvYRg_7qchrono9timepoint8datetime5tests14test_parse_errs_18case_13_invalid_tp
FNDA:1,_RNvNtNtNtNtCs6u9oDspvYRg_7qchrono9timepoint8datetime5tests14test_parse_errs_18case_14_invalid_tz
FNDA:1,_RNvNtNtNtNtCs6u9oDspvYRg_7qchrono9timepoint8datetime5tests14test_parse_errs_18case_15_invalid_tz
FNDA:1,_RNvNtNtNtNtCs6u9oDspvYRg_7qchrono9timepoint8datetime5tests14test_parse_errs_18case_16_invalid_tz
FNDA:1,_RNvNtNtNtNtCs6u9oDspvYRg_7qchrono9timepoint8datetime5tests14test_parse_errs_18case_17_invalid_tz
FNDA:1,_RNvNtNtNtNtCs6u9oDspvYRg_7qchrono9timepoint8datetime5tests14test_parse_errs_18case_18_invalid_tz
FNDA:1,_RNvNtNtNtNtCs6u9oDspvYRg_7qchrono9timepoint8datetime5tests14test_parse_errs_18case_19_invalid_tz
FNDA:1,_RNvNtNtNtNtCs6u9oDspvYRg_7qchrono9timepoint8datetime5tests14test_parse_errs_19case_20_non_trimmed
FNDA:1,_RNvNtNtNtNtCs6u9oDspvYRg_7qchrono9timepoint8datetime5tests14test_parse_errs_19case_21_non_trimmed
FNDA:1,_RNvNtNtNtNtCs6u9oDspvYRg_7qchrono9timepoint8datetime5tests14test_parse_errs_19case_22_non_trimmed
FNDA:37,_RNvXNtNtCs6u9oDspvYRg_7qchrono9timepoint8datetimeNtB2_8DateTimeNtNtCs2fyPGiZs4Bj_4core3cmp9PartialEq2eqB6_
FNDA:86,_RNvXs4_NtNtCs6u9oDspvYRg_7qchrono9timepoint8datetimeNtB5_8DateTimeINtNtCs2fyPGiZs4Bj_4core7convert4FromINtNtCs9T1gxOhu6ob_6chrono8datetime8DateTimeNtNtB7_8timezone2TzEE4fromB9_
FNDA:18,_RNvXs6_NtNtCs6u9oDspvYRg_7qchrono9timepoint8datetimeNtB5_8DateTimeINtNtCs2fyPGiZs4Bj_4core7convert4FromINtNtCs9T1gxOhu6ob_6chrono8datetime8DateTimeNtNtNtB1I_6offset5fixed11FixedOffsetEE4fromB9_
FNDA:12,_RNvXs8_NtNtCs6u9oDspvYRg_7qchrono9timepoint8datetimeNtB5_8DateTimeNtNtCs2fyPGiZs4Bj_4core3fmt7Display3fmt
FNDA:71,_RNvXs9_NtNtCs6u9oDspvYRg_7qchrono9timepoint8datetimeNtB5_8DateTimeNtNtNtCs2fyPGiZs4Bj_4core3str6traits7FromStr8from_str
FNDA:1,_RNCNvXs9_NtNtCs6u9oDspvYRg_7qchrono9timepoint8datetimeNtB7_8DateTimeNtNtNtCs2fyPGiZs4Bj_4core3str6traits7FromStr8from_str0Bb_
FNDA:5,_RNCNvXs9_NtNtCs6u9oDspvYRg_7qchrono9timepoint8datetimeNtB7_8DateTimeNtNtNtCs2fyPGiZs4Bj_4core3str6traits7FromStr8from_strs_0Bb_
FNDA:0,_RNCNvXs9_NtNtCs6u9oDspvYRg_7qchrono9timepoint8datetimeNtB7_8DateTimeNtNtNtCs2fyPGiZs4Bj_4core3str6traits7FromStr8from_strs0_0Bb_
FNDA:17,_RNCNvXs9_NtNtCs6u9oDspvYRg_7qchrono9timepoint8datetimeNtB7_8DateTimeNtNtNtCs2fyPGiZs4Bj_4core3str6traits7FromStr8from_strs1_0Bb_
FNDA:0,_RNvXsl_NtNtCs6u9oDspvYRg_7qchrono9timepoint8datetimeNtB5_8DateTimeNtNtCs2fyPGiZs4Bj_4core3fmt5Debug3fmt
FNDA:1,_RNvNtNtNtNtCs6u9oDspvYRg_7qchrono9timepoint8datetime5tests14test_to_strings_7case_01
FNDA:1,_RNvNtNtNtNtCs6u9oDspvYRg_7qchrono9timepoint8datetime5tests14test_to_strings_7case_02
FNDA:1,_RNvNtNtNtNtCs6u9oDspvYRg_7qchrono9timepoint8datetime5tests14test_to_strings_7case_03
FNDA:1,_RNvNtNtNtNtCs6u9oDspvYRg_7qchrono9timepoint8datetime5tests14test_to_strings_7case_04
FNDA:1,_RNvNtNtNtNtCs6u9oDspvYRg_7qchrono9timepoint8datetime5tests14test_to_strings_7case_05
FNDA:1,_RNvNtNtNtNtCs6u9oDspvYRg_7qchrono9timepoint8datetime5tests14test_to_strings_7case_06
FNDA:1,_RNvNtNtNtNtCs6u9oDspvYRg_7qchrono9timepoint8datetime5tests14test_to_strings_7case_07
FNDA:1,_RNvNtNtNtNtCs6u9oDspvYRg_7qchrono9timepoint8datetime5tests14test_to_strings_7case_08
FNDA:1,_RNvNtNtNtNtCs6u9oDspvYRg_7qchrono9timepoint8datetime5tests14test_to_strings_7case_09
FNDA:1,_RNvNtNtNtNtCs6u9oDspvYRg_7qchrono9timepoint8datetime5tests14test_to_strings_7case_10
FNDA:1,_RNvNtNtNtNtCs6u9oDspvYRg_7qchrono9timepoint8datetime5tests14test_to_strings_7case_11
FNDA:1,_RNvNtNtNtNtCs6u9oDspvYRg_7qchrono9timepoint8datetime5tests14test_to_strings_7case_12
FNDA:0,_RNvXs0_NtNtCs6u9oDspvYRg_7qchrono9timepoint8datetimeNtB5_8DateTimeNtNtCs2fyPGiZs4Bj_4core3cmp10PartialOrd11partial_cmpB9_
FNDA:0,_RNvXs1_NtNtCs6u9oDspvYRg_7qchrono9timepoint8datetimeNtB5_8DateTimeNtNtCs2fyPGiZs4Bj_4core3cmp3Ord3cmpB9_
FNDA:0,_RINvXs2_NtNtCs6u9oDspvYRg_7qchrono9timepoint8datetimeNtB6_8DateTimeNtNtCs2fyPGiZs4Bj_4core4hash4Hash4hashpEBa_
FNDA:0,_RNvXs3_NtNtCs6u9oDspvYRg_7qchrono9timepoint8datetimeINtNtCs9T1gxOhu6ob_6chrono8datetime8DateTimeNtNtB7_8timezone2TzEINtNtCs2fyPGiZs4Bj_4core7convert4FromNtB5_8DateTimeE4fromB9_
FNDA:0,_RNvXs5_NtNtCs6u9oDspvYRg_7qchrono9timepoint8datetimeNtB5_8DateTimeINtNtCs2fyPGiZs4Bj_4core7convert4FromINtNtCs9T1gxOhu6ob_6chrono8datetime8DateTimeNtNtNtB1I_6offset3utc3UtcEE4fromB9_
FNDA:0,_RNvXs7_NtNtCs6u9oDspvYRg_7qchrono9timepoint8datetimeNtB5_8DateTimeINtNtCs2fyPGiZs4Bj_4core7convert4FromINtNtCs9T1gxOhu6ob_6chrono8datetime8DateTimeNtNtCs2y6e2uO2zGp_9chrono_tz9timezones2TzEE4fromB9_
FNDA:0,_RINvXsa_NtNtCs6u9oDspvYRg_7qchrono9timepoint8datetimeNtB6_8DateTimeNtNtCshDylzWGrM8d_5serde3ser9Serialize9serializepEBa_
FNDA:0,_RINvXsb_NtNtCs6u9oDspvYRg_7qchrono9timepoint8datetimeNtB6_8DateTimeNtNtCshDylzWGrM8d_5serde2de11Deserialize11deserializepEBa_
FNDA:0,_RNvXsc_NtNtCs6u9oDspvYRg_7qchrono9timepoint8datetimeNtB5_8DateTimeNtCsfZgeB9GPpUp_8schemars10JsonSchema11schema_name
FNDA:0,_RNvXsc_NtNtCs6u9oDspvYRg_7qchrono9timepoint8datetimeNtB5_8DateTimeNtCsfZgeB9GPpUp_8schemars10JsonSchema9schema_id
FNDA:0,_RNvXsc_NtNtCs6u9oDspvYRg_7qchrono9timepoint8datetimeNtB5_8DateTimeNtCsfZgeB9GPpUp_8schemars10JsonSchema11json_schema
FNDA:0,_RNvXsd_NtNtCs6u9oDspvYRg_7qchrono9timepoint8datetimeNtB5_8DateTimeNtNtCs9T1gxOhu6ob_6chrono6traits8Datelike4yearB9_
FNDA:0,_RNvXsd_NtNtCs6u9oDspvYRg_7qchrono9timepoint8datetimeNtB5_8DateTimeNtNtCs9T1gxOhu6ob_6chrono6traits8Datelike5monthB9_
FNDA:0,_RNvXsd_NtNtCs6u9oDspvYRg_7qchrono9timepoint8datetimeNtB5_8DateTimeNtNtCs9T1gxOhu6ob_6chrono6traits8Datelike6month0B9_
FNDA:0,_RNvXsd_NtNtCs6u9oDspvYRg_7qchrono9timepoint8datetimeNtB5_8DateTimeNtNtCs9T1gxOhu6ob_6chrono6traits8Datelike3dayB9_
FNDA:0,_RNvXsd_NtNtCs6u9oDspvYRg_7qchrono9timepoint8datetimeNtB5_8DateTimeNtNtCs9T1gxOhu6ob_6chrono6traits8Datelike7ordinalB9_
FNDA:0,_RNvXsd_NtNtCs6u9oDspvYRg_7qchrono9timepoint8datetimeNtB5_8DateTimeNtNtCs9T1gxOhu6ob_6chrono6traits8Datelike7weekdayB9_
FNDA:0,_RNvXsd_NtNtCs6u9oDspvYRg_7qchrono9timepoint8datetimeNtB5_8DateTimeNtNtCs9T1gxOhu6ob_6chrono6traits8Datelike8iso_weekB9_
FNDA:0,_RNvXsd_NtNtCs6u9oDspvYRg_7qchrono9timepoint8datetimeNtB5_8DateTimeNtNtCs9T1gxOhu6ob_6chrono6traits8Datelike8with_dayB9_
FNDA:0,_RNCNvXsd_NtNtCs6u9oDspvYRg_7qchrono9timepoint8datetimeNtB7_8DateTimeNtNtCs9T1gxOhu6ob_6chrono6traits8Datelike8with_day0Bb_
FNDA:0,_RNvXsd_NtNtCs6u9oDspvYRg_7qchrono9timepoint8datetimeNtB5_8DateTimeNtNtCs9T1gxOhu6ob_6chrono6traits8Datelike4day0B9_
FNDA:0,_RNvXsd_NtNtCs6u9oDspvYRg_7qchrono9timepoint8datetimeNtB5_8DateTimeNtNtCs9T1gxOhu6ob_6chrono6traits8Datelike16num_days_from_ceB9_
FNDA:0,_RNvXsd_NtNtCs6u9oDspvYRg_7qchrono9timepoint8datetimeNtB5_8DateTimeNtNtCs9T1gxOhu6ob_6chrono6traits8Datelike8ordinal0B9_
FNDA:0,_RNvXsd_NtNtCs6u9oDspvYRg_7qchrono9timepoint8datetimeNtB5_8DateTimeNtNtCs9T1gxOhu6ob_6chrono6traits8Datelike9with_day0B9_
FNDA:0,_RNCNvXsd_NtNtCs6u9oDspvYRg_7qchrono9timepoint8datetimeNtB7_8DateTimeNtNtCs9T1gxOhu6ob_6chrono6traits8Datelike9with_day00Bb_
FNDA:0,_RNvXsd_NtNtCs6u9oDspvYRg_7qchrono9timepoint8datetimeNtB5_8DateTimeNtNtCs9T1gxOhu6ob_6chrono6traits8Datelike10with_monthB9_
FNDA:0,_RNCNvXsd_NtNtCs6u9oDspvYRg_7qchrono9timepoint8datetimeNtB7_8DateTimeNtNtCs9T1gxOhu6ob_6chrono6traits8Datelike10with_month0Bb_
FNDA:0,_RNvXsd_NtNtCs6u9oDspvYRg_7qchrono9timepoint8datetimeNtB5_8DateTimeNtNtCs9T1gxOhu6ob_6chrono6traits8Datelike11with_month0B9_
FNDA:0,_RNCNvXsd_NtNtCs6u9oDspvYRg_7qchrono9timepoint8datetimeNtB7_8DateTimeNtNtCs9T1gxOhu6ob_6chrono6traits8Datelike11with_month00Bb_
FNDA:0,_RNvXsd_NtNtCs6u9oDspvYRg_7qchrono9timepoint8datetimeNtB5_8DateTimeNtNtCs9T1gxOhu6ob_6chrono6traits8Datelike9with_yearB9_
FNDA:0,_RNCNvXsd_NtNtCs6u9oDspvYRg_7qchrono9timepoint8datetimeNtB7_8DateTimeNtNtCs9T1gxOhu6ob_6chrono6traits8Datelike9with_year0Bb_
FNDA:0,_RNvXsd_NtNtCs6u9oDspvYRg_7qchrono9timepoint8datetimeNtB5_8DateTimeNtNtCs9T1gxOhu6ob_6chrono6traits8Datelike12with_ordinalB9_
FNDA:0,_RNCNvXsd_NtNtCs6u9oDspvYRg_7qchrono9timepoint8datetimeNtB7_8DateTimeNtNtCs9T1gxOhu6ob_6chrono6traits8Datelike12with_ordinal0Bb_
FNDA:0,_RNvXsd_NtNtCs6u9oDspvYRg_7qchrono9timepoint8datetimeNtB5_8DateTimeNtNtCs9T1gxOhu6ob_6chrono6traits8Datelike13with_ordinal0B9_
FNDA:0,_RNCNvXsd_NtNtCs6u9oDspvYRg_7qchrono9timepoint8datetimeNtB7_8DateTimeNtNtCs9T1gxOhu6ob_6chrono6traits8Datelike13with_ordinal00Bb_
FNDA:0,_RNvXsd_NtNtCs6u9oDspvYRg_7qchrono9timepoint8datetimeNtB5_8DateTimeNtNtCs9T1gxOhu6ob_6chrono6traits8Datelike7year_ceB9_
FNDA:0,_RNvXse_NtNtCs6u9oDspvYRg_7qchrono9timepoint8datetimeNtB5_8DateTimeNtNtCs9T1gxOhu6ob_6chrono6traits8Timelike4hourB9_
FNDA:0,_RNvXse_NtNtCs6u9oDspvYRg_7qchrono9timepoint8datetimeNtB5_8DateTimeNtNtCs9T1gxOhu6ob_6chrono6traits8Timelike6minuteB9_
FNDA:0,_RNvXse_NtNtCs6u9oDspvYRg_7qchrono9timepoint8datetimeNtB5_8DateTimeNtNtCs9T1gxOhu6ob_6chrono6traits8Timelike6secondB9_
FNDA:0,_RNvXse_NtNtCs6u9oDspvYRg_7qchrono9timepoint8datetimeNtB5_8DateTimeNtNtCs9T1gxOhu6ob_6chrono6traits8Timelike6hour12B9_
FNDA:0,_RNvXse_NtNtCs6u9oDspvYRg_7qchrono9timepoint8datetimeNtB5_8DateTimeNtNtCs9T1gxOhu6ob_6chrono6traits8Timelike10nanosecondB9_
FNDA:0,_RNvXse_NtNtCs6u9oDspvYRg_7qchrono9timepoint8datetimeNtB5_8DateTimeNtNtCs9T1gxOhu6ob_6chrono6traits8Timelike25num_seconds_from_midnightB9_
FNDA:0,_RNvXse_NtNtCs6u9oDspvYRg_7qchrono9timepoint8datetimeNtB5_8DateTimeNtNtCs9T1gxOhu6ob_6chrono6traits8Timelike9with_hourB9_
FNDA:0,_RNCNvXse_NtNtCs6u9oDspvYRg_7qchrono9timepoint8datetimeNtB7_8DateTimeNtNtCs9T1gxOhu6ob_6chrono6traits8Timelike9with_hour0Bb_
FNDA:0,_RNvXse_NtNtCs6u9oDspvYRg_7qchrono9timepoint8datetimeNtB5_8DateTimeNtNtCs9T1gxOhu6ob_6chrono6traits8Timelike11with_minuteB9_
FNDA:0,_RNCNvXse_NtNtCs6u9oDspvYRg_7qchrono9timepoint8datetimeNtB7_8DateTimeNtNtCs9T1gxOhu6ob_6chrono6traits8Timelike11with_minute0Bb_
FNDA:0,_RNvXse_NtNtCs6u9oDspvYRg_7qchrono9timepoint8datetimeNtB5_8DateTimeNtNtCs9T1gxOhu6ob_6chrono6traits8Timelike15with_nanosecondB9_
FNDA:0,_RNCNvXse_NtNtCs6u9oDspvYRg_7qchrono9timepoint8datetimeNtB7_8DateTimeNtNtCs9T1gxOhu6ob_6chrono6traits8Timelike15with_nanosecond0Bb_
FNDA:0,_RNvXse_NtNtCs6u9oDspvYRg_7qchrono9timepoint8datetimeNtB5_8DateTimeNtNtCs9T1gxOhu6ob_6chrono6traits8Timelike11with_secondB9_
FNDA:0,_RNCNvXse_NtNtCs6u9oDspvYRg_7qchrono9timepoint8datetimeNtB7_8DateTimeNtNtCs9T1gxOhu6ob_6chrono6traits8Timelike11with_second0Bb_
FNDA:0,_RNvXsf_NtNtCs6u9oDspvYRg_7qchrono9timepoint8datetimeNtB5_8DateTimeNtNtNtCs2fyPGiZs4Bj_4core3ops5arith3Sub3subB9_
FNDA:0,_RNvXsg_NtNtCs6u9oDspvYRg_7qchrono9timepoint8datetimeRNtB5_8DateTimeNtNtNtCs2fyPGiZs4Bj_4core3ops5arith3Sub3subB9_
FNDA:0,_RNvXsh_NtNtCs6u9oDspvYRg_7qchrono9timepoint8datetimeNtB5_8DateTimeINtNtNtCs2fyPGiZs4Bj_4core3ops5arith3SubRBO_E3subB9_
FNDA:0,_RNvXsi_NtNtCs6u9oDspvYRg_7qchrono9timepoint8datetimeNtB5_8DateTimeINtNtNtCs2fyPGiZs4Bj_4core3ops5arith3AddNtNtNtB9_8duration13duration_impl8DurationE3addB9_
FNDA:0,_RNvXsj_NtNtCs6u9oDspvYRg_7qchrono9timepoint8datetimeNtB5_8DateTimeINtNtNtCs2fyPGiZs4Bj_4core3ops5arith3SubNtNtNtB9_8duration13duration_impl8DurationE3subB9_
FNDA:0,_RNvMsk_NtNtCs6u9oDspvYRg_7qchrono9timepoint8datetimeNtB5_8DateTime4dateB9_
FNDA:0,_RNvMsk_NtNtCs6u9oDspvYRg_7qchrono9timepoint8datetimeNtB5_8DateTime4timeB9_
FNDA:0,_RNvMsk_NtNtCs6u9oDspvYRg_7qchrono9timepoint8datetimeNtB5_8DateTime9add_tenorB9_
FNDA:0,_RNvMsk_NtNtCs6u9oDspvYRg_7qchrono9timepoint8datetimeNtB5_8DateTime8timezoneB9_
FNDA:5,_RNvXsf_NtNtCs2bSmrEEol5z_7qchrono9timepoint8datetimeNtB5_8DateTimeNtNtNtCs2fyPGiZs4Bj_4core3ops5arith3Sub3subCslNfvs0bCstK_8qfincore
FNDA:37,_RNvXsg_NtNtCs2bSmrEEol5z_7qchrono9timepoint8datetimeRNtB5_8DateTimeNtNtNtCs2fyPGiZs4Bj_4core3ops5arith3Sub3subCslNfvs0bCstK_8qfincore
FNDA:190,_RNvXs4_NtNtCs2bSmrEEol5z_7qchrono9timepoint8datetimeNtB5_8DateTimeINtNtCs2fyPGiZs4Bj_4core7convert4FromINtNtCs9T1gxOhu6ob_6chrono8datetime8DateTimeNtNtB7_8timezone2TzEE4fromB9_
FNDA:8,_RNvXs6_NtNtCs2bSmrEEol5z_7qchrono9timepoint8datetimeNtB5_8DateTimeINtNtCs2fyPGiZs4Bj_4core7convert4FromINtNtCs9T1gxOhu6ob_6chrono8datetime8DateTimeNtNtNtB1I_6offset5fixed11FixedOffsetEE4fromB9_
FNDA:4,_RNvXs8_NtNtCs2bSmrEEol5z_7qchrono9timepoint8datetimeNtB5_8DateTimeNtNtCs2fyPGiZs4Bj_4core3fmt7Display3fmt
FNDA:156,_RNvXs9_NtNtCs2bSmrEEol5z_7qchrono9timepoint8datetimeNtB5_8DateTimeNtNtNtCs2fyPGiZs4Bj_4core3str6traits7FromStr8from_str
FNDA:2,_RNCNvXs9_NtNtCs2bSmrEEol5z_7qchrono9timepoint8datetimeNtB7_8DateTimeNtNtNtCs2fyPGiZs4Bj_4core3str6traits7FromStr8from_str0Bb_
FNDA:0,_RNCNvXs9_NtNtCs2bSmrEEol5z_7qchrono9timepoint8datetimeNtB7_8DateTimeNtNtNtCs2fyPGiZs4Bj_4core3str6traits7FromStr8from_strs_0Bb_
FNDA:0,_RNCNvXs9_NtNtCs2bSmrEEol5z_7qchrono9timepoint8datetimeNtB7_8DateTimeNtNtNtCs2fyPGiZs4Bj_4core3str6traits7FromStr8from_strs0_0Bb_
FNDA:0,_RNCNvXs9_NtNtCs2bSmrEEol5z_7qchrono9timepoint8datetimeNtB7_8DateTimeNtNtNtCs2fyPGiZs4Bj_4core3str6traits7FromStr8from_strs1_0Bb_
FNDA:8,_RNvXsc_NtNtCs2bSmrEEol5z_7qchrono9timepoint8datetimeNtB5_8DateTimeNtCsfZgeB9GPpUp_8schemars10JsonSchema11schema_name
FNDA:6,_RNvXsc_NtNtCs2bSmrEEol5z_7qchrono9timepoint8datetimeNtB5_8DateTimeNtCsfZgeB9GPpUp_8schemars10JsonSchema9schema_id
FNDA:2,_RNvXsc_NtNtCs2bSmrEEol5z_7qchrono9timepoint8datetimeNtB5_8DateTimeNtCsfZgeB9GPpUp_8schemars10JsonSchema11json_schema
FNDA:0,_RNvXsl_NtNtCs2bSmrEEol5z_7qchrono9timepoint8datetimeNtB5_8DateTimeNtNtCs2fyPGiZs4Bj_4core3fmt5Debug3fmt
FNDA:0,_RNvXNtNtCs2bSmrEEol5z_7qchrono9timepoint8datetimeNtB2_8DateTimeNtNtCs2fyPGiZs4Bj_4core3cmp9PartialEq2eqB6_
FNDA:0,_RNvXs0_NtNtCs2bSmrEEol5z_7qchrono9timepoint8datetimeNtB5_8DateTimeNtNtCs2fyPGiZs4Bj_4core3cmp10PartialOrd11partial_cmpB9_
FNDA:0,_RNvXs1_NtNtCs2bSmrEEol5z_7qchrono9timepoint8datetimeNtB5_8DateTimeNtNtCs2fyPGiZs4Bj_4core3cmp3Ord3cmpB9_
FNDA:0,_RINvXs2_NtNtCs2bSmrEEol5z_7qchrono9timepoint8datetimeNtB6_8DateTimeNtNtCs2fyPGiZs4Bj_4core4hash4Hash4hashpEBa_
FNDA:0,_RNvXs3_NtNtCs2bSmrEEol5z_7qchrono9timepoint8datetimeINtNtCs9T1gxOhu6ob_6chrono8datetime8DateTimeNtNtB7_8timezone2TzEINtNtCs2fyPGiZs4Bj_4core7convert4FromNtB5_8DateTimeE4fromB9_
FNDA:0,_RNvXs5_NtNtCs2bSmrEEol5z_7qchrono9timepoint8datetimeNtB5_8DateTimeINtNtCs2fyPGiZs4Bj_4core7convert4FromINtNtCs9T1gxOhu6ob_6chrono8datetime8DateTimeNtNtNtB1I_6offset3utc3UtcEE4fromB9_
FNDA:0,_RNvXs7_NtNtCs2bSmrEEol5z_7qchrono9timepoint8datetimeNtB5_8DateTimeINtNtCs2fyPGiZs4Bj_4core7convert4FromINtNtCs9T1gxOhu6ob_6chrono8datetime8DateTimeNtNtCs2y6e2uO2zGp_9chrono_tz9timezones2TzEE4fromB9_
FNDA:0,_RINvXsa_NtNtCs2bSmrEEol5z_7qchrono9timepoint8datetimeNtB6_8DateTimeNtNtCshDylzWGrM8d_5serde3ser9Serialize9serializepEBa_
FNDA:0,_RINvXsb_NtNtCs2bSmrEEol5z_7qchrono9timepoint8datetimeNtB6_8DateTimeNtNtCshDylzWGrM8d_5serde2de11Deserialize11deserializepEBa_
FNDA:0,_RNvXsd_NtNtCs2bSmrEEol5z_7qchrono9timepoint8datetimeNtB5_8DateTimeNtNtCs9T1gxOhu6ob_6chrono6traits8Datelike4yearB9_
FNDA:0,_RNvXsd_NtNtCs2bSmrEEol5z_7qchrono9timepoint8datetimeNtB5_8DateTimeNtNtCs9T1gxOhu6ob_6chrono6traits8Datelike5monthB9_
FNDA:0,_RNvXsd_NtNtCs2bSmrEEol5z_7qchrono9timepoint8datetimeNtB5_8DateTimeNtNtCs9T1gxOhu6ob_6chrono6traits8Datelike6month0B9_
FNDA:0,_RNvXsd_NtNtCs2bSmrEEol5z_7qchrono9timepoint8datetimeNtB5_8DateTimeNtNtCs9T1gxOhu6ob_6chrono6traits8Datelike3dayB9_
FNDA:0,_RNvXsd_NtNtCs2bSmrEEol5z_7qchrono9timepoint8datetimeNtB5_8DateTimeNtNtCs9T1gxOhu6ob_6chrono6traits8Datelike7ordinalB9_
FNDA:0,_RNvXsd_NtNtCs2bSmrEEol5z_7qchrono9timepoint8datetimeNtB5_8DateTimeNtNtCs9T1gxOhu6ob_6chrono6traits8Datelike7weekdayB9_
FNDA:0,_RNvXsd_NtNtCs2bSmrEEol5z_7qchrono9timepoint8datetimeNtB5_8DateTimeNtNtCs9T1gxOhu6ob_6chrono6traits8Datelike8iso_weekB9_
FNDA:0,_RNvXsd_NtNtCs2bSmrEEol5z_7qchrono9timepoint8datetimeNtB5_8DateTimeNtNtCs9T1gxOhu6ob_6chrono6traits8Datelike8with_dayB9_
FNDA:0,_RNCNvXsd_NtNtCs2bSmrEEol5z_7qchrono9timepoint8datetimeNtB7_8DateTimeNtNtCs9T1gxOhu6ob_6chrono6traits8Datelike8with_day0Bb_
FNDA:0,_RNvXsd_NtNtCs2bSmrEEol5z_7qchrono9timepoint8datetimeNtB5_8DateTimeNtNtCs9T1gxOhu6ob_6chrono6traits8Datelike4day0B9_
FNDA:0,_RNvXsd_NtNtCs2bSmrEEol5z_7qchrono9timepoint8datetimeNtB5_8DateTimeNtNtCs9T1gxOhu6ob_6chrono6traits8Datelike16num_days_from_ceB9_
FNDA:0,_RNvXsd_NtNtCs2bSmrEEol5z_7qchrono9timepoint8datetimeNtB5_8DateTimeNtNtCs9T1gxOhu6ob_6chrono6traits8Datelike8ordinal0B9_
FNDA:0,_RNvXsd_NtNtCs2bSmrEEol5z_7qchrono9timepoint8datetimeNtB5_8DateTimeNtNtCs9T1gxOhu6ob_6chrono6traits8Datelike9with_day0B9_
FNDA:0,_RNCNvXsd_NtNtCs2bSmrEEol5z_7qchrono9timepoint8datetimeNtB7_8DateTimeNtNtCs9T1gxOhu6ob_6chrono6traits8Datelike9with_day00Bb_
FNDA:0,_RNvXsd_NtNtCs2bSmrEEol5z_7qchrono9timepoint8datetimeNtB5_8DateTimeNtNtCs9T1gxOhu6ob_6chrono6traits8Datelike10with_monthB9_
FNDA:0,_RNCNvXsd_NtNtCs2bSmrEEol5z_7qchrono9timepoint8datetimeNtB7_8DateTimeNtNtCs9T1gxOhu6ob_6chrono6traits8Datelike10with_month0Bb_
FNDA:0,_RNvXsd_NtNtCs2bSmrEEol5z_7qchrono9timepoint8datetimeNtB5_8DateTimeNtNtCs9T1gxOhu6ob_6chrono6traits8Datelike11with_month0B9_
FNDA:0,_RNCNvXsd_NtNtCs2bSmrEEol5z_7qchrono9timepoint8datetimeNtB7_8DateTimeNtNtCs9T1gxOhu6ob_6chrono6traits8Datelike11with_month00Bb_
FNDA:0,_RNvXsd_NtNtCs2bSmrEEol5z_7qchrono9timepoint8datetimeNtB5_8DateTimeNtNtCs9T1gxOhu6ob_6chrono6traits8Datelike9with_yearB9_
FNDA:0,_RNCNvXsd_NtNtCs2bSmrEEol5z_7qchrono9timepoint8datetimeNtB7_8DateTimeNtNtCs9T1gxOhu6ob_6chrono6traits8Datelike9with_year0Bb_
FNDA:0,_RNvXsd_NtNtCs2bSmrEEol5z_7qchrono9timepoint8datetimeNtB5_8DateTimeNtNtCs9T1gxOhu6ob_6chrono6traits8Datelike12with_ordinalB9_
FNDA:0,_RNCNvXsd_NtNtCs2bSmrEEol5z_7qchrono9timepoint8datetimeNtB7_8DateTimeNtNtCs9T1gxOhu6ob_6chrono6traits8Datelike12with_ordinal0Bb_
FNDA:0,_RNvXsd_NtNtCs2bSmrEEol5z_7qchrono9timepoint8datetimeNtB5_8DateTimeNtNtCs9T1gxOhu6ob_6chrono6traits8Datelike13with_ordinal0B9_
FNDA:0,_RNCNvXsd_NtNtCs2bSmrEEol5z_7qchrono9timepoint8datetimeNtB7_8DateTimeNtNtCs9T1gxOhu6ob_6chrono6traits8Datelike13with_ordinal00Bb_
FNDA:0,_RNvXsd_NtNtCs2bSmrEEol5z_7qchrono9timepoint8datetimeNtB5_8DateTimeNtNtCs9T1gxOhu6ob_6chrono6traits8Datelike7year_ceB9_
FNDA:0,_RNvXse_NtNtCs2bSmrEEol5z_7qchrono9timepoint8datetimeNtB5_8DateTimeNtNtCs9T1gxOhu6ob_6chrono6traits8Timelike4hourB9_
FNDA:0,_RNvXse_NtNtCs2bSmrEEol5z_7qchrono9timepoint8datetimeNtB5_8DateTimeNtNtCs9T1gxOhu6ob_6chrono6traits8Timelike6minuteB9_
FNDA:0,_RNvXse_NtNtCs2bSmrEEol5z_7qchrono9timepoint8datetimeNtB5_8DateTimeNtNtCs9T1gxOhu6ob_6chrono6traits8Timelike6secondB9_
FNDA:0,_RNvXse_NtNtCs2bSmrEEol5z_7qchrono9timepoint8datetimeNtB5_8DateTimeNtNtCs9T1gxOhu6ob_6chrono6traits8Timelike6hour12B9_
FNDA:0,_RNvXse_NtNtCs2bSmrEEol5z_7qchrono9timepoint8datetimeNtB5_8DateTimeNtNtCs9T1gxOhu6ob_6chrono6traits8Timelike10nanosecondB9_
FNDA:0,_RNvXse_NtNtCs2bSmrEEol5z_7qchrono9timepoint8datetimeNtB5_8DateTimeNtNtCs9T1gxOhu6ob_6chrono6traits8Timelike25num_seconds_from_midnightB9_
FNDA:0,_RNvXse_NtNtCs2bSmrEEol5z_7qchrono9timepoint8datetimeNtB5_8DateTimeNtNtCs9T1gxOhu6ob_6chrono6traits8Timelike9with_hourB9_
FNDA:0,_RNCNvXse_NtNtCs2bSmrEEol5z_7qchrono9timepoint8datetimeNtB7_8DateTimeNtNtCs9T1gxOhu6ob_6chrono6traits8Timelike9with_hour0Bb_
FNDA:0,_RNvXse_NtNtCs2bSmrEEol5z_7qchrono9timepoint8datetimeNtB5_8DateTimeNtNtCs9T1gxOhu6ob_6chrono6traits8Timelike11with_minuteB9_
FNDA:0,_RNCNvXse_NtNtCs2bSmrEEol5z_7qchrono9timepoint8datetimeNtB7_8DateTimeNtNtCs9T1gxOhu6ob_6chrono6traits8Timelike11with_minute0Bb_
FNDA:0,_RNvXse_NtNtCs2bSmrEEol5z_7qchrono9timepoint8datetimeNtB5_8DateTimeNtNtCs9T1gxOhu6ob_6chrono6traits8Timelike15with_nanosecondB9_
FNDA:0,_RNCNvXse_NtNtCs2bSmrEEol5z_7qchrono9timepoint8datetimeNtB7_8DateTimeNtNtCs9T1gxOhu6ob_6chrono6traits8Timelike15with_nanosecond0Bb_
FNDA:0,_RNvXse_NtNtCs2bSmrEEol5z_7qchrono9timepoint8datetimeNtB5_8DateTimeNtNtCs9T1gxOhu6ob_6chrono6traits8Timelike11with_secondB9_
FNDA:0,_RNCNvXse_NtNtCs2bSmrEEol5z_7qchrono9timepoint8datetimeNtB7_8DateTimeNtNtCs9T1gxOhu6ob_6chrono6traits8Timelike11with_second0Bb_
FNDA:0,_RNvXsf_NtNtCs2bSmrEEol5z_7qchrono9timepoint8datetimeNtB5_8DateTimeNtNtNtCs2fyPGiZs4Bj_4core3ops5arith3Sub3subB9_
FNDA:0,_RNvXsg_NtNtCs2bSmrEEol5z_7qchrono9timepoint8datetimeRNtB5_8DateTimeNtNtNtCs2fyPGiZs4Bj_4core3ops5arith3Sub3subB9_
FNDA:0,_RNvXsh_NtNtCs2bSmrEEol5z_7qchrono9timepoint8datetimeNtB5_8DateTimeINtNtNtCs2fyPGiZs4Bj_4core3ops5arith3SubRBO_E3subB9_
FNDA:0,_RNvXsi_NtNtCs2bSmrEEol5z_7qchrono9timepoint8datetimeNtB5_8DateTimeINtNtNtCs2fyPGiZs4Bj_4core3ops5arith3AddNtNtNtB9_8duration13duration_impl8DurationE3addB9_
FNDA:0,_RNvXsj_NtNtCs2bSmrEEol5z_7qchrono9timepoint8datetimeNtB5_8DateTimeINtNtNtCs2fyPGiZs4Bj_4core3ops5arith3SubNtNtNtB9_8duration13duration_impl8DurationE3subB9_
FNDA:0,_RNvMsk_NtNtCs2bSmrEEol5z_7qchrono9timepoint8datetimeNtB5_8DateTime4dateB9_
FNDA:0,_RNvMsk_NtNtCs2bSmrEEol5z_7qchrono9timepoint8datetimeNtB5_8DateTime4timeB9_
FNDA:0,_RNvMsk_NtNtCs2bSmrEEol5z_7qchrono9timepoint8datetimeNtB5_8DateTime9add_tenorB9_
FNDA:0,_RNvMsk_NtNtCs2bSmrEEol5z_7qchrono9timepoint8datetimeNtB5_8DateTime8timezoneB9_
FNDA:28,_RNvMsk_NtNtCs2bSmrEEol5z_7qchrono9timepoint8datetimeNtB5_8DateTime4dateCsg8mytIw4ZXd_6qmodel
FNDA:28,_RNvMsk_NtNtCs2bSmrEEol5z_7qchrono9timepoint8datetimeNtB5_8DateTime4timeCsg8mytIw4ZXd_6qmodel
FNDA:28,_RNvMsk_NtNtCs2bSmrEEol5z_7qchrono9timepoint8datetimeNtB5_8DateTime9add_tenorCsg8mytIw4ZXd_6qmodel
FNDA:13,_RNvXNtNtCs2bSmrEEol5z_7qchrono9timepoint8datetimeNtB2_8DateTimeNtNtCs2fyPGiZs4Bj_4core3cmp9PartialEq2eqCsg8mytIw4ZXd_6qmodel
FNDA:68,_RNvXs0_NtNtCs2bSmrEEol5z_7qchrono9timepoint8datetimeNtB5_8DateTimeNtNtCs2fyPGiZs4Bj_4core3cmp10PartialOrd11partial_cmpCsg8mytIw4ZXd_6qmodel
FNDA:0,_RNvXsf_NtNtCs2bSmrEEol5z_7qchrono9timepoint8datetimeNtB5_8DateTimeNtNtNtCs2fyPGiZs4Bj_4core3ops5arith3Sub3subCsg8mytIw4ZXd_6qmodel
FNDA:80,_RNvXsg_NtNtCs2bSmrEEol5z_7qchrono9timepoint8datetimeRNtB5_8DateTimeNtNtNtCs2fyPGiZs4Bj_4core3ops5arith3Sub3subCsg8mytIw4ZXd_6qmodel
FNDA:6,_RNvMsk_NtNtCs2bSmrEEol5z_7qchrono9timepoint8datetimeNtB5_8DateTime4dateCs4yCwz0hjEDq_8qfincore
FNDA:6,_RNvMsk_NtNtCs2bSmrEEol5z_7qchrono9timepoint8datetimeNtB5_8DateTime4timeCs4yCwz0hjEDq_8qfincore
FNDA:6,_RNvMsk_NtNtCs2bSmrEEol5z_7qchrono9timepoint8datetimeNtB5_8DateTime8timezoneCs4yCwz0hjEDq_8qfincore
FNF:74
FNH:23
DA:17,0
DA:32,50
DA:33,50
DA:34,50
DA:40,68
DA:41,68
DA:42,68
DA:46,0
DA:47,0
DA:48,0
DA:52,0
DA:53,0
DA:54,0
DA:62,0
DA:63,0
DA:64,0
DA:68,276
DA:69,276
DA:70,276
DA:71,276
DA:72,276
DA:73,276
DA:74,276
DA:75,276
DA:76,276
DA:77,276
DA:81,0
DA:82,0
DA:83,0
DA:87,26
DA:88,26
DA:89,26
DA:90,26
DA:91,26
DA:95,0
DA:96,0
DA:97,0
DA:104,16
DA:105,16
DA:106,16
DA:107,3
DA:109,6
DA:111,7
DA:112,7
DA:113,7
DA:114,7
DA:115,7
DA:116,7
DA:118,16
DA:124,227
DA:125,227
DA:126,227
DA:127,3
DA:128,227
DA:130,227
DA:131,40
DA:132,40
DA:133,40
DA:134,21
DA:135,21
DA:136,16
DA:137,19
DA:138,19
DA:139,19
DA:140,19
DA:141,19
DA:143,0
DA:146,0
DA:150,0
DA:153,187
DA:154,187
DA:155,170
DA:156,150
DA:157,20
DA:158,20
DA:160,227
DA:164,0
DA:165,0
DA:166,0
DA:167,0
DA:168,0
DA:169,0
DA:170,0
DA:174,0
DA:175,0
DA:176,0
DA:177,0
DA:178,0
DA:179,0
DA:180,0
DA:184,8
DA:185,8
DA:186,8
DA:187,6
DA:188,6
DA:189,6
DA:191,2
DA:192,2
DA:193,2
DA:194,2
DA:195,2
DA:196,2
DA:197,2
DA:198,2
DA:199,2
DA:200,2
DA:201,2
DA:202,2
DA:203,2
DA:204,2
DA:205,2
DA:213,0
DA:214,0
DA:215,0
DA:218,0
DA:219,0
DA:220,0
DA:223,0
DA:224,0
DA:225,0
DA:228,0
DA:229,0
DA:230,0
DA:233,0
DA:234,0
DA:235,0
DA:238,0
DA:239,0
DA:240,0
DA:243,0
DA:244,0
DA:245,0
DA:248,0
DA:249,0
DA:250,0
DA:253,0
DA:254,0
DA:255,0
DA:258,0
DA:259,0
DA:260,0
DA:263,0
DA:264,0
DA:265,0
DA:268,0
DA:269,0
DA:270,0
DA:273,0
DA:274,0
DA:275,0
DA:278,0
DA:279,0
DA:280,0
DA:283,0
DA:284,0
DA:285,0
DA:288,0
DA:289,0
DA:290,0
DA:293,0
DA:294,0
DA:295,0
DA:298,0
DA:299,0
DA:300,0
DA:305,0
DA:306,0
DA:307,0
DA:310,0
DA:311,0
DA:312,0
DA:315,0
DA:316,0
DA:317,0
DA:320,0
DA:321,0
DA:322,0
DA:325,0
DA:326,0
DA:327,0
DA:330,0
DA:331,0
DA:332,0
DA:335,0
DA:336,0
DA:337,0
DA:340,0
DA:341,0
DA:342,0
DA:345,0
DA:346,0
DA:347,0
DA:350,0
DA:351,0
DA:352,0
DA:362,5
DA:363,5
DA:364,5
DA:371,117
DA:372,117
DA:373,117
DA:380,0
DA:381,0
DA:382,0
DA:389,0
DA:390,0
DA:391,0
DA:398,0
DA:399,0
DA:400,0
DA:408,34
DA:409,34
DA:410,34
DA:412,34
DA:413,34
DA:414,34
DA:417,28
DA:418,28
DA:419,28
DA:420,24
DA:421,2
DA:422,2
DA:424,28
DA:427,6
DA:428,6
DA:429,6
DA:438,3
DA:452,6
DA:466,28
DA:557,22
DA:586,12
BRF:0
BRH:0
LF:247
LH:109
end_of_record
SF:/home/runner/work/qrs/qrs/libs/core/qchrono/src/timepoint/timezone.rs
FN:147,_RNvNtNtNtNtCs6u9oDspvYRg_7qchrono9timepoint8timezone5tests16test_tz_from_strs_10case_01_ok
FN:147,_RNvNtNtNtNtCs6u9oDspvYRg_7qchrono9timepoint8timezone5tests16test_tz_from_strs_10case_02_ok
FN:147,_RNvNtNtNtNtCs6u9oDspvYRg_7qchrono9timepoint8timezone5tests16test_tz_from_strs_10case_03_ok
FN:147,_RNvNtNtNtNtCs6u9oDspvYRg_7qchrono9timepoint8timezone5tests16test_tz_from_strs_10case_04_ok
FN:147,_RNvNtNtNtNtCs6u9oDspvYRg_7qchrono9timepoint8timezone5tests16test_tz_from_strs_10case_05_ok
FN:147,_RNvNtNtNtNtCs6u9oDspvYRg_7qchrono9timepoint8timezone5tests16test_tz_from_strs_10case_06_ok
FN:147,_RNvNtNtNtNtCs6u9oDspvYRg_7qchrono9timepoint8timezone5tests16test_tz_from_strs_10case_07_ok
FN:147,_RNvNtNtNtNtCs6u9oDspvYRg_7qchrono9timepoint8timezone5tests16test_tz_from_strs_10case_08_ok
FN:147,_RNvNtNtNtNtCs6u9oDspvYRg_7qchrono9timepoint8timezone5tests16test_tz_from_strs_10case_09_ok
FN:147,_RNvNtNtNtNtCs6u9oDspvYRg_7qchrono9timepoint8timezone5tests16test_tz_from_strs_19case_10_err_nontrim
FN:147,_RNvNtNtNtNtCs6u9oDspvYRg_7qchrono9timepoint8timezone5tests16test_tz_from_strs_19case_11_err_nontrim
FN:147,_RNvNtNtNtNtCs6u9oDspvYRg_7qchrono9timepoint8timezone5tests16test_tz_from_strs_19case_12_err_nontrim
FN:147,_RNvNtNtNtNtCs6u9oDspvYRg_7qchrono9timepoint8timezone5tests16test_tz_from_strs_19case_13_err_nontrim
FN:147,_RNvNtNtNtNtCs6u9oDspvYRg_7qchrono9timepoint8timezone5tests16test_tz_from_strs_19case_14_err_nontrim
FN:147,_RNvNtNtNtNtCs6u9oDspvYRg_7qchrono9timepoint8timezone5tests16test_tz_from_strs_19case_15_err_nontrim
FN:147,_RNvNtNtNtNtCs6u9oDspvYRg_7qchrono9timepoint8timezone5tests16test_tz_from_strs_19case_16_err_nontrim
FN:147,_RNvNtNtNtNtCs6u9oDspvYRg_7qchrono9timepoint8timezone5tests16test_tz_from_strs_19case_17_err_nontrim
FN:147,_RNvNtNtNtNtCs6u9oDspvYRg_7qchrono9timepoint8timezone5tests16test_tz_from_strs_19case_18_err_nontrim
FN:147,_RNvNtNtNtNtCs6u9oDspvYRg_7qchrono9timepoint8timezone5tests16test_tz_from_strs_32case_19_err_invalid_fixed_offset
FN:147,_RNvNtNtNtNtCs6u9oDspvYRg_7qchrono9timepoint8timezone5tests16test_tz_from_strs_32case_20_err_invalid_fixed_offset
FN:147,_RNvNtNtNtNtCs6u9oDspvYRg_7qchrono9timepoint8timezone5tests16test_tz_from_strs_32case_21_err_invalid_fixed_offset
FN:147,_RNvNtNtNtNtCs6u9oDspvYRg_7qchrono9timepoint8timezone5tests16test_tz_from_strs_32case_22_err_invalid_fixed_offset
FN:147,_RNvNtNtNtNtCs6u9oDspvYRg_7qchrono9timepoint8timezone5tests16test_tz_from_strs_32case_23_err_invalid_fixed_offset
FN:147,_RNvNtNtNtNtCs6u9oDspvYRg_7qchrono9timepoint8timezone5tests16test_tz_from_strs_32case_24_err_invalid_fixed_offset
FN:147,_RNvNtNtNtNtCs6u9oDspvYRg_7qchrono9timepoint8timezone5tests16test_tz_from_strs_32case_25_err_invalid_fixed_offset
FN:147,_RNvNtNtNtNtCs6u9oDspvYRg_7qchrono9timepoint8timezone5tests16test_tz_from_strs_32case_26_err_invalid_fixed_offset
FN:147,_RNvNtNtNtNtCs6u9oDspvYRg_7qchrono9timepoint8timezone5tests16test_tz_from_strs_20case_27_non_existing
FN:147,_RNvNtNtNtNtCs6u9oDspvYRg_7qchrono9timepoint8timezone5tests16test_tz_from_strs_22case_28_case_sensitive
FN:15,_RNvXNtNtCs6u9oDspvYRg_7qchrono9timepoint8timezoneNtB2_8TzOffsetNtNtCs9T1gxOhu6ob_6chrono6offset6Offset3fixB6_
FN:39,_RNvXs_NtNtCs6u9oDspvYRg_7qchrono9timepoint8timezoneNtB4_2TzINtNtCs2fyPGiZs4Bj_4core7convert4FromNtNtNtCs9T1gxOhu6ob_6chrono6offset3utc3UtcE4fromB8_
FN:45,_RNvXs0_NtNtCs6u9oDspvYRg_7qchrono9timepoint8timezoneNtB5_2TzINtNtCs2fyPGiZs4Bj_4core7convert4FromNtNtNtCs9T1gxOhu6ob_6chrono6offset5fixed11FixedOffsetE4fromB9_
FN:51,_RNvXs1_NtNtCs6u9oDspvYRg_7qchrono9timepoint8timezoneNtB5_2TzINtNtCs2fyPGiZs4Bj_4core7convert4FromNtNtCs2y6e2uO2zGp_9chrono_tz9timezones2TzE4fromB9_
FN:60,_RNvXs2_NtNtCs6u9oDspvYRg_7qchrono9timepoint8timezoneNtB5_2TzNtNtCs9T1gxOhu6ob_6chrono6offset8TimeZone11from_offsetB9_
FN:81,_RNvXs2_NtNtCs6u9oDspvYRg_7qchrono9timepoint8timezoneNtB5_2TzNtNtCs9T1gxOhu6ob_6chrono6offset8TimeZone26offset_from_local_datetimeB9_
FN:104,_RNvXs2_NtNtCs6u9oDspvYRg_7qchrono9timepoint8timezoneNtB5_2TzNtNtCs9T1gxOhu6ob_6chrono6offset8TimeZone24offset_from_utc_datetimeB9_
FN:119,_RNvXs3_NtNtCs6u9oDspvYRg_7qchrono9timepoint8timezoneNtB5_2TzNtNtNtCs2fyPGiZs4Bj_4core3str6traits7FromStr8from_str
FN:68,_RNvXs2_NtNtCs6u9oDspvYRg_7qchrono9timepoint8timezoneNtB5_2TzNtNtCs9T1gxOhu6ob_6chrono6offset8TimeZone22offset_from_local_dateB9_
FN:96,_RNvXs2_NtNtCs6u9oDspvYRg_7qchrono9timepoint8timezoneNtB5_2TzNtNtCs9T1gxOhu6ob_6chrono6offset8TimeZone20offset_from_utc_dateB9_
FN:145,_RNvNtNtNtCs6u9oDspvYRg_7qchrono9timepoint8timezone5testss_4test
FN:147,_RNvNtNtNtCs6u9oDspvYRg_7qchrono9timepoint8timezone5tests16test_tz_from_str
FN:15,_RNvXNtNtCs2bSmrEEol5z_7qchrono9timepoint8timezoneNtB2_8TzOffsetNtNtCs9T1gxOhu6ob_6chrono6offset6Offset3fixB6_
FN:39,_RNvXs_NtNtCs2bSmrEEol5z_7qchrono9timepoint8timezoneNtB4_2TzINtNtCs2fyPGiZs4Bj_4core7convert4FromNtNtNtCs9T1gxOhu6ob_6chrono6offset3utc3UtcE4fromB8_
FN:45,_RNvXs0_NtNtCs2bSmrEEol5z_7qchrono9timepoint8timezoneNtB5_2TzINtNtCs2fyPGiZs4Bj_4core7convert4FromNtNtNtCs9T1gxOhu6ob_6chrono6offset5fixed11FixedOffsetE4fromB9_
FN:51,_RNvXs1_NtNtCs2bSmrEEol5z_7qchrono9timepoint8timezoneNtB5_2TzINtNtCs2fyPGiZs4Bj_4core7convert4FromNtNtCs2y6e2uO2zGp_9chrono_tz9timezones2TzE4fromB9_
FN:60,_RNvXs2_NtNtCs2bSmrEEol5z_7qchrono9timepoint8timezoneNtB5_2TzNtNtCs9T1gxOhu6ob_6chrono6offset8TimeZone11from_offsetB9_
FN:81,_RNvXs2_NtNtCs2bSmrEEol5z_7qchrono9timepoint8timezoneNtB5_2TzNtNtCs9T1gxOhu6ob_6chrono6offset8TimeZone26offset_from_local_datetimeB9_
FN:104,_RNvXs2_NtNtCs2bSmrEEol5z_7qchrono9timepoint8timezoneNtB5_2TzNtNtCs9T1gxOhu6ob_6chrono6offset8TimeZone24offset_from_utc_datetimeB9_
FN:119,_RNvXs3_NtNtCs2bSmrEEol5z_7qchrono9timepoint8timezoneNtB5_2TzNtNtNtCs2fyPGiZs4Bj_4core3str6traits7FromStr8from_str
FN:68,_RNvXs2_NtNtCs2bSmrEEol5z_7qchrono9timepoint8timezoneNtB5_2TzNtNtCs9T1gxOhu6ob_6chrono6offset8TimeZone22offset_from_local_dateB9_
FN:96,_RNvXs2_NtNtCs2bSmrEEol5z_7qchrono9timepoint8timezoneNtB5_2TzNtNtCs9T1gxOhu6ob_6chrono6offset8TimeZone20offset_from_utc_dateB9_
FN:15,_RNvXNtNtCs2bSmrEEol5z_7qchrono9timepoint8timezoneNtB2_8TzOffsetNtNtCs9T1gxOhu6ob_6chrono6offset6Offset3fixCs4yCwz0hjEDq_8qfincore
FNDA:1,_RNvNtNtNtNtCs6u9oDspvYRg_7qchrono9timepoint8timezone5tests16test_tz_from_strs_10case_01_ok
FNDA:1,_RNvNtNtNtNtCs6u9oDspvYRg_7qchrono9timepoint8timezone5tests16test_tz_from_strs_10case_02_ok
FNDA:1,_RNvNtNtNtNtCs6u9oDspvYRg_7qchrono9timepoint8timezone5tests16test_tz_from_strs_10case_03_ok
FNDA:1,_RNvNtNtNtNtCs6u9oDspvYRg_7qchrono9timepoint8timezone5tests16test_tz_from_strs_10case_04_ok
FNDA:1,_RNvNtNtNtNtCs6u9oDspvYRg_7qchrono9timepoint8timezone5tests16test_tz_from_strs_10case_05_ok
FNDA:1,_RNvNtNtNtNtCs6u9oDspvYRg_7qchrono9timepoint8timezone5tests16test_tz_from_strs_10case_06_ok
FNDA:1,_RNvNtNtNtNtCs6u9oDspvYRg_7qchrono9timepoint8timezone5tests16test_tz_from_strs_10case_07_ok
FNDA:1,_RNvNtNtNtNtCs6u9oDspvYRg_7qchrono9timepoint8timezone5tests16test_tz_from_strs_10case_08_ok
FNDA:1,_RNvNtNtNtNtCs6u9oDspvYRg_7qchrono9timepoint8timezone5tests16test_tz_from_strs_10case_09_ok
FNDA:1,_RNvNtNtNtNtCs6u9oDspvYRg_7qchrono9timepoint8timezone5tests16test_tz_from_strs_19case_10_err_nontrim
FNDA:1,_RNvNtNtNtNtCs6u9oDspvYRg_7qchrono9timepoint8timezone5tests16test_tz_from_strs_19case_11_err_nontrim
FNDA:1,_RNvNtNtNtNtCs6u9oDspvYRg_7qchrono9timepoint8timezone5tests16test_tz_from_strs_19case_12_err_nontrim
FNDA:1,_RNvNtNtNtNtCs6u9oDspvYRg_7qchrono9timepoint8timezone5tests16test_tz_from_strs_19case_13_err_nontrim
FNDA:1,_RNvNtNtNtNtCs6u9oDspvYRg_7qchrono9timepoint8timezone5tests16test_tz_from_strs_19case_14_err_nontrim
FNDA:1,_RNvNtNtNtNtCs6u9oDspvYRg_7qchrono9timepoint8timezone5tests16test_tz_from_strs_19case_15_err_nontrim
FNDA:1,_RNvNtNtNtNtCs6u9oDspvYRg_7qchrono9timepoint8timezone5tests16test_tz_from_strs_19case_16_err_nontrim
FNDA:1,_RNvNtNtNtNtCs6u9oDspvYRg_7qchrono9timepoint8timezone5tests16test_tz_from_strs_19case_17_err_nontrim
FNDA:1,_RNvNtNtNtNtCs6u9oDspvYRg_7qchrono9timepoint8timezone5tests16test_tz_from_strs_19case_18_err_nontrim
FNDA:1,_RNvNtNtNtNtCs6u9oDspvYRg_7qchrono9timepoint8timezone5tests16test_tz_from_strs_32case_19_err_invalid_fixed_offset
FNDA:1,_RNvNtNtNtNtCs6u9oDspvYRg_7qchrono9timepoint8timezone5tests16test_tz_from_strs_32case_20_err_invalid_fixed_offset
FNDA:1,_RNvNtNtNtNtCs6u9oDspvYRg_7qchrono9timepoint8timezone5tests16test_tz_from_strs_32case_21_err_invalid_fixed_offset
FNDA:1,_RNvNtNtNtNtCs6u9oDspvYRg_7qchrono9timepoint8timezone5tests16test_tz_from_strs_32case_22_err_invalid_fixed_offset
FNDA:1,_RNvNtNtNtNtCs6u9oDspvYRg_7qchrono9timepoint8timezone5tests16test_tz_from_strs_32case_23_err_invalid_fixed_offset
FNDA:1,_RNvNtNtNtNtCs6u9oDspvYRg_7qchrono9timepoint8timezone5tests16test_tz_from_strs_32case_24_err_invalid_fixed_offset
FNDA:1,_RNvNtNtNtNtCs6u9oDspvYRg_7qchrono9timepoint8timezone5tests16test_tz_from_strs_32case_25_err_invalid_fixed_offset
FNDA:1,_RNvNtNtNtNtCs6u9oDspvYRg_7qchrono9timepoint8timezone5tests16test_tz_from_strs_32case_26_err_invalid_fixed_offset
FNDA:1,_RNvNtNtNtNtCs6u9oDspvYRg_7qchrono9timepoint8timezone5tests16test_tz_from_strs_20case_27_non_existing
FNDA:1,_RNvNtNtNtNtCs6u9oDspvYRg_7qchrono9timepoint8timezone5tests16test_tz_from_strs_22case_28_case_sensitive
FNDA:215,_RNvXNtNtCs6u9oDspvYRg_7qchrono9timepoint8timezoneNtB2_8TzOffsetNtNtCs9T1gxOhu6ob_6chrono6offset6Offset3fixB6_
FNDA:3,_RNvXs_NtNtCs6u9oDspvYRg_7qchrono9timepoint8timezoneNtB4_2TzINtNtCs2fyPGiZs4Bj_4core7convert4FromNtNtNtCs9T1gxOhu6ob_6chrono6offset3utc3UtcE4fromB8_
FNDA:12,_RNvXs0_NtNtCs6u9oDspvYRg_7qchrono9timepoint8timezoneNtB5_2TzINtNtCs2fyPGiZs4Bj_4core7convert4FromNtNtNtCs9T1gxOhu6ob_6chrono6offset5fixed11FixedOffsetE4fromB9_
FNDA:5,_RNvXs1_NtNtCs6u9oDspvYRg_7qchrono9timepoint8timezoneNtB5_2TzINtNtCs2fyPGiZs4Bj_4core7convert4FromNtNtCs2y6e2uO2zGp_9chrono_tz9timezones2TzE4fromB9_
FNDA:12,_RNvXs2_NtNtCs6u9oDspvYRg_7qchrono9timepoint8timezoneNtB5_2TzNtNtCs9T1gxOhu6ob_6chrono6offset8TimeZone11from_offsetB9_
FNDA:19,_RNvXs2_NtNtCs6u9oDspvYRg_7qchrono9timepoint8timezoneNtB5_2TzNtNtCs9T1gxOhu6ob_6chrono6offset8TimeZone26offset_from_local_datetimeB9_
FNDA:67,_RNvXs2_NtNtCs6u9oDspvYRg_7qchrono9timepoint8timezoneNtB5_2TzNtNtCs9T1gxOhu6ob_6chrono6offset8TimeZone24offset_from_utc_datetimeB9_
FNDA:92,_RNvXs3_NtNtCs6u9oDspvYRg_7qchrono9timepoint8timezoneNtB5_2TzNtNtNtCs2fyPGiZs4Bj_4core3str6traits7FromStr8from_str
FNDA:0,_RNvXs2_NtNtCs6u9oDspvYRg_7qchrono9timepoint8timezoneNtB5_2TzNtNtCs9T1gxOhu6ob_6chrono6offset8TimeZone22offset_from_local_dateB9_
FNDA:0,_RNvXs2_NtNtCs6u9oDspvYRg_7qchrono9timepoint8timezoneNtB5_2TzNtNtCs9T1gxOhu6ob_6chrono6offset8TimeZone20offset_from_utc_dateB9_
FNDA:1,_RNvNtNtNtCs6u9oDspvYRg_7qchrono9timepoint8timezone5testss_4test
FNDA:28,_RNvNtNtNtCs6u9oDspvYRg_7qchrono9timepoint8timezone5tests16test_tz_from_str
FNDA:456,_RNvXNtNtCs2bSmrEEol5z_7qchrono9timepoint8timezoneNtB2_8TzOffsetNtNtCs9T1gxOhu6ob_6chrono6offset6Offset3fixB6_
FNDA:30,_RNvXs_NtNtCs2bSmrEEol5z_7qchrono9timepoint8timezoneNtB4_2TzINtNtCs2fyPGiZs4Bj_4core7convert4FromNtNtNtCs9T1gxOhu6ob_6chrono6offset3utc3UtcE4fromB8_
FNDA:0,_RNvXs0_NtNtCs2bSmrEEol5z_7qchrono9timepoint8timezoneNtB5_2TzINtNtCs2fyPGiZs4Bj_4core7convert4FromNtNtNtCs9T1gxOhu6ob_6chrono6offset5fixed11FixedOffsetE4fromB9_
FNDA:8,_RNvXs1_NtNtCs2bSmrEEol5z_7qchrono9timepoint8timezoneNtB5_2TzINtNtCs2fyPGiZs4Bj_4core7convert4FromNtNtCs2y6e2uO2zGp_9chrono_tz9timezones2TzE4fromB9_
FNDA:38,_RNvXs2_NtNtCs2bSmrEEol5z_7qchrono9timepoint8timezoneNtB5_2TzNtNtCs9T1gxOhu6ob_6chrono6offset8TimeZone11from_offsetB9_
FNDA:34,_RNvXs2_NtNtCs2bSmrEEol5z_7qchrono9timepoint8timezoneNtB5_2TzNtNtCs9T1gxOhu6ob_6chrono6offset8TimeZone26offset_from_local_datetimeB9_
FNDA:156,_RNvXs2_NtNtCs2bSmrEEol5z_7qchrono9timepoint8timezoneNtB5_2TzNtNtCs9T1gxOhu6ob_6chrono6offset8TimeZone24offset_from_utc_datetimeB9_
FNDA:4,_RNvXs3_NtNtCs2bSmrEEol5z_7qchrono9timepoint8timezoneNtB5_2TzNtNtNtCs2fyPGiZs4Bj_4core3str6traits7FromStr8from_str
FNDA:0,_RNvXs2_NtNtCs2bSmrEEol5z_7qchrono9timepoint8timezoneNtB5_2TzNtNtCs9T1gxOhu6ob_6chrono6offset8TimeZone22offset_from_local_dateB9_
FNDA:0,_RNvXs2_NtNtCs2bSmrEEol5z_7qchrono9timepoint8timezoneNtB5_2TzNtNtCs9T1gxOhu6ob_6chrono6offset8TimeZone20offset_from_utc_dateB9_
FNDA:34,_RNvXNtNtCs2bSmrEEol5z_7qchrono9timepoint8timezoneNtB2_8TzOffsetNtNtCs9T1gxOhu6ob_6chrono6offset6Offset3fixCs4yCwz0hjEDq_8qfincore
FNF:12
FNH:10
DA:15,705
DA:16,705
DA:17,489
DA:18,112
DA:19,104
DA:21,705
DA:39,33
DA:40,33
DA:41,33
DA:45,12
DA:46,12
DA:47,12
DA:51,13
DA:52,13
DA:53,13
DA:60,50
DA:61,50
DA:62,33
DA:63,6
DA:64,11
DA:66,50
DA:68,0
DA:69,0
DA:70,0
DA:71,0
DA:72,0
DA:73,0
DA:74,0
DA:75,0
DA:76,0
DA:77,0
DA:79,0
DA:81,53
DA:82,53
DA:83,53
DA:84,53
DA:85,53
DA:86,33
DA:87,33
DA:88,33
DA:89,6
DA:90,6
DA:91,6
DA:92,14
DA:94,53
DA:96,0
DA:97,0
DA:98,0
DA:99,0
DA:100,0
DA:102,0
DA:104,223
DA:105,223
DA:106,162
DA:107,41
DA:108,20
DA:110,223
DA:119,96
DA:120,96
DA:121,12
DA:122,84
DA:123,84
DA:124,13
DA:125,71
DA:126,71
DA:127,27
DA:128,44
DA:129,44
DA:130,32
DA:131,12
DA:132,12
DA:133,12
DA:134,12
DA:135,12
DA:136,96
DA:145,1
DA:147,28
BRF:0
BRH:0
LF:77
LH:60
end_of_record
SF:/home/runner/work/qrs/qrs/libs/core/qcollections/src/flat_map/container.rs
FN:269,_RNvNtNtNtCslYGc1rToDtm_12qcollections8flat_map9container5testss_19test_with_sorted_ok
FN:282,_RNvNtNtNtCslYGc1rToDtm_12qcollections8flat_map9container5testss_25test_with_sorted_ok_empty
FN:295,_RNvNtNtNtCslYGc1rToDtm_12qcollections8flat_map9container5testss_25test_with_sorted_err_size
FN:305,_RNvNtNtNtCslYGc1rToDtm_12qcollections8flat_map9container5testss_31test_with_sorted_err_unsortable
FN:315,_RNvNtNtNtCslYGc1rToDtm_12qcollections8flat_map9container5testss_30test_with_sorted_err_unordered
FN:325,_RNvNtNtNtCslYGc1rToDtm_12qcollections8flat_map9container5testss_31test_with_sorted_err_duplicated
FN:335,_RNvNtNtNtCslYGc1rToDtm_12qcollections8flat_map9container5testss_17test_with_data_ok
FN:348,_RNvNtNtNtCslYGc1rToDtm_12qcollections8flat_map9container5testss_23test_with_data_ok_empty
FN:361,_RNvNtNtNtCslYGc1rToDtm_12qcollections8flat_map9container5testss_23test_with_data_err_size
FN:371,_RNvNtNtNtCslYGc1rToDtm_12qcollections8flat_map9container5testss_29test_with_data_err_unsortable
FN:381,_RNvNtNtNtCslYGc1rToDtm_12qcollections8flat_map9container5testss_14test_serialize
FN:396,_RNvNtNtNtCslYGc1rToDtm_12qcollections8flat_map9container5testss_20test_serialize_empty
FN:407,_RNvNtNtNtCslYGc1rToDtm_12qcollections8flat_map9container5testss_16test_deserizlize
